---
triple:          'arm64-apple-darwin'
binary-path:     transformer
relocations:
  - { offsetInCU: 0x44, offset: 0x44, size: 0x8, addend: 0x0, symName: __ZN5EigenL4lastE, symObjAddr: 0x711480, symBinAddr: 0x1000F6920, symSize: 0x0 }
  - { offsetInCU: 0x72D, offset: 0x72D, size: 0x8, addend: 0x0, symName: __ZN5Eigen8internal20manage_caching_sizesENS_6ActionEPlS2_S2_, symObjAddr: 0x5F314, symBinAddr: 0x100062B04, symSize: 0x2A8 }
  - { offsetInCU: 0x752, offset: 0x752, size: 0x8, addend: 0x0, symName: __ZZN5Eigen8internal20manage_caching_sizesENS_6ActionEPlS2_S2_E12m_cacheSizes, symObjAddr: 0xB33A0, symBinAddr: 0x1000F4000, symSize: 0x0 }
  - { offsetInCU: 0x9642, offset: 0x9642, size: 0x8, addend: 0x0, symName: __ZN5Eigen8internal37evaluateProductBlockingSizesHeuristicIddLi1ElEEvRT2_S3_S3_S2_, symObjAddr: 0x5D67C, symBinAddr: 0x100060E6C, symSize: 0x1C98 }
  - { offsetInCU: 0xB599, offset: 0xB599, size: 0x8, addend: 0x0, symName: __ZN5Eigen8internal14pldexp_genericI19__simd128_float64_tEET_RKS3_S5_, symObjAddr: 0x75058, symBinAddr: 0x100078848, symSize: 0x9D0 }
  - { offsetInCU: 0x12EEA, offset: 0x12EEA, size: 0x8, addend: 0x0, symName: __ZN5Eigen8internal31conditional_aligned_delete_autoIdLb1EEEvPT_m, symObjAddr: 0x9480, symBinAddr: 0x10000CC70, symSize: 0x28 }
  - { offsetInCU: 0x12F36, offset: 0x12F36, size: 0x8, addend: 0x0, symName: __ZN5Eigen8internal24conditional_aligned_freeILb1EEEvPv, symObjAddr: 0x94A8, symBinAddr: 0x10000CC98, symSize: 0x24 }
  - { offsetInCU: 0x12F6A, offset: 0x12F6A, size: 0x8, addend: 0x0, symName: __ZN5Eigen8internal12aligned_freeEPv, symObjAddr: 0x94CC, symBinAddr: 0x10000CCBC, symSize: 0x24 }
  - { offsetInCU: 0x12FCC, offset: 0x12FCC, size: 0x8, addend: 0x0, symName: __ZN5Eigen8internal19throw_std_bad_allocEv, symObjAddr: 0x1810C, symBinAddr: 0x10001B8FC, symSize: 0x38 }
  - { offsetInCU: 0x13008, offset: 0x13008, size: 0x8, addend: 0x0, symName: __ZN5Eigen8internal28conditional_aligned_new_autoIdLb1EEEPT_m, symObjAddr: 0x18464, symBinAddr: 0x10001BC54, symSize: 0x84 }
  - { offsetInCU: 0x13076, offset: 0x13076, size: 0x8, addend: 0x0, symName: __ZN5Eigen8internal26conditional_aligned_mallocILb1EEEPvm, symObjAddr: 0x184E8, symBinAddr: 0x10001BCD8, symSize: 0x24 }
  - { offsetInCU: 0x130AC, offset: 0x130AC, size: 0x8, addend: 0x0, symName: __ZN5Eigen8internal14aligned_mallocEm, symObjAddr: 0x1850C, symBinAddr: 0x10001BCFC, symSize: 0xE0 }
  - { offsetInCU: 0x130ED, offset: 0x130ED, size: 0x8, addend: 0x0, symName: __ZN5Eigen8internal28check_that_malloc_is_allowedEv, symObjAddr: 0x185EC, symBinAddr: 0x10001BDDC, symSize: 0x4 }
  - { offsetInCU: 0x13106, offset: 0x13106, size: 0x8, addend: 0x0, symName: __ZN5Eigen8internal24call_assignment_no_aliasINS_6MatrixIdLin1ELin1ELi0ELin1ELin1EEENS_14CwiseNullaryOpINS0_16scalar_random_opIdEES3_EENS0_9assign_opIddEEEEvRT_RKT0_RKT1_, symObjAddr: 0x185F0, symBinAddr: 0x10001BDE0, symSize: 0x3C }
  - { offsetInCU: 0x131DE, offset: 0x131DE, size: 0x8, addend: 0x0, symName: __ZN5Eigen8internal18check_for_aliasingINS_6MatrixIdLin1ELin1ELi0ELin1ELin1EEENS_14CwiseNullaryOpINS0_16scalar_random_opIdEES3_EEEEvRKT_RKT0_, symObjAddr: 0x186AC, symBinAddr: 0x10001BE9C, symSize: 0x60 }
  - { offsetInCU: 0x13229, offset: 0x13229, size: 0x8, addend: 0x0, symName: __ZN5Eigen8internal26call_dense_assignment_loopINS_6MatrixIdLin1ELin1ELi0ELin1ELin1EEENS_14CwiseNullaryOpINS0_16scalar_random_opIdEES3_EENS0_9assign_opIddEEEEvRT_RKT0_RKT1_, symObjAddr: 0x1870C, symBinAddr: 0x10001BEFC, symSize: 0x3F8 }
  - { offsetInCU: 0x1347E, offset: 0x1347E, size: 0x8, addend: 0x0, symName: __ZN5Eigen8internal17resize_if_allowedINS_6MatrixIdLin1ELin1ELi0ELin1ELin1EEENS_14CwiseNullaryOpINS0_16scalar_random_opIdEES3_EEddEEvRT_RKT0_RKNS0_9assign_opIT1_T2_EE, symObjAddr: 0x18B4C, symBinAddr: 0x10001C33C, symSize: 0xFC }
  - { offsetInCU: 0x13756, offset: 0x13756, size: 0x8, addend: 0x0, symName: __ZN5Eigen8internal6randomIdEENS0_13random_retvalINS0_36global_math_functions_filtering_baseIT_vE4typeEE4typeEv, symObjAddr: 0x19880, symBinAddr: 0x10001D070, symSize: 0x14 }
  - { offsetInCU: 0x137D1, offset: 0x137D1, size: 0x8, addend: 0x0, symName: __ZN5Eigen8internal15call_assignmentINS_6MatrixIdLin1ELin1ELi0ELin1ELin1EEENS_14CwiseNullaryOpINS0_16scalar_random_opIdEES3_EEEEvRT_RKT0_, symObjAddr: 0x19D18, symBinAddr: 0x10001D508, symSize: 0x1F8 }
  - { offsetInCU: 0x1381E, offset: 0x1381E, size: 0x8, addend: 0x0, symName: __ZN5Eigen8internal15call_assignmentINS_6MatrixIdLin1ELin1ELi0ELin1ELin1EEENS_14CwiseNullaryOpINS0_16scalar_random_opIdEES3_EENS0_9assign_opIddEEEEvRT_RKT0_RKT1_NS0_9enable_ifIXntsr25evaluator_assume_aliasingISC_EE5valueEPvE4typeE, symObjAddr: 0x19F10, symBinAddr: 0x10001D700, symSize: 0x38 }
  - { offsetInCU: 0x1388C, offset: 0x1388C, size: 0x8, addend: 0x0, symName: __ZN5Eigen8internal24call_assignment_no_aliasINS_6MatrixIdLin1ELi1ELi0ELin1ELi1EEENS_14CwiseNullaryOpINS0_16scalar_random_opIdEES3_EENS0_9assign_opIddEEEEvRT_RKT0_RKT1_, symObjAddr: 0x1AEA4, symBinAddr: 0x10001E694, symSize: 0x3C }
  - { offsetInCU: 0x1395A, offset: 0x1395A, size: 0x8, addend: 0x0, symName: __ZN5Eigen8internal18check_for_aliasingINS_6MatrixIdLin1ELi1ELi0ELin1ELi1EEENS_14CwiseNullaryOpINS0_16scalar_random_opIdEES3_EEEEvRKT_RKT0_, symObjAddr: 0x1AF48, symBinAddr: 0x10001E738, symSize: 0x14 }
  - { offsetInCU: 0x139A5, offset: 0x139A5, size: 0x8, addend: 0x0, symName: __ZN5Eigen8internal26call_dense_assignment_loopINS_6MatrixIdLin1ELi1ELi0ELin1ELi1EEENS_14CwiseNullaryOpINS0_16scalar_random_opIdEES3_EENS0_9assign_opIddEEEEvRT_RKT0_RKT1_, symObjAddr: 0x1AF5C, symBinAddr: 0x10001E74C, symSize: 0x3FC }
  - { offsetInCU: 0x13B53, offset: 0x13B53, size: 0x8, addend: 0x0, symName: __ZN5Eigen8internal17resize_if_allowedINS_6MatrixIdLin1ELi1ELi0ELin1ELi1EEENS_14CwiseNullaryOpINS0_16scalar_random_opIdEES3_EEddEEvRT_RKT0_RKNS0_9assign_opIT1_T2_EE, symObjAddr: 0x1B38C, symBinAddr: 0x10001EB7C, symSize: 0xFC }
  - { offsetInCU: 0x13E2B, offset: 0x13E2B, size: 0x8, addend: 0x0, symName: __ZN5Eigen8internal22ignore_unused_variableIlEEvRKT_, symObjAddr: 0x1BE1C, symBinAddr: 0x10001F60C, symSize: 0x10 }
  - { offsetInCU: 0x13E5A, offset: 0x13E5A, size: 0x8, addend: 0x0, symName: __ZN5Eigen8internal10smart_copyIdEEvPKT_S4_PS2_, symObjAddr: 0x23E84, symBinAddr: 0x100027674, symSize: 0x34 }
  - { offsetInCU: 0x13F0F, offset: 0x13F0F, size: 0x8, addend: 0x0, symName: __ZN5Eigen8internal17get_runtime_valueIlEElRKT_, symObjAddr: 0x318B0, symBinAddr: 0x1000350A0, symSize: 0x60 }
  - { offsetInCU: 0x13F6E, offset: 0x13F6E, size: 0x8, addend: 0x0, symName: __ZN5Eigen8internal15call_assignmentINS_5BlockINS_6MatrixIdLin1ELin1ELi0ELin1ELin1EEELin1ELin1ELb0EEES4_EEvRT_RKT0_, symObjAddr: 0x32028, symBinAddr: 0x100035818, symSize: 0x1F8 }
  - { offsetInCU: 0x13FBB, offset: 0x13FBB, size: 0x8, addend: 0x0, symName: __ZN5Eigen8internal15call_assignmentINS_5BlockINS_6MatrixIdLin1ELin1ELi0ELin1ELin1EEELin1ELin1ELb0EEES4_NS0_9assign_opIddEEEEvRT_RKT0_RKT1_NS0_9enable_ifIXntsr25evaluator_assume_aliasingISA_EE5valueEPvE4typeE, symObjAddr: 0x32234, symBinAddr: 0x100035A24, symSize: 0x38 }
  - { offsetInCU: 0x14029, offset: 0x14029, size: 0x8, addend: 0x0, symName: __ZN5Eigen8internal24call_assignment_no_aliasINS_5BlockINS_6MatrixIdLin1ELin1ELi0ELin1ELin1EEELin1ELin1ELb0EEES4_NS0_9assign_opIddEEEEvRT_RKT0_RKT1_, symObjAddr: 0x3226C, symBinAddr: 0x100035A5C, symSize: 0x3C }
  - { offsetInCU: 0x140F7, offset: 0x140F7, size: 0x8, addend: 0x0, symName: __ZN5Eigen8internal18check_for_aliasingINS_5BlockINS_6MatrixIdLin1ELin1ELi0ELin1ELin1EEELin1ELin1ELb0EEES4_EEvRKT_RKT0_, symObjAddr: 0x322E8, symBinAddr: 0x100035AD8, symSize: 0x60 }
  - { offsetInCU: 0x14142, offset: 0x14142, size: 0x8, addend: 0x0, symName: __ZN5Eigen8internal26call_dense_assignment_loopINS_5BlockINS_6MatrixIdLin1ELin1ELi0ELin1ELin1EEELin1ELin1ELb0EEES4_NS0_9assign_opIddEEEEvRT_RKT0_RKT1_, symObjAddr: 0x32348, symBinAddr: 0x100035B38, symSize: 0x424 }
  - { offsetInCU: 0x14244, offset: 0x14244, size: 0x8, addend: 0x0, symName: __ZN5Eigen8internal17resize_if_allowedINS_5BlockINS_6MatrixIdLin1ELin1ELi0ELin1ELin1EEELin1ELin1ELb0EEES4_ddEEvRT_RKT0_RKNS0_9assign_opIT1_T2_EE, symObjAddr: 0x327D0, symBinAddr: 0x100035FC0, symSize: 0xFC }
  - { offsetInCU: 0x14304, offset: 0x14304, size: 0x8, addend: 0x0, symName: __ZN5Eigen8internal13first_alignedILi16EdlEET1_PKT0_S2_, symObjAddr: 0x337F0, symBinAddr: 0x100036FE0, symSize: 0xBC }
  - { offsetInCU: 0x14447, offset: 0x14447, size: 0x8, addend: 0x0, symName: __ZN5Eigen8internal6pstoreId19__simd128_float64_tEEvPT_RKT0_, symObjAddr: 0x34110, symBinAddr: 0x100037900, symSize: 0xB4 }
  - { offsetInCU: 0x144AF, offset: 0x144AF, size: 0x8, addend: 0x0, symName: __ZN5Eigen8internal6ploaduI19__simd128_float64_tEET_PKNS0_15unpacket_traitsIS3_E4typeE, symObjAddr: 0x341C4, symBinAddr: 0x1000379B4, symSize: 0x70 }
  - { offsetInCU: 0x14503, offset: 0x14503, size: 0x8, addend: 0x0, symName: __ZN5Eigen8internal24call_assignment_no_aliasINS_6MatrixIdLin1ELin1ELi0ELin1ELin1EEENS_13CwiseBinaryOpINS0_13scalar_sum_opIddEEKS3_S7_EENS0_9assign_opIddEEEEvRT_RKT0_RKT1_, symObjAddr: 0x3551C, symBinAddr: 0x100038D0C, symSize: 0x3C }
  - { offsetInCU: 0x145D1, offset: 0x145D1, size: 0x8, addend: 0x0, symName: __ZN5Eigen8internal18check_for_aliasingINS_6MatrixIdLin1ELin1ELi0ELin1ELin1EEENS_13CwiseBinaryOpINS0_13scalar_sum_opIddEEKS3_S7_EEEEvRKT_RKT0_, symObjAddr: 0x35598, symBinAddr: 0x100038D88, symSize: 0x60 }
  - { offsetInCU: 0x1461C, offset: 0x1461C, size: 0x8, addend: 0x0, symName: __ZN5Eigen8internal26call_dense_assignment_loopINS_6MatrixIdLin1ELin1ELi0ELin1ELin1EEENS_13CwiseBinaryOpINS0_13scalar_sum_opIddEEKS3_S7_EENS0_9assign_opIddEEEEvRT_RKT0_RKT1_, symObjAddr: 0x355F8, symBinAddr: 0x100038DE8, symSize: 0x43C }
  - { offsetInCU: 0x1471E, offset: 0x1471E, size: 0x8, addend: 0x0, symName: __ZN5Eigen8internal17resize_if_allowedINS_6MatrixIdLin1ELin1ELi0ELin1ELin1EEENS_13CwiseBinaryOpINS0_13scalar_sum_opIddEEKS3_S7_EEddEEvRT_RKT0_RKNS0_9assign_opIT1_T2_EE, symObjAddr: 0x35A7C, symBinAddr: 0x10003926C, symSize: 0xFC }
  - { offsetInCU: 0x14A05, offset: 0x14A05, size: 0x8, addend: 0x0, symName: __ZN5Eigen8internal4paddI19__simd128_float64_tEET_RKS3_S5_, symObjAddr: 0x36880, symBinAddr: 0x10003A070, symSize: 0xC8 }
  - { offsetInCU: 0x14A4C, offset: 0x14A4C, size: 0x8, addend: 0x0, symName: __ZN5Eigen8internal5ploadI19__simd128_float64_tEET_PKNS0_15unpacket_traitsIS3_E4typeE, symObjAddr: 0x36948, symBinAddr: 0x10003A138, symSize: 0x70 }
  - { offsetInCU: 0x14AA0, offset: 0x14AA0, size: 0x8, addend: 0x0, symName: __ZN5Eigen8internal24call_assignment_no_aliasINS_6MatrixIdLin1ELin1ELi0ELin1ELin1EEENS_13CwiseBinaryOpINS0_18scalar_quotient_opIddEEKNS_7ProductIS3_NS_9TransposeIKS3_EELi0EEEKNS_14CwiseNullaryOpINS0_18scalar_constant_opIdEES9_EEEENS0_9assign_opIddEEEEvRT_RKT0_RKT1_, symObjAddr: 0x42EB4, symBinAddr: 0x1000466A4, symSize: 0x3C }
  - { offsetInCU: 0x14B6E, offset: 0x14B6E, size: 0x8, addend: 0x0, symName: __ZN5Eigen8internal18check_for_aliasingINS_6MatrixIdLin1ELin1ELi0ELin1ELin1EEENS_13CwiseBinaryOpINS0_18scalar_quotient_opIddEEKNS_7ProductIS3_NS_9TransposeIKS3_EELi0EEEKNS_14CwiseNullaryOpINS0_18scalar_constant_opIdEES9_EEEEEEvRKT_RKT0_, symObjAddr: 0x42F30, symBinAddr: 0x100046720, symSize: 0x60 }
  - { offsetInCU: 0x14BB9, offset: 0x14BB9, size: 0x8, addend: 0x0, symName: __ZN5Eigen8internal26call_dense_assignment_loopINS_6MatrixIdLin1ELin1ELi0ELin1ELin1EEENS_13CwiseBinaryOpINS0_18scalar_quotient_opIddEEKNS_7ProductIS3_NS_9TransposeIKS3_EELi0EEEKNS_14CwiseNullaryOpINS0_18scalar_constant_opIdEES9_EEEENS0_9assign_opIddEEEEvRT_RKT0_RKT1_, symObjAddr: 0x42F90, symBinAddr: 0x100046780, symSize: 0x40C }
  - { offsetInCU: 0x14CBC, offset: 0x14CBC, size: 0x8, addend: 0x0, symName: __ZN5Eigen8internal17resize_if_allowedINS_6MatrixIdLin1ELin1ELi0ELin1ELin1EEENS_13CwiseBinaryOpINS0_18scalar_quotient_opIddEEKNS_7ProductIS3_NS_9TransposeIKS3_EELi0EEEKNS_14CwiseNullaryOpINS0_18scalar_constant_opIdEES9_EEEEddEEvRT_RKT0_RKNS0_9assign_opIT1_T2_EE, symObjAddr: 0x433E4, symBinAddr: 0x100046BD4, symSize: 0xFC }
  - { offsetInCU: 0x15035, offset: 0x15035, size: 0x8, addend: 0x0, symName: __ZN5Eigen8internal22ignore_unused_variableIdEEvRKT_, symObjAddr: 0x4556C, symBinAddr: 0x100048D5C, symSize: 0x10 }
  - { offsetInCU: 0x15064, offset: 0x15064, size: 0x8, addend: 0x0, symName: __ZN5Eigen8internal42call_restricted_packet_assignment_no_aliasINS_6MatrixIdLin1ELin1ELi0ELin1ELin1EEENS_7ProductIS3_NS_9TransposeIKS3_EELi1EEENS0_9assign_opIddEEEEvRT_RKT0_RKT1_, symObjAddr: 0x4557C, symBinAddr: 0x100048D6C, symSize: 0x45C }
  - { offsetInCU: 0x15129, offset: 0x15129, size: 0x8, addend: 0x0, symName: __ZN5Eigen8internal17resize_if_allowedINS_6MatrixIdLin1ELin1ELi0ELin1ELin1EEENS_7ProductIS3_NS_9TransposeIKS3_EELi1EEEddEEvRT_RKT0_RKNS0_9assign_opIT1_T2_EE, symObjAddr: 0x45C30, symBinAddr: 0x100049420, symSize: 0xFC }
  - { offsetInCU: 0x1584C, offset: 0x1584C, size: 0x8, addend: 0x0, symName: __ZN5Eigen8internal5pset1I19__simd128_float64_tEET_RKNS0_15unpacket_traitsIS3_E4typeE, symObjAddr: 0x4AF30, symBinAddr: 0x10004E720, symSize: 0x90 }
  - { offsetInCU: 0x15883, offset: 0x15883, size: 0x8, addend: 0x0, symName: __ZN5Eigen8internal5pmaddI19__simd128_float64_tEET_RKS3_S5_S5_, symObjAddr: 0x4AFC0, symBinAddr: 0x10004E7B0, symSize: 0x118 }
  - { offsetInCU: 0x158DB, offset: 0x158DB, size: 0x8, addend: 0x0, symName: __ZN5Eigen8internal15call_assignmentINS_6MatrixIdLin1ELin1ELi0ELin1ELin1EEENS_14CwiseNullaryOpINS0_18scalar_constant_opIdEES3_EEEEvRT_RKT0_, symObjAddr: 0x4BA20, symBinAddr: 0x10004F210, symSize: 0x1F8 }
  - { offsetInCU: 0x15928, offset: 0x15928, size: 0x8, addend: 0x0, symName: __ZN5Eigen8internal15call_assignmentINS_6MatrixIdLin1ELin1ELi0ELin1ELin1EEENS_14CwiseNullaryOpINS0_18scalar_constant_opIdEES3_EENS0_9assign_opIddEEEEvRT_RKT0_RKT1_NS0_9enable_ifIXntsr25evaluator_assume_aliasingISC_EE5valueEPvE4typeE, symObjAddr: 0x4BC2C, symBinAddr: 0x10004F41C, symSize: 0x38 }
  - { offsetInCU: 0x15996, offset: 0x15996, size: 0x8, addend: 0x0, symName: __ZN5Eigen8internal24call_assignment_no_aliasINS_6MatrixIdLin1ELin1ELi0ELin1ELin1EEENS_14CwiseNullaryOpINS0_18scalar_constant_opIdEES3_EENS0_9assign_opIddEEEEvRT_RKT0_RKT1_, symObjAddr: 0x4BC64, symBinAddr: 0x10004F454, symSize: 0x3C }
  - { offsetInCU: 0x15A64, offset: 0x15A64, size: 0x8, addend: 0x0, symName: __ZN5Eigen8internal18check_for_aliasingINS_6MatrixIdLin1ELin1ELi0ELin1ELin1EEENS_14CwiseNullaryOpINS0_18scalar_constant_opIdEES3_EEEEvRKT_RKT0_, symObjAddr: 0x4BCE0, symBinAddr: 0x10004F4D0, symSize: 0x60 }
  - { offsetInCU: 0x15AAF, offset: 0x15AAF, size: 0x8, addend: 0x0, symName: __ZN5Eigen8internal26call_dense_assignment_loopINS_6MatrixIdLin1ELin1ELi0ELin1ELin1EEEEEvRT_RKNS_14CwiseNullaryOpINS0_18scalar_constant_opINS4_6ScalarEEES4_EERKNS0_9assign_opIS8_S8_EE, symObjAddr: 0x4BD40, symBinAddr: 0x10004F530, symSize: 0x254 }
  - { offsetInCU: 0x15B41, offset: 0x15B41, size: 0x8, addend: 0x0, symName: __ZN5Eigen8internal17resize_if_allowedINS_6MatrixIdLin1ELin1ELi0ELin1ELin1EEENS_14CwiseNullaryOpINS0_18scalar_constant_opIdEES3_EEddEEvRT_RKT0_RKNS0_9assign_opIT1_T2_EE, symObjAddr: 0x4BFA8, symBinAddr: 0x10004F798, symSize: 0xFC }
  - { offsetInCU: 0x16338, offset: 0x16338, size: 0x8, addend: 0x0, symName: __ZN5Eigen8internal16parallelize_gemmILb1ENS0_12gemm_functorIdlNS0_29general_matrix_matrix_productIldLi0ELb0EdLi1ELb0ELi0ELi1EEENS_6MatrixIdLin1ELin1ELi0ELin1ELin1EEENS_9TransposeIKS6_EES6_NS0_19gemm_blocking_spaceILi0EddLin1ELin1ELin1ELi1ELb0EEEEElEEvRKT0_T1_SG_SG_b, symObjAddr: 0x4CCC8, symBinAddr: 0x1000504B8, symSize: 0x2C0 }
  - { offsetInCU: 0x16A6C, offset: 0x16A6C, size: 0x8, addend: 0x0, symName: __ZN5Eigen8internal4pmulIdEET_RKS2_S4_, symObjAddr: 0x4FE64, symBinAddr: 0x100053654, symSize: 0xB0 }
  - { offsetInCU: 0x16C0D, offset: 0x16C0D, size: 0x8, addend: 0x0, symName: __ZN5Eigen8internal7pstoreuId19__simd128_float64_tEEvPT_RKT0_, symObjAddr: 0x55830, symBinAddr: 0x100059020, symSize: 0xB4 }
  - { offsetInCU: 0x1742B, offset: 0x1742B, size: 0x8, addend: 0x0, symName: __ZN5Eigen8internal15call_assignmentINS_3MapINS_6MatrixIdLin1ELi1ELi0ELin1ELi1EEELi2ENS_6StrideILi0ELi0EEEEENS_9TransposeINS_5BlockINS3_IdLin1ELin1ELi0ELin1ELin1EEELi1ELin1ELb0EEEEEEEvRT_RKT0_, symObjAddr: 0x5A944, symBinAddr: 0x10005E134, symSize: 0x1F8 }
  - { offsetInCU: 0x17478, offset: 0x17478, size: 0x8, addend: 0x0, symName: __ZN5Eigen8internal15call_assignmentINS_3MapINS_6MatrixIdLin1ELi1ELi0ELin1ELi1EEELi2ENS_6StrideILi0ELi0EEEEENS_9TransposeINS_5BlockINS3_IdLin1ELin1ELi0ELin1ELin1EEELi1ELin1ELb0EEEEENS0_9assign_opIddEEEEvRT_RKT0_RKT1_NS0_9enable_ifIXntsr25evaluator_assume_aliasingISH_EE5valueEPvE4typeE, symObjAddr: 0x5AB50, symBinAddr: 0x10005E340, symSize: 0x38 }
  - { offsetInCU: 0x174E6, offset: 0x174E6, size: 0x8, addend: 0x0, symName: __ZN5Eigen8internal24call_assignment_no_aliasINS_3MapINS_6MatrixIdLin1ELi1ELi0ELin1ELi1EEELi2ENS_6StrideILi0ELi0EEEEENS_9TransposeINS_5BlockINS3_IdLin1ELin1ELi0ELin1ELin1EEELi1ELin1ELb0EEEEENS0_9assign_opIddEEEEvRT_RKT0_RKT1_, symObjAddr: 0x5AB88, symBinAddr: 0x10005E378, symSize: 0x3C }
  - { offsetInCU: 0x175B4, offset: 0x175B4, size: 0x8, addend: 0x0, symName: __ZN5Eigen8internal18check_for_aliasingINS_3MapINS_6MatrixIdLin1ELi1ELi0ELin1ELi1EEELi2ENS_6StrideILi0ELi0EEEEENS_9TransposeINS_5BlockINS3_IdLin1ELin1ELi0ELin1ELin1EEELi1ELin1ELb0EEEEEEEvRKT_RKT0_, symObjAddr: 0x5AC04, symBinAddr: 0x10005E3F4, symSize: 0x14 }
  - { offsetInCU: 0x175FF, offset: 0x175FF, size: 0x8, addend: 0x0, symName: __ZN5Eigen8internal26call_dense_assignment_loopINS_3MapINS_6MatrixIdLin1ELi1ELi0ELin1ELi1EEELi2ENS_6StrideILi0ELi0EEEEENS_9TransposeINS_5BlockINS3_IdLin1ELin1ELi0ELin1ELin1EEELi1ELin1ELb0EEEEENS0_9assign_opIddEEEEvRT_RKT0_RKT1_, symObjAddr: 0x5AC18, symBinAddr: 0x10005E408, symSize: 0x464 }
  - { offsetInCU: 0x178F6, offset: 0x178F6, size: 0x8, addend: 0x0, symName: __ZN5Eigen8internal17resize_if_allowedINS_3MapINS_6MatrixIdLin1ELi1ELi0ELin1ELi1EEELi2ENS_6StrideILi0ELi0EEEEENS_9TransposeINS_5BlockINS3_IdLin1ELin1ELi0ELin1ELin1EEELi1ELin1ELb0EEEEEddEEvRT_RKT0_RKNS0_9assign_opIT1_T2_EE, symObjAddr: 0x5B0B0, symBinAddr: 0x10005E8A0, symSize: 0xFC }
  - { offsetInCU: 0x17C1E, offset: 0x17C1E, size: 0x8, addend: 0x0, symName: __ZN5Eigen8internal15call_assignmentINS_9TransposeINS_5BlockINS_6MatrixIdLin1ELin1ELi0ELin1ELin1EEELi1ELin1ELb0EEEEENS_3MapINS4_IdLin1ELi1ELi0ELin1ELi1EEELi2ENS_6StrideILi0ELi0EEEEEEEvRT_RKT0_, symObjAddr: 0x5C048, symBinAddr: 0x10005F838, symSize: 0x1F8 }
  - { offsetInCU: 0x17C6B, offset: 0x17C6B, size: 0x8, addend: 0x0, symName: __ZN5Eigen8internal15call_assignmentINS_9TransposeINS_5BlockINS_6MatrixIdLin1ELin1ELi0ELin1ELin1EEELi1ELin1ELb0EEEEENS_3MapINS4_IdLin1ELi1ELi0ELin1ELi1EEELi2ENS_6StrideILi0ELi0EEEEENS0_9assign_opIddEEEEvRT_RKT0_RKT1_NS0_9enable_ifIXntsr25evaluator_assume_aliasingISH_EE5valueEPvE4typeE, symObjAddr: 0x5C254, symBinAddr: 0x10005FA44, symSize: 0x38 }
  - { offsetInCU: 0x17CD9, offset: 0x17CD9, size: 0x8, addend: 0x0, symName: __ZN5Eigen8internal24call_assignment_no_aliasINS_9TransposeINS_5BlockINS_6MatrixIdLin1ELin1ELi0ELin1ELin1EEELi1ELin1ELb0EEEEENS_3MapINS4_IdLin1ELi1ELi0ELin1ELi1EEELi2ENS_6StrideILi0ELi0EEEEENS0_9assign_opIddEEEEvRT_RKT0_RKT1_, symObjAddr: 0x5C28C, symBinAddr: 0x10005FA7C, symSize: 0x3C }
  - { offsetInCU: 0x17DA7, offset: 0x17DA7, size: 0x8, addend: 0x0, symName: __ZN5Eigen8internal18check_for_aliasingINS_9TransposeINS_5BlockINS_6MatrixIdLin1ELin1ELi0ELin1ELin1EEELi1ELin1ELb0EEEEENS_3MapINS4_IdLin1ELi1ELi0ELin1ELi1EEELi2ENS_6StrideILi0ELi0EEEEEEEvRKT_RKT0_, symObjAddr: 0x5C308, symBinAddr: 0x10005FAF8, symSize: 0x14 }
  - { offsetInCU: 0x17DF2, offset: 0x17DF2, size: 0x8, addend: 0x0, symName: __ZN5Eigen8internal26call_dense_assignment_loopINS_9TransposeINS_5BlockINS_6MatrixIdLin1ELin1ELi0ELin1ELin1EEELi1ELin1ELb0EEEEENS_3MapINS4_IdLin1ELi1ELi0ELin1ELi1EEELi2ENS_6StrideILi0ELi0EEEEENS0_9assign_opIddEEEEvRT_RKT0_RKT1_, symObjAddr: 0x5C31C, symBinAddr: 0x10005FB0C, symSize: 0x464 }
  - { offsetInCU: 0x17EB6, offset: 0x17EB6, size: 0x8, addend: 0x0, symName: __ZN5Eigen8internal17resize_if_allowedINS_9TransposeINS_5BlockINS_6MatrixIdLin1ELin1ELi0ELin1ELin1EEELi1ELin1ELb0EEEEENS_3MapINS4_IdLin1ELi1ELi0ELin1ELi1EEELi2ENS_6StrideILi0ELi0EEEEEddEEvRT_RKT0_RKNS0_9assign_opIT1_T2_EE, symObjAddr: 0x5C780, symBinAddr: 0x10005FF70, symSize: 0xFC }
  - { offsetInCU: 0x1818E, offset: 0x1818E, size: 0x8, addend: 0x0, symName: __ZN5Eigen8internal27computeProductBlockingSizesIddLi1ElEEvRT2_S3_S3_S2_, symObjAddr: 0x5D5E0, symBinAddr: 0x100060DD0, symSize: 0x58 }
  - { offsetInCU: 0x1820A, offset: 0x1820A, size: 0x8, addend: 0x0, symName: __ZN5Eigen8internal24useSpecificBlockingSizesIlEEbRT_S3_S3_, symObjAddr: 0x5D638, symBinAddr: 0x100060E28, symSize: 0x44 }
  - { offsetInCU: 0x1825F, offset: 0x1825F, size: 0x8, addend: 0x0, symName: __ZN5Eigen8internal15queryCacheSizesERiS1_S1_, symObjAddr: 0x5FBD8, symBinAddr: 0x1000633C8, symSize: 0x168 }
  - { offsetInCU: 0x182A7, offset: 0x182A7, size: 0x8, addend: 0x0, symName: __ZN5Eigen8internal27manage_caching_sizes_helperEll, symObjAddr: 0x5FD40, symBinAddr: 0x100063530, symSize: 0x44 }
  - { offsetInCU: 0x182E1, offset: 0x182E1, size: 0x8, addend: 0x0, symName: __ZN5Eigen8internal22ignore_unused_variableIbEEvRKT_, symObjAddr: 0x5FF98, symBinAddr: 0x100063788, symSize: 0x10 }
  - { offsetInCU: 0x18310, offset: 0x18310, size: 0x8, addend: 0x0, symName: __ZN5Eigen8internal22ignore_unused_variableIPNS0_16GemmParallelInfoIlEEEEvRKT_, symObjAddr: 0x62394, symBinAddr: 0x100065B84, symSize: 0x10 }
  - { offsetInCU: 0x1840B, offset: 0x1840B, size: 0x8, addend: 0x0, symName: __ZN5Eigen8internal8prefetchIdEEvPKT_, symObjAddr: 0x6CED8, symBinAddr: 0x1000706C8, symSize: 0x18 }
  - { offsetInCU: 0x187F4, offset: 0x187F4, size: 0x8, addend: 0x0, symName: __ZN5Eigen8internal5pmaddIdEET_RKS2_S4_S4_, symObjAddr: 0x703CC, symBinAddr: 0x100073BBC, symSize: 0x22C }
  - { offsetInCU: 0x1884C, offset: 0x1884C, size: 0x8, addend: 0x0, symName: __ZN5Eigen8internal4paddIdEET_RKS2_S4_, symObjAddr: 0x705F8, symBinAddr: 0x100073DE8, symSize: 0xB0 }
  - { offsetInCU: 0x1888F, offset: 0x1888F, size: 0x8, addend: 0x0, symName: __ZN5Eigen8internal14aligned_deleteIdEEvPT_m, symObjAddr: 0x709C0, symBinAddr: 0x1000741B0, symSize: 0x34 }
  - { offsetInCU: 0x188D1, offset: 0x188D1, size: 0x8, addend: 0x0, symName: __ZN5Eigen8internal26destruct_elements_of_arrayIdEEvPT_m, symObjAddr: 0x709F4, symBinAddr: 0x1000741E4, symSize: 0x54 }
  - { offsetInCU: 0x18913, offset: 0x18913, size: 0x8, addend: 0x0, symName: __ZN5Eigen8internal4pdivI19__simd128_float64_tEET_RKS3_S5_, symObjAddr: 0x7142C, symBinAddr: 0x100074C1C, symSize: 0xC8 }
  - { offsetInCU: 0x1895A, offset: 0x1895A, size: 0x8, addend: 0x0, symName: __ZN5Eigen8internal24call_assignment_no_aliasINS_6MatrixIdLin1ELin1ELi0ELin1ELin1EEENS_12CwiseUnaryOpINS0_13scalar_exp_opIdEEKNS_12ArrayWrapperIS3_EEEENS0_9assign_opIddEEEEvRT_RKT0_RKT1_, symObjAddr: 0x724D0, symBinAddr: 0x100075CC0, symSize: 0x3C }
  - { offsetInCU: 0x18A28, offset: 0x18A28, size: 0x8, addend: 0x0, symName: __ZN5Eigen8internal18check_for_aliasingINS_6MatrixIdLin1ELin1ELi0ELin1ELin1EEENS_12CwiseUnaryOpINS0_13scalar_exp_opIdEEKNS_12ArrayWrapperIS3_EEEEEEvRKT_RKT0_, symObjAddr: 0x7254C, symBinAddr: 0x100075D3C, symSize: 0x60 }
  - { offsetInCU: 0x18A73, offset: 0x18A73, size: 0x8, addend: 0x0, symName: __ZN5Eigen8internal26call_dense_assignment_loopINS_6MatrixIdLin1ELin1ELi0ELin1ELin1EEENS_12CwiseUnaryOpINS0_13scalar_exp_opIdEEKNS_12ArrayWrapperIS3_EEEENS0_9assign_opIddEEEEvRT_RKT0_RKT1_, symObjAddr: 0x725AC, symBinAddr: 0x100075D9C, symSize: 0x41C }
  - { offsetInCU: 0x18B75, offset: 0x18B75, size: 0x8, addend: 0x0, symName: __ZN5Eigen8internal17resize_if_allowedINS_6MatrixIdLin1ELin1ELi0ELin1ELin1EEENS_12CwiseUnaryOpINS0_13scalar_exp_opIdEEKNS_12ArrayWrapperIS3_EEEEddEEvRT_RKT0_RKNS0_9assign_opIT1_T2_EE, symObjAddr: 0x72A10, symBinAddr: 0x100076200, symSize: 0xFC }
  - { offsetInCU: 0x18BFB, offset: 0x18BFB, size: 0x8, addend: 0x0, symName: __ZN5Eigen8internal4pexpI19__simd128_float64_tEET_RKS3_, symObjAddr: 0x73730, symBinAddr: 0x100076F20, symSize: 0x64 }
  - { offsetInCU: 0x18C30, offset: 0x18C30, size: 0x8, addend: 0x0, symName: __ZN5Eigen8internal11pexp_doubleI19__simd128_float64_tEET_S3_, symObjAddr: 0x73794, symBinAddr: 0x100076F84, symSize: 0x14FC }
  - { offsetInCU: 0x18E18, offset: 0x18E18, size: 0x8, addend: 0x0, symName: __ZN5Eigen8internal4pmaxI19__simd128_float64_tEET_RKS3_S5_, symObjAddr: 0x74C90, symBinAddr: 0x100078480, symSize: 0xCC }
  - { offsetInCU: 0x18E5F, offset: 0x18E5F, size: 0x8, addend: 0x0, symName: __ZN5Eigen8internal4pminI19__simd128_float64_tEET_RKS3_S5_, symObjAddr: 0x74D5C, symBinAddr: 0x10007854C, symSize: 0xCC }
  - { offsetInCU: 0x18EA6, offset: 0x18EA6, size: 0x8, addend: 0x0, symName: __ZN5Eigen8internal6pfloorI19__simd128_float64_tEET_RKS3_, symObjAddr: 0x74E28, symBinAddr: 0x100078618, symSize: 0x74 }
  - { offsetInCU: 0x18EDD, offset: 0x18EDD, size: 0x8, addend: 0x0, symName: __ZN5Eigen8internal4pmulI19__simd128_float64_tEET_RKS3_S5_, symObjAddr: 0x74E9C, symBinAddr: 0x10007868C, symSize: 0xC8 }
  - { offsetInCU: 0x18F24, offset: 0x18F24, size: 0x8, addend: 0x0, symName: __ZN5Eigen8internal4psubI19__simd128_float64_tEET_RKS3_S5_, symObjAddr: 0x74F64, symBinAddr: 0x100078754, symSize: 0xC8 }
  - { offsetInCU: 0x18F6B, offset: 0x18F6B, size: 0x8, addend: 0x0, symName: __ZN5Eigen8internal6pldexpI19__simd128_float64_tEET_RKS3_S5_, symObjAddr: 0x7502C, symBinAddr: 0x10007881C, symSize: 0x2C }
  - { offsetInCU: 0x18FB1, offset: 0x18FB1, size: 0x8, addend: 0x0, symName: __ZN5Eigen8internal5pset1I17__simd128_int64_tEET_RKNS0_15unpacket_traitsIS3_E4typeE, symObjAddr: 0x75A28, symBinAddr: 0x100079218, symSize: 0x90 }
  - { offsetInCU: 0x18FE8, offset: 0x18FE8, size: 0x8, addend: 0x0, symName: __ZN5Eigen8internal5pcastI19__simd128_float64_t17__simd128_int64_tEET0_RKT_, symObjAddr: 0x75AB8, symBinAddr: 0x1000792A8, symSize: 0x74 }
  - { offsetInCU: 0x19028, offset: 0x19028, size: 0x8, addend: 0x0, symName: __ZN5Eigen8internal7pnegateI19__simd128_float64_tEET_RKS3_, symObjAddr: 0x75B2C, symBinAddr: 0x10007931C, symSize: 0x74 }
  - { offsetInCU: 0x1905F, offset: 0x1905F, size: 0x8, addend: 0x0, symName: __ZN5Eigen8internal23parithmetic_shift_rightILi2EEE17__simd128_int64_tS2_, symObjAddr: 0x75BA0, symBinAddr: 0x100079390, symSize: 0x30 }
  - { offsetInCU: 0x190C3, offset: 0x190C3, size: 0x8, addend: 0x0, symName: __ZN5Eigen8internal12preinterpretI19__simd128_float64_t17__simd128_int64_tEET_RKT0_, symObjAddr: 0x75BD0, symBinAddr: 0x1000793C0, symSize: 0x70 }
  - { offsetInCU: 0x19103, offset: 0x19103, size: 0x8, addend: 0x0, symName: __ZN5Eigen8internal19plogical_shift_leftILi52EEE17__simd128_int64_tS2_, symObjAddr: 0x75C40, symBinAddr: 0x100079430, symSize: 0x30 }
  - { offsetInCU: 0x19167, offset: 0x19167, size: 0x8, addend: 0x0, symName: __ZN5Eigen8internal4paddI17__simd128_int64_tEET_RKS3_S5_, symObjAddr: 0x75C70, symBinAddr: 0x100079460, symSize: 0xC8 }
  - { offsetInCU: 0x191AE, offset: 0x191AE, size: 0x8, addend: 0x0, symName: __ZN5Eigen8internal4psubI17__simd128_int64_tEET_RKS3_S5_, symObjAddr: 0x75D38, symBinAddr: 0x100079528, symSize: 0xC8 }
  - { offsetInCU: 0x191F5, offset: 0x191F5, size: 0x8, addend: 0x0, symName: __ZN5Eigen8internal24call_assignment_no_aliasINS_6MatrixIdLin1ELi1ELi0ELin1ELi1EEENS_16PartialReduxExprINS2_IdLin1ELin1ELi0ELin1ELin1EEENS0_10member_sumIddEELi1EEENS0_9assign_opIddEEEEvRT_RKT0_RKT1_, symObjAddr: 0x76AE4, symBinAddr: 0x10007A2D4, symSize: 0x3C }
  - { offsetInCU: 0x192C3, offset: 0x192C3, size: 0x8, addend: 0x0, symName: __ZN5Eigen8internal18check_for_aliasingINS_6MatrixIdLin1ELi1ELi0ELin1ELi1EEENS_16PartialReduxExprINS2_IdLin1ELin1ELi0ELin1ELin1EEENS0_10member_sumIddEELi1EEEEEvRKT_RKT0_, symObjAddr: 0x76B60, symBinAddr: 0x10007A350, symSize: 0x14 }
  - { offsetInCU: 0x1930E, offset: 0x1930E, size: 0x8, addend: 0x0, symName: __ZN5Eigen8internal26call_dense_assignment_loopINS_6MatrixIdLin1ELi1ELi0ELin1ELi1EEENS_16PartialReduxExprINS2_IdLin1ELin1ELi0ELin1ELin1EEENS0_10member_sumIddEELi1EEENS0_9assign_opIddEEEEvRT_RKT0_RKT1_, symObjAddr: 0x76B74, symBinAddr: 0x10007A364, symSize: 0x424 }
  - { offsetInCU: 0x193D2, offset: 0x193D2, size: 0x8, addend: 0x0, symName: __ZN5Eigen8internal17resize_if_allowedINS_6MatrixIdLin1ELi1ELi0ELin1ELi1EEENS_16PartialReduxExprINS2_IdLin1ELin1ELi0ELin1ELin1EEENS0_10member_sumIddEELi1EEEddEEvRT_RKT0_RKNS0_9assign_opIT1_T2_EE, symObjAddr: 0x77000, symBinAddr: 0x10007A7F0, symSize: 0xFC }
  - { offsetInCU: 0x19600, offset: 0x19600, size: 0x8, addend: 0x0, symName: __ZN5Eigen8internal28packetwise_redux_empty_valueI19__simd128_float64_tNS0_13scalar_sum_opIddEEEET_RKT0_, symObjAddr: 0x790C8, symBinAddr: 0x10007C8B8, symSize: 0x208 }
  - { offsetInCU: 0x19752, offset: 0x19752, size: 0x8, addend: 0x0, symName: __ZN5Eigen8internal24call_assignment_no_aliasINS_6MatrixIdLin1ELin1ELi0ELin1ELin1EEENS_13CwiseBinaryOpINS0_18scalar_quotient_opIddEEKNS_12ArrayWrapperIS3_EEKNS_9ReplicateINS7_INS2_IdLin1ELi1ELi0ELin1ELi1EEEEELi1ELin1EEEEENS0_9assign_opIddEEEEvRT_RKT0_RKT1_, symObjAddr: 0x7B340, symBinAddr: 0x10007EB30, symSize: 0x3C }
  - { offsetInCU: 0x19820, offset: 0x19820, size: 0x8, addend: 0x0, symName: __ZN5Eigen8internal18check_for_aliasingINS_6MatrixIdLin1ELin1ELi0ELin1ELin1EEENS_13CwiseBinaryOpINS0_18scalar_quotient_opIddEEKNS_12ArrayWrapperIS3_EEKNS_9ReplicateINS7_INS2_IdLin1ELi1ELi0ELin1ELi1EEEEELi1ELin1EEEEEEEvRKT_RKT0_, symObjAddr: 0x7B3BC, symBinAddr: 0x10007EBAC, symSize: 0x60 }
  - { offsetInCU: 0x1986B, offset: 0x1986B, size: 0x8, addend: 0x0, symName: __ZN5Eigen8internal26call_dense_assignment_loopINS_6MatrixIdLin1ELin1ELi0ELin1ELin1EEENS_13CwiseBinaryOpINS0_18scalar_quotient_opIddEEKNS_12ArrayWrapperIS3_EEKNS_9ReplicateINS7_INS2_IdLin1ELi1ELi0ELin1ELi1EEEEELi1ELin1EEEEENS0_9assign_opIddEEEEvRT_RKT0_RKT1_, symObjAddr: 0x7B41C, symBinAddr: 0x10007EC0C, symSize: 0x45C }
  - { offsetInCU: 0x19D3D, offset: 0x19D3D, size: 0x8, addend: 0x0, symName: __ZN5Eigen8internal17resize_if_allowedINS_6MatrixIdLin1ELin1ELi0ELin1ELin1EEENS_13CwiseBinaryOpINS0_18scalar_quotient_opIddEEKNS_12ArrayWrapperIS3_EEKNS_9ReplicateINS7_INS2_IdLin1ELi1ELi0ELin1ELi1EEEEELi1ELin1EEEEEddEEvRT_RKT0_RKNS0_9assign_opIT1_T2_EE, symObjAddr: 0x7B8C0, symBinAddr: 0x10007F0B0, symSize: 0xFC }
  - { offsetInCU: 0x1A015, offset: 0x1A015, size: 0x8, addend: 0x0, symName: __ZN5Eigen8internal24call_assignment_no_aliasINS_6MatrixIdLin1ELin1ELi0ELin1ELin1EEENS_7ProductIS3_S3_Li0EEENS0_9assign_opIddEEEEvRT_RKT0_RKT1_, symObjAddr: 0x7D354, symBinAddr: 0x100080B44, symSize: 0x3C }
  - { offsetInCU: 0x1A374, offset: 0x1A374, size: 0x8, addend: 0x0, symName: __ZN5Eigen8internal42call_restricted_packet_assignment_no_aliasINS_6MatrixIdLin1ELin1ELi0ELin1ELin1EEENS_7ProductIS3_S3_Li1EEENS0_9assign_opIddEEEEvRT_RKT0_RKT1_, symObjAddr: 0x7E520, symBinAddr: 0x100081D10, symSize: 0x45C }
  - { offsetInCU: 0x1A439, offset: 0x1A439, size: 0x8, addend: 0x0, symName: __ZN5Eigen8internal17resize_if_allowedINS_6MatrixIdLin1ELin1ELi0ELin1ELin1EEENS_7ProductIS3_S3_Li1EEEddEEvRT_RKT0_RKNS0_9assign_opIT1_T2_EE, symObjAddr: 0x7EBD4, symBinAddr: 0x1000823C4, symSize: 0xFC }
  - { offsetInCU: 0x1AE23, offset: 0x1AE23, size: 0x8, addend: 0x0, symName: __ZN5Eigen8internal16parallelize_gemmILb1ENS0_12gemm_functorIdlNS0_29general_matrix_matrix_productIldLi0ELb0EdLi0ELb0ELi0ELi1EEENS_6MatrixIdLin1ELin1ELi0ELin1ELin1EEES6_S6_NS0_19gemm_blocking_spaceILi0EddLin1ELin1ELin1ELi1ELb0EEEEElEEvRKT0_T1_SD_SD_b, symObjAddr: 0x838D8, symBinAddr: 0x1000870C8, symSize: 0x2C0 }
  - { offsetInCU: 0x1B8E8, offset: 0x1B8E8, size: 0x8, addend: 0x0, symName: __ZN5Eigen8internal15call_assignmentINS_3MapINS_6MatrixIdLin1ELi1ELi0ELin1ELi1EEELi0ENS_6StrideILi0ELi0EEEEENS_9TransposeIKNS_5BlockIKNS3_IdLin1ELin1ELi0ELin1ELin1EEELi1ELin1ELb0EEEEEEEvRT_RKT0_, symObjAddr: 0x8DC90, symBinAddr: 0x100091480, symSize: 0x1F8 }
  - { offsetInCU: 0x1B935, offset: 0x1B935, size: 0x8, addend: 0x0, symName: __ZN5Eigen8internal15call_assignmentINS_3MapINS_6MatrixIdLin1ELi1ELi0ELin1ELi1EEELi0ENS_6StrideILi0ELi0EEEEENS_9TransposeIKNS_5BlockIKNS3_IdLin1ELin1ELi0ELin1ELin1EEELi1ELin1ELb0EEEEENS0_9assign_opIddEEEEvRT_RKT0_RKT1_NS0_9enable_ifIXntsr25evaluator_assume_aliasingISJ_EE5valueEPvE4typeE, symObjAddr: 0x8DE9C, symBinAddr: 0x10009168C, symSize: 0x38 }
  - { offsetInCU: 0x1B9A3, offset: 0x1B9A3, size: 0x8, addend: 0x0, symName: __ZN5Eigen8internal24call_assignment_no_aliasINS_3MapINS_6MatrixIdLin1ELi1ELi0ELin1ELi1EEELi0ENS_6StrideILi0ELi0EEEEENS_9TransposeIKNS_5BlockIKNS3_IdLin1ELin1ELi0ELin1ELin1EEELi1ELin1ELb0EEEEENS0_9assign_opIddEEEEvRT_RKT0_RKT1_, symObjAddr: 0x8DED4, symBinAddr: 0x1000916C4, symSize: 0x3C }
  - { offsetInCU: 0x1BA71, offset: 0x1BA71, size: 0x8, addend: 0x0, symName: __ZN5Eigen8internal18check_for_aliasingINS_3MapINS_6MatrixIdLin1ELi1ELi0ELin1ELi1EEELi0ENS_6StrideILi0ELi0EEEEENS_9TransposeIKNS_5BlockIKNS3_IdLin1ELin1ELi0ELin1ELin1EEELi1ELin1ELb0EEEEEEEvRKT_RKT0_, symObjAddr: 0x8DF50, symBinAddr: 0x100091740, symSize: 0x14 }
  - { offsetInCU: 0x1BABC, offset: 0x1BABC, size: 0x8, addend: 0x0, symName: __ZN5Eigen8internal26call_dense_assignment_loopINS_3MapINS_6MatrixIdLin1ELi1ELi0ELin1ELi1EEELi0ENS_6StrideILi0ELi0EEEEENS_9TransposeIKNS_5BlockIKNS3_IdLin1ELin1ELi0ELin1ELin1EEELi1ELin1ELb0EEEEENS0_9assign_opIddEEEEvRT_RKT0_RKT1_, symObjAddr: 0x8DF64, symBinAddr: 0x100091754, symSize: 0x464 }
  - { offsetInCU: 0x1BB80, offset: 0x1BB80, size: 0x8, addend: 0x0, symName: __ZN5Eigen8internal17resize_if_allowedINS_3MapINS_6MatrixIdLin1ELi1ELi0ELin1ELi1EEELi0ENS_6StrideILi0ELi0EEEEENS_9TransposeIKNS_5BlockIKNS3_IdLin1ELin1ELi0ELin1ELin1EEELi1ELin1ELb0EEEEEddEEvRT_RKT0_RKNS0_9assign_opIT1_T2_EE, symObjAddr: 0x8E3FC, symBinAddr: 0x100091BEC, symSize: 0xFC }
  - { offsetInCU: 0x1BEA8, offset: 0x1BEA8, size: 0x8, addend: 0x0, symName: __ZN5Eigen8internal6preduxI19__simd128_float64_tEENS0_15unpacket_traitsIT_E4typeERKS4_, symObjAddr: 0x8F0F4, symBinAddr: 0x1000928E4, symSize: 0xDC }
  - { offsetInCU: 0x1BEE0, offset: 0x1BEE0, size: 0x8, addend: 0x0, symName: __ZN5Eigen8internal24call_assignment_no_aliasINS_6MatrixIdLin1ELin1ELi0ELin1ELin1EEENS_13CwiseBinaryOpINS0_13scalar_sum_opIddEEKNS_7ProductIS3_S3_Li0EEEKNS_9ReplicateINS_9TransposeIKNS2_IdLin1ELi1ELi0ELin1ELi1EEEEELin1ELi1EEEEENS0_9assign_opIddEEEEvRT_RKT0_RKT1_, symObjAddr: 0x93A24, symBinAddr: 0x100097214, symSize: 0x3C }
  - { offsetInCU: 0x1BFAE, offset: 0x1BFAE, size: 0x8, addend: 0x0, symName: __ZN5Eigen8internal18check_for_aliasingINS_6MatrixIdLin1ELin1ELi0ELin1ELin1EEENS_13CwiseBinaryOpINS0_13scalar_sum_opIddEEKNS_7ProductIS3_S3_Li0EEEKNS_9ReplicateINS_9TransposeIKNS2_IdLin1ELi1ELi0ELin1ELi1EEEEELin1ELi1EEEEEEEvRKT_RKT0_, symObjAddr: 0x93AA0, symBinAddr: 0x100097290, symSize: 0x60 }
  - { offsetInCU: 0x1BFF9, offset: 0x1BFF9, size: 0x8, addend: 0x0, symName: __ZN5Eigen8internal26call_dense_assignment_loopINS_6MatrixIdLin1ELin1ELi0ELin1ELin1EEENS_13CwiseBinaryOpINS0_13scalar_sum_opIddEEKNS_7ProductIS3_S3_Li0EEEKNS_9ReplicateINS_9TransposeIKNS2_IdLin1ELi1ELi0ELin1ELi1EEEEELin1ELi1EEEEENS0_9assign_opIddEEEEvRT_RKT0_RKT1_, symObjAddr: 0x93B00, symBinAddr: 0x1000972F0, symSize: 0x434 }
  - { offsetInCU: 0x1C6FB, offset: 0x1C6FB, size: 0x8, addend: 0x0, symName: __ZN5Eigen8internal17resize_if_allowedINS_6MatrixIdLin1ELin1ELi0ELin1ELin1EEENS_13CwiseBinaryOpINS0_13scalar_sum_opIddEEKNS_7ProductIS3_S3_Li0EEEKNS_9ReplicateINS_9TransposeIKNS2_IdLin1ELi1ELi0ELin1ELi1EEEEELin1ELi1EEEEEddEEvRT_RKT0_RKNS0_9assign_opIT1_T2_EE, symObjAddr: 0x93F7C, symBinAddr: 0x10009776C, symSize: 0xFC }
  - { offsetInCU: 0x1C9D3, offset: 0x1C9D3, size: 0x8, addend: 0x0, symName: __ZN5Eigen8internal15call_assignmentINS_6MatrixIdLin1ELin1ELi0ELin1ELin1EEENS_13CwiseBinaryOpINS0_13scalar_max_opIddLi0EEEKNS_12ArrayWrapperIS3_EEKNS_14CwiseNullaryOpINS0_18scalar_constant_opIdEENS_5ArrayIdLin1ELin1ELi0ELin1ELin1EEEEEEEEEvRT_RKT0_, symObjAddr: 0x96154, symBinAddr: 0x100099944, symSize: 0x1F8 }
  - { offsetInCU: 0x1CA20, offset: 0x1CA20, size: 0x8, addend: 0x0, symName: __ZN5Eigen8internal15call_assignmentINS_6MatrixIdLin1ELin1ELi0ELin1ELin1EEENS_13CwiseBinaryOpINS0_13scalar_max_opIddLi0EEEKNS_12ArrayWrapperIS3_EEKNS_14CwiseNullaryOpINS0_18scalar_constant_opIdEENS_5ArrayIdLin1ELin1ELi0ELin1ELin1EEEEEEENS0_9assign_opIddEEEEvRT_RKT0_RKT1_NS0_9enable_ifIXntsr25evaluator_assume_aliasingISM_EE5valueEPvE4typeE, symObjAddr: 0x96360, symBinAddr: 0x100099B50, symSize: 0x38 }
  - { offsetInCU: 0x1CA8E, offset: 0x1CA8E, size: 0x8, addend: 0x0, symName: __ZN5Eigen8internal24call_assignment_no_aliasINS_6MatrixIdLin1ELin1ELi0ELin1ELin1EEENS_13CwiseBinaryOpINS0_13scalar_max_opIddLi0EEEKNS_12ArrayWrapperIS3_EEKNS_14CwiseNullaryOpINS0_18scalar_constant_opIdEENS_5ArrayIdLin1ELin1ELi0ELin1ELin1EEEEEEENS0_9assign_opIddEEEEvRT_RKT0_RKT1_, symObjAddr: 0x96398, symBinAddr: 0x100099B88, symSize: 0x3C }
  - { offsetInCU: 0x1CB5C, offset: 0x1CB5C, size: 0x8, addend: 0x0, symName: __ZN5Eigen8internal18check_for_aliasingINS_6MatrixIdLin1ELin1ELi0ELin1ELin1EEENS_13CwiseBinaryOpINS0_13scalar_max_opIddLi0EEEKNS_12ArrayWrapperIS3_EEKNS_14CwiseNullaryOpINS0_18scalar_constant_opIdEENS_5ArrayIdLin1ELin1ELi0ELin1ELin1EEEEEEEEEvRKT_RKT0_, symObjAddr: 0x96414, symBinAddr: 0x100099C04, symSize: 0x60 }
  - { offsetInCU: 0x1CBA7, offset: 0x1CBA7, size: 0x8, addend: 0x0, symName: __ZN5Eigen8internal26call_dense_assignment_loopINS_6MatrixIdLin1ELin1ELi0ELin1ELin1EEENS_13CwiseBinaryOpINS0_13scalar_max_opIddLi0EEEKNS_12ArrayWrapperIS3_EEKNS_14CwiseNullaryOpINS0_18scalar_constant_opIdEENS_5ArrayIdLin1ELin1ELi0ELin1ELin1EEEEEEENS0_9assign_opIddEEEEvRT_RKT0_RKT1_, symObjAddr: 0x96474, symBinAddr: 0x100099C64, symSize: 0x43C }
  - { offsetInCU: 0x1CCA9, offset: 0x1CCA9, size: 0x8, addend: 0x0, symName: __ZN5Eigen8internal17resize_if_allowedINS_6MatrixIdLin1ELin1ELi0ELin1ELin1EEENS_13CwiseBinaryOpINS0_13scalar_max_opIddLi0EEEKNS_12ArrayWrapperIS3_EEKNS_14CwiseNullaryOpINS0_18scalar_constant_opIdEENS_5ArrayIdLin1ELin1ELi0ELin1ELin1EEEEEEEddEEvRT_RKT0_RKNS0_9assign_opIT1_T2_EE, symObjAddr: 0x968F8, symBinAddr: 0x10009A0E8, symSize: 0xFC }
  - { offsetInCU: 0x1CD2F, offset: 0x1CD2F, size: 0x8, addend: 0x0, symName: __ZN5Eigen8internal4pmaxILi0E19__simd128_float64_tEET0_RKS3_S5_, symObjAddr: 0x976D0, symBinAddr: 0x10009AEC0, symSize: 0x34 }
  - { offsetInCU: 0x1CDF8, offset: 0x1CDF8, size: 0x8, addend: 0x0, symName: __ZN5Eigen8internal4pmaxILi0EdEET0_RKS2_S4_, symObjAddr: 0x97CD8, symBinAddr: 0x10009B4C8, symSize: 0x34 }
  - { offsetInCU: 0x1CE48, offset: 0x1CE48, size: 0x8, addend: 0x0, symName: __ZN5Eigen8internal4pmaxIdEET_RKS2_S4_, symObjAddr: 0x97D40, symBinAddr: 0x10009B530, symSize: 0x84 }
  - { offsetInCU: 0x1CEB4, offset: 0x1CEB4, size: 0x8, addend: 0x0, symName: __ZN5Eigen8internal24call_assignment_no_aliasINS_6MatrixIdLin1ELi1ELi0ELin1ELi1EEENS_13CwiseBinaryOpINS0_18scalar_quotient_opIddEEKNS_16PartialReduxExprIKNS2_IdLin1ELin1ELi0ELin1ELin1EEENS0_10member_sumIddEELi0EEEKNS_14CwiseNullaryOpINS0_18scalar_constant_opIdEEKNS2_IdLi1ELin1ELi1ELi1ELin1EEEEEEENS0_9assign_opIddEEEEvRT_RKT0_RKT1_, symObjAddr: 0x99324, symBinAddr: 0x10009CB14, symSize: 0x1E8 }
  - { offsetInCU: 0x1CF89, offset: 0x1CF89, size: 0x8, addend: 0x0, symName: __ZN5Eigen8internal18check_for_aliasingINS_9TransposeINS_6MatrixIdLin1ELi1ELi0ELin1ELi1EEEEENS_13CwiseBinaryOpINS0_18scalar_quotient_opIddEEKNS_16PartialReduxExprIKNS3_IdLin1ELin1ELi0ELin1ELin1EEENS0_10member_sumIddEELi0EEEKNS_14CwiseNullaryOpINS0_18scalar_constant_opIdEEKNS3_IdLi1ELin1ELi1ELi1ELin1EEEEEEEEEvRKT_RKT0_, symObjAddr: 0x9966C, symBinAddr: 0x10009CE5C, symSize: 0x14 }
  - { offsetInCU: 0x1CFD4, offset: 0x1CFD4, size: 0x8, addend: 0x0, symName: __ZN5Eigen8internal26call_dense_assignment_loopINS_9TransposeINS_6MatrixIdLin1ELi1ELi0ELin1ELi1EEEEENS_13CwiseBinaryOpINS0_18scalar_quotient_opIddEEKNS_16PartialReduxExprIKNS3_IdLin1ELin1ELi0ELin1ELin1EEENS0_10member_sumIddEELi0EEEKNS_14CwiseNullaryOpINS0_18scalar_constant_opIdEEKNS3_IdLi1ELin1ELi1ELi1ELin1EEEEEEENS0_9assign_opIddEEEEvRT_RKT0_RKT1_, symObjAddr: 0x99680, symBinAddr: 0x10009CE70, symSize: 0x448 }
  - { offsetInCU: 0x1D4B7, offset: 0x1D4B7, size: 0x8, addend: 0x0, symName: __ZN5Eigen8internal17resize_if_allowedINS_9TransposeINS_6MatrixIdLin1ELi1ELi0ELin1ELi1EEEEENS_13CwiseBinaryOpINS0_18scalar_quotient_opIddEEKNS_16PartialReduxExprIKNS3_IdLin1ELin1ELi0ELin1ELin1EEENS0_10member_sumIddEELi0EEEKNS_14CwiseNullaryOpINS0_18scalar_constant_opIdEEKNS3_IdLi1ELin1ELi1ELi1ELin1EEEEEEEddEEvRT_RKT0_RKNS0_9assign_opIT1_T2_EE, symObjAddr: 0x99AFC, symBinAddr: 0x10009D2EC, symSize: 0xFC }
  - { offsetInCU: 0x1DA34, offset: 0x1DA34, size: 0x8, addend: 0x0, symName: __ZN5Eigen8internalL21first_default_alignedINS_5BlockIKNS_6MatrixIdLin1ELin1ELi0ELin1ELin1EEELin1ELi1ELb1EEEEElRKNS_9DenseBaseIT_EE, symObjAddr: 0x9C340, symBinAddr: 0x10009FB30, symSize: 0x24 }
  - { offsetInCU: 0x1DA6B, offset: 0x1DA6B, size: 0x8, addend: 0x0, symName: __ZN5Eigen8internalL13first_alignedILi16ENS_5BlockIKNS_6MatrixIdLin1ELin1ELi0ELin1ELin1EEELin1ELi1ELb1EEEEElRKNS_9DenseBaseIT0_EE, symObjAddr: 0x9C4DC, symBinAddr: 0x10009FCCC, symSize: 0x28 }
  - { offsetInCU: 0x1DAEA, offset: 0x1DAEA, size: 0x8, addend: 0x0, symName: __ZN5Eigen8internal24call_assignment_no_aliasINS_6MatrixIdLin1ELi1ELi0ELin1ELi1EEENS_13MatrixWrapperIKNS_13CwiseBinaryOpINS0_18scalar_quotient_opIddEEKNS_16PartialReduxExprIKNS_12CwiseUnaryOpINS0_16scalar_square_opIdEEKNS_12ArrayWrapperINS5_INS0_20scalar_difference_opIddEEKNS2_IdLin1ELin1ELi0ELin1ELin1EEEKNS_9ReplicateINS_9TransposeIS3_EELin1ELi1EEEEEEEEENS0_10member_sumIddEELi0EEEKNS_14CwiseNullaryOpINS0_18scalar_constant_opIdEEKNS_5ArrayIdLi1ELin1ELi1ELi1ELin1EEEEEEEEENS0_9assign_opIddEEEEvRT_RKT0_RKT1_, symObjAddr: 0x9E4A0, symBinAddr: 0x1000A1C90, symSize: 0x1E8 }
  - { offsetInCU: 0x1DBBF, offset: 0x1DBBF, size: 0x8, addend: 0x0, symName: __ZN5Eigen8internal18check_for_aliasingINS_9TransposeINS_6MatrixIdLin1ELi1ELi0ELin1ELi1EEEEENS_13MatrixWrapperIKNS_13CwiseBinaryOpINS0_18scalar_quotient_opIddEEKNS_16PartialReduxExprIKNS_12CwiseUnaryOpINS0_16scalar_square_opIdEEKNS_12ArrayWrapperINS7_INS0_20scalar_difference_opIddEEKNS3_IdLin1ELin1ELi0ELin1ELin1EEEKNS_9ReplicateIS5_Lin1ELi1EEEEEEEEENS0_10member_sumIddEELi0EEEKNS_14CwiseNullaryOpINS0_18scalar_constant_opIdEEKNS_5ArrayIdLi1ELin1ELi1ELi1ELin1EEEEEEEEEEEvRKT_RKT0_, symObjAddr: 0x9E6C8, symBinAddr: 0x1000A1EB8, symSize: 0x14 }
  - { offsetInCU: 0x1DC0A, offset: 0x1DC0A, size: 0x8, addend: 0x0, symName: __ZN5Eigen8internal26call_dense_assignment_loopINS_9TransposeINS_6MatrixIdLin1ELi1ELi0ELin1ELi1EEEEENS_13MatrixWrapperIKNS_13CwiseBinaryOpINS0_18scalar_quotient_opIddEEKNS_16PartialReduxExprIKNS_12CwiseUnaryOpINS0_16scalar_square_opIdEEKNS_12ArrayWrapperINS7_INS0_20scalar_difference_opIddEEKNS3_IdLin1ELin1ELi0ELin1ELin1EEEKNS_9ReplicateIS5_Lin1ELi1EEEEEEEEENS0_10member_sumIddEELi0EEEKNS_14CwiseNullaryOpINS0_18scalar_constant_opIdEEKNS_5ArrayIdLi1ELin1ELi1ELi1ELin1EEEEEEEEENS0_9assign_opIddEEEEvRT_RKT0_RKT1_, symObjAddr: 0x9E6DC, symBinAddr: 0x1000A1ECC, symSize: 0x45C }
  - { offsetInCU: 0x1E2D3, offset: 0x1E2D3, size: 0x8, addend: 0x0, symName: __ZN5Eigen8internal17resize_if_allowedINS_9TransposeINS_6MatrixIdLin1ELi1ELi0ELin1ELi1EEEEENS_13MatrixWrapperIKNS_13CwiseBinaryOpINS0_18scalar_quotient_opIddEEKNS_16PartialReduxExprIKNS_12CwiseUnaryOpINS0_16scalar_square_opIdEEKNS_12ArrayWrapperINS7_INS0_20scalar_difference_opIddEEKNS3_IdLin1ELin1ELi0ELin1ELin1EEEKNS_9ReplicateIS5_Lin1ELi1EEEEEEEEENS0_10member_sumIddEELi0EEEKNS_14CwiseNullaryOpINS0_18scalar_constant_opIdEEKNS_5ArrayIdLi1ELin1ELi1ELi1ELin1EEEEEEEEEddEEvRT_RKT0_RKNS0_9assign_opIT1_T2_EE, symObjAddr: 0x9EB6C, symBinAddr: 0x1000A235C, symSize: 0xFC }
  - { offsetInCU: 0x1F10E, offset: 0x1F10E, size: 0x8, addend: 0x0, symName: __ZN5Eigen8internal24call_assignment_no_aliasINS_6MatrixIdLin1ELin1ELi0ELin1ELin1EEENS_13CwiseBinaryOpINS0_18scalar_quotient_opIddEEKNS_12ArrayWrapperINS4_INS0_20scalar_difference_opIddEEKS3_KNS_9ReplicateINS_9TransposeINS2_IdLin1ELi1ELi0ELin1ELi1EEEEELin1ELi1EEEEEEEKNSB_INSC_IKNS_12CwiseUnaryOpINS0_14scalar_sqrt_opIdEEKNS7_ISD_EEEEEELin1ELi1EEEEENS0_9assign_opIddEEEEvRT_RKT0_RKT1_, symObjAddr: 0xA369C, symBinAddr: 0x1000A6E8C, symSize: 0x3C }
  - { offsetInCU: 0x1F1DC, offset: 0x1F1DC, size: 0x8, addend: 0x0, symName: __ZN5Eigen8internal18check_for_aliasingINS_6MatrixIdLin1ELin1ELi0ELin1ELin1EEENS_13CwiseBinaryOpINS0_18scalar_quotient_opIddEEKNS_12ArrayWrapperINS4_INS0_20scalar_difference_opIddEEKS3_KNS_9ReplicateINS_9TransposeINS2_IdLin1ELi1ELi0ELin1ELi1EEEEELin1ELi1EEEEEEEKNSB_INSC_IKNS_12CwiseUnaryOpINS0_14scalar_sqrt_opIdEEKNS7_ISD_EEEEEELin1ELi1EEEEEEEvRKT_RKT0_, symObjAddr: 0xA3718, symBinAddr: 0x1000A6F08, symSize: 0x60 }
  - { offsetInCU: 0x1F227, offset: 0x1F227, size: 0x8, addend: 0x0, symName: __ZN5Eigen8internal26call_dense_assignment_loopINS_6MatrixIdLin1ELin1ELi0ELin1ELin1EEENS_13CwiseBinaryOpINS0_18scalar_quotient_opIddEEKNS_12ArrayWrapperINS4_INS0_20scalar_difference_opIddEEKS3_KNS_9ReplicateINS_9TransposeINS2_IdLin1ELi1ELi0ELin1ELi1EEEEELin1ELi1EEEEEEEKNSB_INSC_IKNS_12CwiseUnaryOpINS0_14scalar_sqrt_opIdEEKNS7_ISD_EEEEEELin1ELi1EEEEENS0_9assign_opIddEEEEvRT_RKT0_RKT1_, symObjAddr: 0xA3778, symBinAddr: 0x1000A6F68, symSize: 0x434 }
  - { offsetInCU: 0x1F6F9, offset: 0x1F6F9, size: 0x8, addend: 0x0, symName: __ZN5Eigen8internal17resize_if_allowedINS_6MatrixIdLin1ELin1ELi0ELin1ELin1EEENS_13CwiseBinaryOpINS0_18scalar_quotient_opIddEEKNS_12ArrayWrapperINS4_INS0_20scalar_difference_opIddEEKS3_KNS_9ReplicateINS_9TransposeINS2_IdLin1ELi1ELi0ELin1ELi1EEEEELin1ELi1EEEEEEEKNSB_INSC_IKNS_12CwiseUnaryOpINS0_14scalar_sqrt_opIdEEKNS7_ISD_EEEEEELin1ELi1EEEEEddEEvRT_RKT0_RKNS0_9assign_opIT1_T2_EE, symObjAddr: 0xA3BF4, symBinAddr: 0x1000A73E4, symSize: 0xFC }
  - { offsetInCU: 0x1F9D1, offset: 0x1F9D1, size: 0x8, addend: 0x0, symName: __ZN5Eigen8internal24call_assignment_no_aliasINS_5ArrayIdLi1ELin1ELi1ELi1ELin1EEENS_9TransposeIKNS_12CwiseUnaryOpINS0_14scalar_sqrt_opIdEEKNS_12ArrayWrapperINS_6MatrixIdLin1ELi1ELi0ELin1ELi1EEEEEEEEENS0_9assign_opIddEEEEvRT_RKT0_RKT1_, symObjAddr: 0xA46F0, symBinAddr: 0x1000A7EE0, symSize: 0x3C }
  - { offsetInCU: 0x1FA9F, offset: 0x1FA9F, size: 0x8, addend: 0x0, symName: __ZN5Eigen8internal18check_for_aliasingINS_5ArrayIdLi1ELin1ELi1ELi1ELin1EEENS_9TransposeIKNS_12CwiseUnaryOpINS0_14scalar_sqrt_opIdEEKNS_12ArrayWrapperINS_6MatrixIdLin1ELi1ELi0ELin1ELi1EEEEEEEEEEEvRKT_RKT0_, symObjAddr: 0xA4780, symBinAddr: 0x1000A7F70, symSize: 0x14 }
  - { offsetInCU: 0x1FAEA, offset: 0x1FAEA, size: 0x8, addend: 0x0, symName: __ZN5Eigen8internal26call_dense_assignment_loopINS_5ArrayIdLi1ELin1ELi1ELi1ELin1EEENS_9TransposeIKNS_12CwiseUnaryOpINS0_14scalar_sqrt_opIdEEKNS_12ArrayWrapperINS_6MatrixIdLin1ELi1ELi0ELin1ELi1EEEEEEEEENS0_9assign_opIddEEEEvRT_RKT0_RKT1_, symObjAddr: 0xA4794, symBinAddr: 0x1000A7F84, symSize: 0x3F4 }
  - { offsetInCU: 0x1FBAD, offset: 0x1FBAD, size: 0x8, addend: 0x0, symName: __ZN5Eigen8internal17resize_if_allowedINS_5ArrayIdLi1ELin1ELi1ELi1ELin1EEENS_9TransposeIKNS_12CwiseUnaryOpINS0_14scalar_sqrt_opIdEEKNS_12ArrayWrapperINS_6MatrixIdLin1ELi1ELi0ELin1ELi1EEEEEEEEEddEEvRT_RKT0_RKNS0_9assign_opIT1_T2_EE, symObjAddr: 0xA4BBC, symBinAddr: 0x1000A83AC, symSize: 0xFC }
  - { offsetInCU: 0x1FC33, offset: 0x1FC33, size: 0x8, addend: 0x0, symName: __ZN5Eigen8internal5psqrtI19__simd128_float64_tEET_RKS3_, symObjAddr: 0xA5E58, symBinAddr: 0x1000A9648, symSize: 0x74 }
  - { offsetInCU: 0x1FCB4, offset: 0x1FCB4, size: 0x8, addend: 0x0, symName: __ZN5Eigen8internal24call_assignment_no_aliasINS_6MatrixIdLin1ELin1ELi0ELin1ELin1EEENS_9ReplicateINS_9TransposeIKNS2_IdLin1ELi1ELi0ELin1ELi1EEEEELin1ELin1EEENS0_9assign_opIddEEEEvRT_RKT0_RKT1_, symObjAddr: 0xA7924, symBinAddr: 0x1000AB114, symSize: 0x3C }
  - { offsetInCU: 0x1FD82, offset: 0x1FD82, size: 0x8, addend: 0x0, symName: __ZN5Eigen8internal18check_for_aliasingINS_6MatrixIdLin1ELin1ELi0ELin1ELin1EEENS_9ReplicateINS_9TransposeIKNS2_IdLin1ELi1ELi0ELin1ELi1EEEEELin1ELin1EEEEEvRKT_RKT0_, symObjAddr: 0xA79A0, symBinAddr: 0x1000AB190, symSize: 0x60 }
  - { offsetInCU: 0x1FDCD, offset: 0x1FDCD, size: 0x8, addend: 0x0, symName: __ZN5Eigen8internal26call_dense_assignment_loopINS_6MatrixIdLin1ELin1ELi0ELin1ELin1EEENS_9ReplicateINS_9TransposeIKNS2_IdLin1ELi1ELi0ELin1ELi1EEEEELin1ELin1EEENS0_9assign_opIddEEEEvRT_RKT0_RKT1_, symObjAddr: 0xA7A00, symBinAddr: 0x1000AB1F0, symSize: 0x400 }
  - { offsetInCU: 0x20041, offset: 0x20041, size: 0x8, addend: 0x0, symName: __ZN5Eigen8internal17resize_if_allowedINS_6MatrixIdLin1ELin1ELi0ELin1ELin1EEENS_9ReplicateINS_9TransposeIKNS2_IdLin1ELi1ELi0ELin1ELi1EEEEELin1ELin1EEEddEEvRT_RKT0_RKNS0_9assign_opIT1_T2_EE, symObjAddr: 0xA7E48, symBinAddr: 0x1000AB638, symSize: 0xFC }
  - { offsetInCU: 0x20319, offset: 0x20319, size: 0x8, addend: 0x0, symName: __ZN5Eigen8internal24call_assignment_no_aliasINS_6MatrixIdLin1ELin1ELi0ELin1ELin1EEENS_13CwiseBinaryOpINS0_13scalar_sum_opIddEEKNS4_INS0_17scalar_product_opIddEEKNS_12ArrayWrapperIS3_EESB_EESB_EENS0_9assign_opIddEEEEvRT_RKT0_RKT1_, symObjAddr: 0xA912C, symBinAddr: 0x1000AC91C, symSize: 0x3C }
  - { offsetInCU: 0x203E7, offset: 0x203E7, size: 0x8, addend: 0x0, symName: __ZN5Eigen8internal18check_for_aliasingINS_6MatrixIdLin1ELin1ELi0ELin1ELin1EEENS_13CwiseBinaryOpINS0_13scalar_sum_opIddEEKNS4_INS0_17scalar_product_opIddEEKNS_12ArrayWrapperIS3_EESB_EESB_EEEEvRKT_RKT0_, symObjAddr: 0xA91A8, symBinAddr: 0x1000AC998, symSize: 0x60 }
  - { offsetInCU: 0x20432, offset: 0x20432, size: 0x8, addend: 0x0, symName: __ZN5Eigen8internal26call_dense_assignment_loopINS_6MatrixIdLin1ELin1ELi0ELin1ELin1EEENS_13CwiseBinaryOpINS0_13scalar_sum_opIddEEKNS4_INS0_17scalar_product_opIddEEKNS_12ArrayWrapperIS3_EESB_EESB_EENS0_9assign_opIddEEEEvRT_RKT0_RKT1_, symObjAddr: 0xA9208, symBinAddr: 0x1000AC9F8, symSize: 0x40C }
  - { offsetInCU: 0x20535, offset: 0x20535, size: 0x8, addend: 0x0, symName: __ZN5Eigen8internal17resize_if_allowedINS_6MatrixIdLin1ELin1ELi0ELin1ELin1EEENS_13CwiseBinaryOpINS0_13scalar_sum_opIddEEKNS4_INS0_17scalar_product_opIddEEKNS_12ArrayWrapperIS3_EESB_EESB_EEddEEvRT_RKT0_RKNS0_9assign_opIT1_T2_EE, symObjAddr: 0xA965C, symBinAddr: 0x1000ACE4C, symSize: 0xFC }
  - { offsetInCU: 0x205E5, offset: 0x205E5, size: 0x8, addend: 0x0, symName: __ZN5Eigen8internal12print_matrixINS_6MatrixIdLin1ELin1ELi0ELin1ELin1EEEEERNSt3__113basic_ostreamIcNS4_11char_traitsIcEEEES9_RKT_RKNS_8IOFormatE, symObjAddr: 0xAB128, symBinAddr: 0x1000AE918, symSize: 0x138C }
  - { offsetInCU: 0x20E0A, offset: 0x20E0A, size: 0x8, addend: 0x0, symName: __ZN5EigenL6lastp1E, symObjAddr: 0x7114A0, symBinAddr: 0x1000F6940, symSize: 0x0 }
  - { offsetInCU: 0x20E23, offset: 0x20E23, size: 0x8, addend: 0x0, symName: __ZN5EigenL3allE, symObjAddr: 0x7114E0, symBinAddr: 0x1000F6980, symSize: 0x0 }
  - { offsetInCU: 0x20E3C, offset: 0x20E3C, size: 0x8, addend: 0x0, symName: __ZN5EigenL3fixILi1EEE, symObjAddr: 0x7114C0, symBinAddr: 0x1000F6960, symSize: 0x0 }
  - { offsetInCU: 0x20E60, offset: 0x20E60, size: 0x8, addend: 0x0, symName: __ZN5EigenL3fixILi0EEE, symObjAddr: 0x711500, symBinAddr: 0x1000F69A0, symSize: 0x0 }
  - { offsetInCU: 0x20E84, offset: 0x20E84, size: 0x8, addend: 0x0, symName: __ZN5EigenL3fixILi2EEE, symObjAddr: 0x711520, symBinAddr: 0x1000F69C0, symSize: 0x0 }
  - { offsetInCU: 0x20EA8, offset: 0x20EA8, size: 0x8, addend: 0x0, symName: __ZN5EigenL3fixILi3EEE, symObjAddr: 0x711540, symBinAddr: 0x1000F69E0, symSize: 0x0 }
  - { offsetInCU: 0xA0362, offset: 0xA0362, size: 0x8, addend: 0x0, symName: __ZN5EigenlsINS_6MatrixIdLin1ELin1ELi0ELin1ELin1EEEEERNSt3__113basic_ostreamIcNS3_11char_traitsIcEEEES8_RKNS_9DenseBaseIT_EE, symObjAddr: 0x89A4, symBinAddr: 0x10000C194, symSize: 0x724 }
  - { offsetInCU: 0xA03DF, offset: 0xA03DF, size: 0x8, addend: 0x0, symName: __ZN5Eigen6numext4swapIPdEEvRT_S4_, symObjAddr: 0x36F98, symBinAddr: 0x10003A788, symSize: 0x2C }
  - { offsetInCU: 0xA0421, offset: 0xA0421, size: 0x8, addend: 0x0, symName: __ZN5Eigen6numext4swapIlEEvRT_S3_, symObjAddr: 0x36FC4, symBinAddr: 0x10003A7B4, symSize: 0x2C }
  - { offsetInCU: 0xA0463, offset: 0xA0463, size: 0x8, addend: 0x0, symName: __ZN5Eigen6numext4realIdEENS_8internal11real_retvalINS2_36global_math_functions_filtering_baseIT_vE4typeEE4typeERKS5_, symObjAddr: 0x5551C, symBinAddr: 0x100058D0C, symSize: 0x24 }
  - { offsetInCU: 0xA04CD, offset: 0xA04CD, size: 0x8, addend: 0x0, symName: __ZN5Eigen6numext8div_ceilIlEET_RKS2_S4_, symObjAddr: 0x5F5BC, symBinAddr: 0x100062DAC, symSize: 0xFC }
  - { offsetInCU: 0xB3D8A, offset: 0xB3D8A, size: 0x8, addend: 0x0, symName: __ZNSt3__124__put_character_sequenceB8ue170006IcNS_11char_traitsIcEEEERNS_13basic_ostreamIT_T0_EES7_PKS4_m, symObjAddr: 0x37368, symBinAddr: 0x10003AB58, symSize: 0x744 }
  - { offsetInCU: 0xB6BD2, offset: 0xB6BD2, size: 0x8, addend: 0x0, symName: __ZNSt3__1lsB8ue170006INS_11char_traitsIcEEEERNS_13basic_ostreamIcT_EES6_PKc, symObjAddr: 0x904, symBinAddr: 0x1000040F4, symSize: 0x48 }
  - { offsetInCU: 0xB6C18, offset: 0xB6C18, size: 0x8, addend: 0x0, symName: __ZNSt3__14endlB8ue170006IcNS_11char_traitsIcEEEERNS_13basic_ostreamIT_T0_EES7_, symObjAddr: 0x978, symBinAddr: 0x100004168, symSize: 0xD4 }
  - { offsetInCU: 0xB6C58, offset: 0xB6C58, size: 0x8, addend: 0x0, symName: __ZNSt3__112__to_addressB8ue170006I23TransformerEncoderLayerEEPT_S3_, symObjAddr: 0xB190, symBinAddr: 0x10000E980, symSize: 0x14 }
  - { offsetInCU: 0xB6C8D, offset: 0xB6C8D, size: 0x8, addend: 0x0, symName: __ZNSt3__13maxB8ue170006ImEERKT_S3_S3_, symObjAddr: 0xD6C8, symBinAddr: 0x100010EB8, symSize: 0x2C }
  - { offsetInCU: 0xB6CD0, offset: 0xB6CD0, size: 0x8, addend: 0x0, symName: __ZNSt3__13minB8ue170006ImEERKT_S3_S3_, symObjAddr: 0xD6F4, symBinAddr: 0x100010EE4, symSize: 0x2C }
  - { offsetInCU: 0xB6F14, offset: 0xB6F14, size: 0x8, addend: 0x0, symName: __ZNSt3__13minB8ue170006ImNS_6__lessIvvEEEERKT_S5_S5_T0_, symObjAddr: 0xD780, symBinAddr: 0x100010F70, symSize: 0x1E8 }
  - { offsetInCU: 0xB701C, offset: 0xB701C, size: 0x8, addend: 0x0, symName: __ZNSt3__120__throw_length_errorB8ue170006EPKc, symObjAddr: 0xDA7C, symBinAddr: 0x10001126C, symSize: 0x68 }
  - { offsetInCU: 0xB7046, offset: 0xB7046, size: 0x8, addend: 0x0, symName: __ZNSt3__13maxB8ue170006ImNS_6__lessIvvEEEERKT_S5_S5_T0_, symObjAddr: 0xDBA4, symBinAddr: 0x100011394, symSize: 0x1E8 }
  - { offsetInCU: 0xB70A6, offset: 0xB70A6, size: 0x8, addend: 0x0, symName: __ZNSt3__119__allocate_at_leastB8ue170006INS_9allocatorI23TransformerEncoderLayerEEEENS_19__allocation_resultINS_16allocator_traitsIT_E7pointerEEERS6_m, symObjAddr: 0xE2F8, symBinAddr: 0x100011AE8, symSize: 0x28C }
  - { offsetInCU: 0xB70EB, offset: 0xB70EB, size: 0x8, addend: 0x0, symName: __ZNSt3__117__libcpp_allocateB8ue170006Emm, symObjAddr: 0xE724, symBinAddr: 0x100011F14, symSize: 0x28 }
  - { offsetInCU: 0xB7128, offset: 0xB7128, size: 0x8, addend: 0x0, symName: __ZNSt3__121__libcpp_operator_newB8ue170006IJmEEEPvDpT_, symObjAddr: 0xE74C, symBinAddr: 0x100011F3C, symSize: 0x24 }
  - { offsetInCU: 0xB7161, offset: 0xB7161, size: 0x8, addend: 0x0, symName: __ZNSt3__142__uninitialized_allocator_move_if_noexceptB8ue170006INS_9allocatorI23TransformerEncoderLayerEENS_16reverse_iteratorIPS2_EES6_S6_EET2_RT_T0_T1_S7_, symObjAddr: 0xE904, symBinAddr: 0x1000120F4, symSize: 0x544 }
  - { offsetInCU: 0xB7216, offset: 0xB7216, size: 0x8, addend: 0x0, symName: __ZNSt3__14swapB8ue170006IP23TransformerEncoderLayerEENS_9enable_ifIXaasr21is_move_constructibleIT_EE5valuesr18is_move_assignableIS4_EE5valueEvE4typeERS4_S7_, symObjAddr: 0xEEE0, symBinAddr: 0x1000126D0, symSize: 0x134 }
  - { offsetInCU: 0xB7267, offset: 0xB7267, size: 0x8, addend: 0x0, symName: __ZNSt3__122__make_exception_guardB8ue170006INS_29_AllocatorDestroyRangeReverseINS_9allocatorI23TransformerEncoderLayerEENS_16reverse_iteratorIPS3_EEEEEENS_28__exception_guard_exceptionsIT_EESA_, symObjAddr: 0xF0F0, symBinAddr: 0x1000128E0, symSize: 0x1F8 }
  - { offsetInCU: 0xB729E, offset: 0xB729E, size: 0x8, addend: 0x0, symName: __ZNSt3__1neB8ue170006IP23TransformerEncoderLayerS2_EEbRKNS_16reverse_iteratorIT_EERKNS3_IT0_EE, symObjAddr: 0xF32C, symBinAddr: 0x100012B1C, symSize: 0x48 }
  - { offsetInCU: 0xB72EA, offset: 0xB72EA, size: 0x8, addend: 0x0, symName: __ZNSt3__112__to_addressB8ue170006INS_16reverse_iteratorIP23TransformerEncoderLayerEEvEEu7__decayIDTclsr19__to_address_helperIT_EE6__callclsr3stdE7declvalIRKS5_EEEEES7_, symObjAddr: 0xF374, symBinAddr: 0x100012B64, symSize: 0x24 }
  - { offsetInCU: 0xB734A, offset: 0xB734A, size: 0x8, addend: 0x0, symName: __ZNSt3__119__allocator_destroyB8ue170006INS_9allocatorI23TransformerEncoderLayerEENS_16reverse_iteratorINS4_IPS2_EEEES7_EEvRT_T0_T1_, symObjAddr: 0xFBD8, symBinAddr: 0x1000133C8, symSize: 0x70 }
  - { offsetInCU: 0xB73AF, offset: 0xB73AF, size: 0x8, addend: 0x0, symName: __ZNSt3__1neB8ue170006INS_16reverse_iteratorIP23TransformerEncoderLayerEES4_EEbRKNS1_IT_EERKNS1_IT0_EE, symObjAddr: 0xFE90, symBinAddr: 0x100013680, symSize: 0x2CC }
  - { offsetInCU: 0xB73FD, offset: 0xB73FD, size: 0x8, addend: 0x0, symName: __ZNSt3__112__to_addressB8ue170006INS_16reverse_iteratorINS1_IP23TransformerEncoderLayerEEEEvEEu7__decayIDTclsr19__to_address_helperIT_EE6__callclsr3stdE7declvalIRKS6_EEEEES8_, symObjAddr: 0x10188, symBinAddr: 0x100013978, symSize: 0x24 }
  - { offsetInCU: 0xB745D, offset: 0xB745D, size: 0x8, addend: 0x0, symName: __ZNSt3__119__libcpp_deallocateB8ue170006EPvmm, symObjAddr: 0x10D98, symBinAddr: 0x100014588, symSize: 0x30 }
  - { offsetInCU: 0xB74A5, offset: 0xB74A5, size: 0x8, addend: 0x0, symName: __ZNSt3__127__do_deallocate_handle_sizeB8ue170006IJEEEvPvmDpT_, symObjAddr: 0x10DC8, symBinAddr: 0x1000145B8, symSize: 0x28 }
  - { offsetInCU: 0xB74E3, offset: 0xB74E3, size: 0x8, addend: 0x0, symName: __ZNSt3__124__libcpp_operator_deleteB8ue170006IJPvEEEvDpT_, symObjAddr: 0x10DF0, symBinAddr: 0x1000145E0, symSize: 0x24 }
  - { offsetInCU: 0xB7518, offset: 0xB7518, size: 0x8, addend: 0x0, symName: __ZNSt3__112__to_addressB8ue170006IN5Eigen6MatrixIdLin1ELin1ELi0ELin1ELin1EEEEEPT_S5_, symObjAddr: 0x13554, symBinAddr: 0x100016D44, symSize: 0x14 }
  - { offsetInCU: 0xB754D, offset: 0xB754D, size: 0x8, addend: 0x0, symName: __ZNSt3__119__allocate_at_leastB8ue170006INS_9allocatorIN5Eigen6MatrixIdLin1ELin1ELi0ELin1ELin1EEEEEEENS_19__allocation_resultINS_16allocator_traitsIT_E7pointerEEERS8_m, symObjAddr: 0x150FC, symBinAddr: 0x1000188EC, symSize: 0x28C }
  - { offsetInCU: 0xB7592, offset: 0xB7592, size: 0x8, addend: 0x0, symName: __ZNSt3__142__uninitialized_allocator_move_if_noexceptB8ue170006INS_9allocatorIN5Eigen6MatrixIdLin1ELin1ELi0ELin1ELin1EEEEENS_16reverse_iteratorIPS4_EES8_S8_EET2_RT_T0_T1_S9_, symObjAddr: 0x15684, symBinAddr: 0x100018E74, symSize: 0x544 }
  - { offsetInCU: 0xB7647, offset: 0xB7647, size: 0x8, addend: 0x0, symName: __ZNSt3__14swapB8ue170006IPN5Eigen6MatrixIdLin1ELin1ELi0ELin1ELin1EEEEENS_9enable_ifIXaasr21is_move_constructibleIT_EE5valuesr18is_move_assignableIS6_EE5valueEvE4typeERS6_S9_, symObjAddr: 0x15C60, symBinAddr: 0x100019450, symSize: 0x134 }
  - { offsetInCU: 0xB7698, offset: 0xB7698, size: 0x8, addend: 0x0, symName: __ZNSt3__122__make_exception_guardB8ue170006INS_29_AllocatorDestroyRangeReverseINS_9allocatorIN5Eigen6MatrixIdLin1ELin1ELi0ELin1ELin1EEEEENS_16reverse_iteratorIPS5_EEEEEENS_28__exception_guard_exceptionsIT_EESC_, symObjAddr: 0x15E70, symBinAddr: 0x100019660, symSize: 0x1F8 }
  - { offsetInCU: 0xB76CF, offset: 0xB76CF, size: 0x8, addend: 0x0, symName: __ZNSt3__1neB8ue170006IPN5Eigen6MatrixIdLin1ELin1ELi0ELin1ELin1EEES4_EEbRKNS_16reverse_iteratorIT_EERKNS5_IT0_EE, symObjAddr: 0x160AC, symBinAddr: 0x10001989C, symSize: 0x48 }
  - { offsetInCU: 0xB771B, offset: 0xB771B, size: 0x8, addend: 0x0, symName: __ZNSt3__112__to_addressB8ue170006INS_16reverse_iteratorIPN5Eigen6MatrixIdLin1ELin1ELi0ELin1ELin1EEEEEvEEu7__decayIDTclsr19__to_address_helperIT_EE6__callclsr3stdE7declvalIRKS7_EEEEES9_, symObjAddr: 0x160F4, symBinAddr: 0x1000198E4, symSize: 0x24 }
  - { offsetInCU: 0xB777B, offset: 0xB777B, size: 0x8, addend: 0x0, symName: __ZNSt3__119__allocator_destroyB8ue170006INS_9allocatorIN5Eigen6MatrixIdLin1ELin1ELi0ELin1ELin1EEEEENS_16reverse_iteratorINS6_IPS4_EEEES9_EEvRT_T0_T1_, symObjAddr: 0x16958, symBinAddr: 0x10001A148, symSize: 0x70 }
  - { offsetInCU: 0xB77E0, offset: 0xB77E0, size: 0x8, addend: 0x0, symName: __ZNSt3__1neB8ue170006INS_16reverse_iteratorIPN5Eigen6MatrixIdLin1ELin1ELi0ELin1ELin1EEEEES6_EEbRKNS1_IT_EERKNS1_IT0_EE, symObjAddr: 0x16C10, symBinAddr: 0x10001A400, symSize: 0x2CC }
  - { offsetInCU: 0xB782E, offset: 0xB782E, size: 0x8, addend: 0x0, symName: __ZNSt3__112__to_addressB8ue170006INS_16reverse_iteratorINS1_IPN5Eigen6MatrixIdLin1ELin1ELi0ELin1ELin1EEEEEEEvEEu7__decayIDTclsr19__to_address_helperIT_EE6__callclsr3stdE7declvalIRKS8_EEEEESA_, symObjAddr: 0x16F08, symBinAddr: 0x10001A6F8, symSize: 0x24 }
  - { offsetInCU: 0xB788E, offset: 0xB788E, size: 0x8, addend: 0x0, symName: __ZNSt3__112__to_addressB8ue170006I23TransformerDecoderLayerEEPT_S3_, symObjAddr: 0x1CCD8, symBinAddr: 0x1000204C8, symSize: 0x14 }
  - { offsetInCU: 0xB78C3, offset: 0xB78C3, size: 0x8, addend: 0x0, symName: __ZNSt3__119__allocate_at_leastB8ue170006INS_9allocatorI23TransformerDecoderLayerEEEENS_19__allocation_resultINS_16allocator_traitsIT_E7pointerEEERS6_m, symObjAddr: 0x1E9EC, symBinAddr: 0x1000221DC, symSize: 0x28C }
  - { offsetInCU: 0xB7908, offset: 0xB7908, size: 0x8, addend: 0x0, symName: __ZNSt3__142__uninitialized_allocator_move_if_noexceptB8ue170006INS_9allocatorI23TransformerDecoderLayerEENS_16reverse_iteratorIPS2_EES6_S6_EET2_RT_T0_T1_S7_, symObjAddr: 0x1EF74, symBinAddr: 0x100022764, symSize: 0x544 }
  - { offsetInCU: 0xB79BD, offset: 0xB79BD, size: 0x8, addend: 0x0, symName: __ZNSt3__14swapB8ue170006IP23TransformerDecoderLayerEENS_9enable_ifIXaasr21is_move_constructibleIT_EE5valuesr18is_move_assignableIS4_EE5valueEvE4typeERS4_S7_, symObjAddr: 0x1F550, symBinAddr: 0x100022D40, symSize: 0x134 }
  - { offsetInCU: 0xB7A0E, offset: 0xB7A0E, size: 0x8, addend: 0x0, symName: __ZNSt3__122__make_exception_guardB8ue170006INS_29_AllocatorDestroyRangeReverseINS_9allocatorI23TransformerDecoderLayerEENS_16reverse_iteratorIPS3_EEEEEENS_28__exception_guard_exceptionsIT_EESA_, symObjAddr: 0x1F760, symBinAddr: 0x100022F50, symSize: 0x1F8 }
  - { offsetInCU: 0xB7A45, offset: 0xB7A45, size: 0x8, addend: 0x0, symName: __ZNSt3__1neB8ue170006IP23TransformerDecoderLayerS2_EEbRKNS_16reverse_iteratorIT_EERKNS3_IT0_EE, symObjAddr: 0x1F99C, symBinAddr: 0x10002318C, symSize: 0x48 }
  - { offsetInCU: 0xB7A91, offset: 0xB7A91, size: 0x8, addend: 0x0, symName: __ZNSt3__112__to_addressB8ue170006INS_16reverse_iteratorIP23TransformerDecoderLayerEEvEEu7__decayIDTclsr19__to_address_helperIT_EE6__callclsr3stdE7declvalIRKS5_EEEEES7_, symObjAddr: 0x1F9E4, symBinAddr: 0x1000231D4, symSize: 0x24 }
  - { offsetInCU: 0xB7AF1, offset: 0xB7AF1, size: 0x8, addend: 0x0, symName: __ZNSt3__119__allocator_destroyB8ue170006INS_9allocatorI23TransformerDecoderLayerEENS_16reverse_iteratorINS4_IPS2_EEEES7_EEvRT_T0_T1_, symObjAddr: 0x20248, symBinAddr: 0x100023A38, symSize: 0x70 }
  - { offsetInCU: 0xB7B56, offset: 0xB7B56, size: 0x8, addend: 0x0, symName: __ZNSt3__1neB8ue170006INS_16reverse_iteratorIP23TransformerDecoderLayerEES4_EEbRKNS1_IT_EERKNS1_IT0_EE, symObjAddr: 0x20500, symBinAddr: 0x100023CF0, symSize: 0x2CC }
  - { offsetInCU: 0xB7BA4, offset: 0xB7BA4, size: 0x8, addend: 0x0, symName: __ZNSt3__112__to_addressB8ue170006INS_16reverse_iteratorINS1_IP23TransformerDecoderLayerEEEEvEEu7__decayIDTclsr19__to_address_helperIT_EE6__callclsr3stdE7declvalIRKS6_EEEEES8_, symObjAddr: 0x207F8, symBinAddr: 0x100023FE8, symSize: 0x24 }
  - { offsetInCU: 0xB7C04, offset: 0xB7C04, size: 0x8, addend: 0x0, symName: __ZNSt3__111make_uniqueB8ue170006IN18MultiHeadAttention10ThreadDataEJRiPKN5Eigen6MatrixIdLin1ELin1ELi0ELin1ELin1EEES8_S8_PS6_S9_S9_S3_S9_EEENS_11__unique_ifIT_E15__unique_singleEDpOT0_, symObjAddr: 0x252C8, symBinAddr: 0x100028AB8, symSize: 0x36C }
  - { offsetInCU: 0xB7CEA, offset: 0xB7CEA, size: 0x8, addend: 0x0, symName: __ZNSt3__122__make_exception_guardB8ue170006INS_6vectorIN5Eigen6MatrixIdLin1ELin1ELi0ELin1ELin1EEENS_9allocatorIS4_EEE16__destroy_vectorEEENS_28__exception_guard_exceptionsIT_EESA_, symObjAddr: 0x27524, symBinAddr: 0x10002AD14, symSize: 0x278 }
  - { offsetInCU: 0xB7D23, offset: 0xB7D23, size: 0x8, addend: 0x0, symName: __ZNSt3__122__make_exception_guardB8ue170006INS_6vectorIP17_opaque_pthread_tNS_9allocatorIS3_EEE16__destroy_vectorEEENS_28__exception_guard_exceptionsIT_EES9_, symObjAddr: 0x28AC4, symBinAddr: 0x10002C2B4, symSize: 0x278 }
  - { offsetInCU: 0xB7D5C, offset: 0xB7D5C, size: 0x8, addend: 0x0, symName: __ZNSt3__119__allocate_at_leastB8ue170006INS_9allocatorIP17_opaque_pthread_tEEEENS_19__allocation_resultINS_16allocator_traitsIT_E7pointerEEERS7_m, symObjAddr: 0x29F64, symBinAddr: 0x10002D754, symSize: 0x28C }
  - { offsetInCU: 0xB7DA1, offset: 0xB7DA1, size: 0x8, addend: 0x0, symName: __ZNSt3__112__to_addressB8ue170006IP17_opaque_pthread_tEEPT_S4_, symObjAddr: 0x2A5DC, symBinAddr: 0x10002DDCC, symSize: 0x14 }
  - { offsetInCU: 0xB7DD6, offset: 0xB7DD6, size: 0x8, addend: 0x0, symName: __ZNSt3__112__to_addressB8ue170006INS_10unique_ptrIN18MultiHeadAttention10ThreadDataENS_14default_deleteIS3_EEEEEEPT_S8_, symObjAddr: 0x2C020, symBinAddr: 0x10002F810, symSize: 0x14 }
  - { offsetInCU: 0xB7E0B, offset: 0xB7E0B, size: 0x8, addend: 0x0, symName: __ZNSt3__119__allocate_at_leastB8ue170006INS_9allocatorINS_10unique_ptrIN18MultiHeadAttention10ThreadDataENS_14default_deleteIS4_EEEEEEEENS_19__allocation_resultINS_16allocator_traitsIT_E7pointerEEERSB_m, symObjAddr: 0x2E0BC, symBinAddr: 0x1000318AC, symSize: 0x28C }
  - { offsetInCU: 0xB7E50, offset: 0xB7E50, size: 0x8, addend: 0x0, symName: __ZNSt3__142__uninitialized_allocator_move_if_noexceptB8ue170006INS_9allocatorINS_10unique_ptrIN18MultiHeadAttention10ThreadDataENS_14default_deleteIS4_EEEEEENS_16reverse_iteratorIPS7_EESB_SB_EET2_RT_T0_T1_SC_, symObjAddr: 0x2E624, symBinAddr: 0x100031E14, symSize: 0x544 }
  - { offsetInCU: 0xB7F05, offset: 0xB7F05, size: 0x8, addend: 0x0, symName: __ZNSt3__14swapB8ue170006IPNS_10unique_ptrIN18MultiHeadAttention10ThreadDataENS_14default_deleteIS3_EEEEEENS_9enable_ifIXaasr21is_move_constructibleIT_EE5valuesr18is_move_assignableIS9_EE5valueEvE4typeERS9_SC_, symObjAddr: 0x2EC00, symBinAddr: 0x1000323F0, symSize: 0x134 }
  - { offsetInCU: 0xB7F56, offset: 0xB7F56, size: 0x8, addend: 0x0, symName: __ZNSt3__122__make_exception_guardB8ue170006INS_29_AllocatorDestroyRangeReverseINS_9allocatorINS_10unique_ptrIN18MultiHeadAttention10ThreadDataENS_14default_deleteIS5_EEEEEENS_16reverse_iteratorIPS8_EEEEEENS_28__exception_guard_exceptionsIT_EESF_, symObjAddr: 0x2EDF4, symBinAddr: 0x1000325E4, symSize: 0x1F8 }
  - { offsetInCU: 0xB7F8D, offset: 0xB7F8D, size: 0x8, addend: 0x0, symName: __ZNSt3__1neB8ue170006IPNS_10unique_ptrIN18MultiHeadAttention10ThreadDataENS_14default_deleteIS3_EEEES7_EEbRKNS_16reverse_iteratorIT_EERKNS8_IT0_EE, symObjAddr: 0x2F030, symBinAddr: 0x100032820, symSize: 0x48 }
  - { offsetInCU: 0xB7FD9, offset: 0xB7FD9, size: 0x8, addend: 0x0, symName: __ZNSt3__112__to_addressB8ue170006INS_16reverse_iteratorIPNS_10unique_ptrIN18MultiHeadAttention10ThreadDataENS_14default_deleteIS4_EEEEEEvEEu7__decayIDTclsr19__to_address_helperIT_EE6__callclsr3stdE7declvalIRKSA_EEEEESC_, symObjAddr: 0x2F078, symBinAddr: 0x100032868, symSize: 0x24 }
  - { offsetInCU: 0xB8039, offset: 0xB8039, size: 0x8, addend: 0x0, symName: __ZNSt3__119__allocator_destroyB8ue170006INS_9allocatorINS_10unique_ptrIN18MultiHeadAttention10ThreadDataENS_14default_deleteIS4_EEEEEENS_16reverse_iteratorINS9_IPS7_EEEESC_EEvRT_T0_T1_, symObjAddr: 0x2F8DC, symBinAddr: 0x1000330CC, symSize: 0x70 }
  - { offsetInCU: 0xB809E, offset: 0xB809E, size: 0x8, addend: 0x0, symName: __ZNSt3__1neB8ue170006INS_16reverse_iteratorIPNS_10unique_ptrIN18MultiHeadAttention10ThreadDataENS_14default_deleteIS4_EEEEEES9_EEbRKNS1_IT_EERKNS1_IT0_EE, symObjAddr: 0x2FB94, symBinAddr: 0x100033384, symSize: 0x2CC }
  - { offsetInCU: 0xB80EC, offset: 0xB80EC, size: 0x8, addend: 0x0, symName: __ZNSt3__112__to_addressB8ue170006INS_16reverse_iteratorINS1_IPNS_10unique_ptrIN18MultiHeadAttention10ThreadDataENS_14default_deleteIS4_EEEEEEEEvEEu7__decayIDTclsr19__to_address_helperIT_EE6__callclsr3stdE7declvalIRKSB_EEEEESD_, symObjAddr: 0x2FE8C, symBinAddr: 0x10003367C, symSize: 0x24 }
  - { offsetInCU: 0xB814C, offset: 0xB814C, size: 0x8, addend: 0x0, symName: __ZNSt3__13minB8ue170006IlEERKT_S3_S3_, symObjAddr: 0x34234, symBinAddr: 0x100037A24, symSize: 0x2C }
  - { offsetInCU: 0xB818F, offset: 0xB818F, size: 0x8, addend: 0x0, symName: __ZNSt3__13minB8ue170006IlNS_6__lessIvvEEEERKT_S5_S5_T0_, symObjAddr: 0x34260, symBinAddr: 0x100037A50, symSize: 0x1E8 }
  - { offsetInCU: 0xB81EF, offset: 0xB81EF, size: 0x8, addend: 0x0, symName: __ZNSt3__14swapB8ue170006IPdEENS_9enable_ifIXaasr21is_move_constructibleIT_EE5valuesr18is_move_assignableIS3_EE5valueEvE4typeERS3_S6_, symObjAddr: 0x36FF0, symBinAddr: 0x10003A7E0, symSize: 0x134 }
  - { offsetInCU: 0xB8240, offset: 0xB8240, size: 0x8, addend: 0x0, symName: __ZNSt3__14swapB8ue170006IlEENS_9enable_ifIXaasr21is_move_constructibleIT_EE5valuesr18is_move_assignableIS2_EE5valueEvE4typeERS2_S5_, symObjAddr: 0x37124, symBinAddr: 0x10003A914, symSize: 0x134 }
  - { offsetInCU: 0xB8291, offset: 0xB8291, size: 0x8, addend: 0x0, symName: __ZNSt3__116__pad_and_outputB8ue170006IcNS_11char_traitsIcEEEENS_19ostreambuf_iteratorIT_T0_EES6_PKS4_S8_S8_RNS_8ios_baseES4_, symObjAddr: 0x37B74, symBinAddr: 0x10003B364, symSize: 0x760 }
  - { offsetInCU: 0xB836E, offset: 0xB836E, size: 0x8, addend: 0x0, symName: __ZNSt3__112__to_addressB8ue170006IKcEEPT_S3_, symObjAddr: 0x38B08, symBinAddr: 0x10003C2F8, symSize: 0x14 }
  - { offsetInCU: 0xB83D6, offset: 0xB83D6, size: 0x8, addend: 0x0, symName: __ZNSt3__19use_facetB8ue170006INS_5ctypeIcEEEERKT_RKNS_6localeE, symObjAddr: 0x3915C, symBinAddr: 0x10003C94C, symSize: 0x2C }
  - { offsetInCU: 0xB88AC, offset: 0xB88AC, size: 0x8, addend: 0x0, symName: __ZNSt3__118__constexpr_strlenB8ue170006EPKc, symObjAddr: 0x392E0, symBinAddr: 0x10003CAD0, symSize: 0x24 }
  - { offsetInCU: 0xB88D8, offset: 0xB88D8, size: 0x8, addend: 0x0, symName: __ZNSt3__122__make_exception_guardB8ue170006INS_6vectorIfNS_9allocatorIfEEE16__destroy_vectorEEENS_28__exception_guard_exceptionsIT_EES7_, symObjAddr: 0x397D0, symBinAddr: 0x10003CFC0, symSize: 0x278 }
  - { offsetInCU: 0xB8911, offset: 0xB8911, size: 0x8, addend: 0x0, symName: __ZNSt3__119__allocate_at_leastB8ue170006INS_9allocatorIfEEEENS_19__allocation_resultINS_16allocator_traitsIT_E7pointerEEERS5_m, symObjAddr: 0x3AC70, symBinAddr: 0x10003E460, symSize: 0x28C }
  - { offsetInCU: 0xB8956, offset: 0xB8956, size: 0x8, addend: 0x0, symName: __ZNSt3__112__to_addressB8ue170006IfEEPT_S2_, symObjAddr: 0x3B2E8, symBinAddr: 0x10003EAD8, symSize: 0x14 }
  - { offsetInCU: 0xB898B, offset: 0xB898B, size: 0x8, addend: 0x0, symName: __ZNSt3__122__make_exception_guardB8ue170006INS_6vectorINS1_IfNS_9allocatorIfEEEENS2_IS4_EEE16__destroy_vectorEEENS_28__exception_guard_exceptionsIT_EES9_, symObjAddr: 0x3C7C8, symBinAddr: 0x10003FFB8, symSize: 0x278 }
  - { offsetInCU: 0xB89C4, offset: 0xB89C4, size: 0x8, addend: 0x0, symName: __ZNSt3__119__allocate_at_leastB8ue170006INS_9allocatorINS_6vectorIfNS1_IfEEEEEEEENS_19__allocation_resultINS_16allocator_traitsIT_E7pointerEEERS8_m, symObjAddr: 0x3DC78, symBinAddr: 0x100041468, symSize: 0x28C }
  - { offsetInCU: 0xB8A09, offset: 0xB8A09, size: 0x8, addend: 0x0, symName: __ZNSt3__112__to_addressB8ue170006INS_6vectorIfNS_9allocatorIfEEEEEEPT_S6_, symObjAddr: 0x3E314, symBinAddr: 0x100041B04, symSize: 0x14 }
  - { offsetInCU: 0xB8A3E, offset: 0xB8A3E, size: 0x8, addend: 0x0, symName: __ZNSt3__130__uninitialized_allocator_copyB8ue170006INS_9allocatorIfEEPfS3_S3_EET2_RT_T0_T1_S4_, symObjAddr: 0x3F314, symBinAddr: 0x100042B04, symSize: 0x2DC }
  - { offsetInCU: 0xB8AE4, offset: 0xB8AE4, size: 0x8, addend: 0x0, symName: __ZNSt3__114__unwrap_rangeB8ue170006IPfS1_EENS_4pairIT0_S3_EET_S5_, symObjAddr: 0x3F5F0, symBinAddr: 0x100042DE0, symSize: 0x350 }
  - { offsetInCU: 0xB8B32, offset: 0xB8B32, size: 0x8, addend: 0x0, symName: __ZNSt3__135__uninitialized_allocator_copy_implB8ue170006INS_9allocatorIfEEfffLPv0EEEPT2_RT_PT0_S9_S5_, symObjAddr: 0x3F940, symBinAddr: 0x100043130, symSize: 0x38 }
  - { offsetInCU: 0xB8BB3, offset: 0xB8BB3, size: 0x8, addend: 0x0, symName: __ZNSt3__113__unwrap_iterB8ue170006IPfNS_18__unwrap_iter_implIS1_Lb1EEELi0EEEDTclsrT0_8__unwrapclsr3stdE7declvalIT_EEEES5_, symObjAddr: 0x3F978, symBinAddr: 0x100043168, symSize: 0x24 }
  - { offsetInCU: 0xB8BF7, offset: 0xB8BF7, size: 0x8, addend: 0x0, symName: __ZNSt3__113__rewrap_iterB8ue170006IPfS1_NS_18__unwrap_iter_implIS1_Lb1EEEEET_S4_T0_, symObjAddr: 0x3F99C, symBinAddr: 0x10004318C, symSize: 0x48 }
  - { offsetInCU: 0xB8C4C, offset: 0xB8C4C, size: 0x8, addend: 0x0, symName: __ZNSt3__19make_pairB8ue170006IPfS1_EENS_4pairINS_18__unwrap_ref_decayIT_E4typeENS3_IT0_E4typeEEEOS4_OS7_, symObjAddr: 0x3F9E4, symBinAddr: 0x1000431D4, symSize: 0x20C }
  - { offsetInCU: 0xB8DA0, offset: 0xB8DA0, size: 0x8, addend: 0x0, symName: __ZNSt3__14copyB8ue170006IPfS1_EET0_T_S3_S2_, symObjAddr: 0x3FD64, symBinAddr: 0x100043554, symSize: 0x26C }
  - { offsetInCU: 0xB8DFD, offset: 0xB8DFD, size: 0x8, addend: 0x0, symName: __ZNSt3__16__copyB8ue170006INS_17_ClassicAlgPolicyEPfS2_S2_EENS_4pairIT0_T2_EES4_T1_S5_, symObjAddr: 0x3FFD0, symBinAddr: 0x1000437C0, symSize: 0x22C }
  - { offsetInCU: 0xB8E6C, offset: 0xB8E6C, size: 0x8, addend: 0x0, symName: __ZNSt3__123__dispatch_copy_or_moveB8ue170006INS_17_ClassicAlgPolicyENS_11__copy_loopIS1_EENS_14__copy_trivialEPfS5_S5_EENS_4pairIT2_T4_EES7_T3_S8_, symObjAddr: 0x401FC, symBinAddr: 0x1000439EC, symSize: 0x22C }
  - { offsetInCU: 0xB8EED, offset: 0xB8EED, size: 0x8, addend: 0x0, symName: __ZNSt3__121__unwrap_and_dispatchB8ue170006INS_10__overloadINS_11__copy_loopINS_17_ClassicAlgPolicyEEENS_14__copy_trivialEEEPfS7_S7_Li0EEENS_4pairIT0_T2_EES9_T1_SA_, symObjAddr: 0x40428, symBinAddr: 0x100043C18, symSize: 0x5A4 }
  - { offsetInCU: 0xB8FCC, offset: 0xB8FCC, size: 0x8, addend: 0x0, symName: __ZNSt3__114__rewrap_rangeB8ue170006IPfS1_EET_S2_T0_, symObjAddr: 0x40BFC, symBinAddr: 0x1000443EC, symSize: 0x2C }
  - { offsetInCU: 0xB9018, offset: 0xB9018, size: 0x8, addend: 0x0, symName: __ZNSt3__119__copy_trivial_implB8ue170006IffEENS_4pairIPT_PT0_EES3_S3_S5_, symObjAddr: 0x40C28, symBinAddr: 0x100044418, symSize: 0x3B4 }
  - { offsetInCU: 0xB9087, offset: 0xB9087, size: 0x8, addend: 0x0, symName: __ZNSt3__119__constexpr_memmoveB8ue170006IffLi0EEEPT_S2_PT0_NS_15__element_countE, symObjAddr: 0x40FDC, symBinAddr: 0x1000447CC, symSize: 0x64 }
  - { offsetInCU: 0xB90F5, offset: 0xB90F5, size: 0x8, addend: 0x0, symName: __ZNSt3__19make_pairB8ue170006IRPfS1_EENS_4pairINS_18__unwrap_ref_decayIT_E4typeENS4_IT0_E4typeEEEOS5_OS8_, symObjAddr: 0x41040, symBinAddr: 0x100044830, symSize: 0x20C }
  - { offsetInCU: 0xB9199, offset: 0xB9199, size: 0x8, addend: 0x0, symName: __ZNSt3__16fill_nB8ue170006IPdldEET_S2_T0_RKT1_, symObjAddr: 0x4C0A4, symBinAddr: 0x10004F894, symSize: 0x44 }
  - { offsetInCU: 0xB91FC, offset: 0xB91FC, size: 0x8, addend: 0x0, symName: __ZNSt3__18__fill_nB8ue170006IPdldEET_S2_T0_RKT1_, symObjAddr: 0x4C1AC, symBinAddr: 0x10004F99C, symSize: 0xF0 }
  - { offsetInCU: 0xB925F, offset: 0xB925F, size: 0x8, addend: 0x0, symName: __ZNSt3__121__convert_to_integralB8ue170006El, symObjAddr: 0x4C29C, symBinAddr: 0x10004FA8C, symSize: 0x14 }
  - { offsetInCU: 0xB928B, offset: 0xB928B, size: 0x8, addend: 0x0, symName: __ZNSt3__13maxB8ue170006IlEERKT_S3_S3_, symObjAddr: 0x5FD84, symBinAddr: 0x100063574, symSize: 0x2C }
  - { offsetInCU: 0xB92CE, offset: 0xB92CE, size: 0x8, addend: 0x0, symName: __ZNSt3__13maxB8ue170006IlNS_6__lessIvvEEEERKT_S5_S5_T0_, symObjAddr: 0x5FDB0, symBinAddr: 0x1000635A0, symSize: 0x1E8 }
  - { offsetInCU: 0xB932E, offset: 0xB932E, size: 0x8, addend: 0x0, symName: __ZNSt3__13maxB8ue170006IdEERKT_S3_S3_, symObjAddr: 0x97DC4, symBinAddr: 0x10009B5B4, symSize: 0x2C }
  - { offsetInCU: 0xB9371, offset: 0xB9371, size: 0x8, addend: 0x0, symName: __ZNSt3__13maxB8ue170006IdNS_6__lessIvvEEEERKT_S5_S5_T0_, symObjAddr: 0x97DF0, symBinAddr: 0x10009B5E0, symSize: 0x1E8 }
  - { offsetInCU: 0xB93D1, offset: 0xB93D1, size: 0x8, addend: 0x0, symName: __ZNSt3__1lsB8ue170006IcNS_11char_traitsIcEENS_9allocatorIcEEEERNS_13basic_ostreamIT_T0_EES9_RKNS_12basic_stringIS6_S7_T1_EE, symObjAddr: 0xAC5C0, symBinAddr: 0x1000AFDB0, symSize: 0x4C }
  - { offsetInCU: 0xBA4BB, offset: 0xBA4BB, size: 0x8, addend: 0x0, symName: __ZSt28__throw_bad_array_new_lengthB8ue170006v, symObjAddr: 0xE6EC, symBinAddr: 0x100011EDC, symSize: 0x38 }
  - { offsetInCU: 0xBA515, offset: 0xBA515, size: 0x8, addend: 0x0, symName: _.str, symObjAddr: 0xB0D60, symBinAddr: 0x1000B88A0, symSize: 0x0 }
  - { offsetInCU: 0xBA549, offset: 0xBA549, size: 0x8, addend: 0x0, symName: _.str.3, symObjAddr: 0xB0DA0, symBinAddr: 0x1000B88E0, symSize: 0x0 }
  - { offsetInCU: 0xBA569, offset: 0xBA569, size: 0x8, addend: 0x0, symName: _.str.4, symObjAddr: 0xB0DE0, symBinAddr: 0x1000B8920, symSize: 0x0 }
  - { offsetInCU: 0xBA589, offset: 0xBA589, size: 0x8, addend: 0x0, symName: _.str.5, symObjAddr: 0xB0E40, symBinAddr: 0x1000B8980, symSize: 0x0 }
  - { offsetInCU: 0xBA5A9, offset: 0xBA5A9, size: 0x8, addend: 0x0, symName: _.str.6, symObjAddr: 0xB0E60, symBinAddr: 0x1000B89A0, symSize: 0x0 }
  - { offsetInCU: 0xBA5C9, offset: 0xBA5C9, size: 0x8, addend: 0x0, symName: _.str.7, symObjAddr: 0xB0E80, symBinAddr: 0x1000B89C0, symSize: 0x0 }
  - { offsetInCU: 0xBA5DB, offset: 0xBA5DB, size: 0x8, addend: 0x0, symName: _.str.8, symObjAddr: 0xB0EA0, symBinAddr: 0x1000B89E0, symSize: 0x0 }
  - { offsetInCU: 0xBA5ED, offset: 0xBA5ED, size: 0x8, addend: 0x0, symName: _.str.9, symObjAddr: 0xB0EC0, symBinAddr: 0x1000B8A00, symSize: 0x0 }
  - { offsetInCU: 0xBA60D, offset: 0xBA60D, size: 0x8, addend: 0x0, symName: _.str.10, symObjAddr: 0xB0F00, symBinAddr: 0x1000B8A40, symSize: 0x0 }
  - { offsetInCU: 0xBA62D, offset: 0xBA62D, size: 0x8, addend: 0x0, symName: _.str.11, symObjAddr: 0xB0F40, symBinAddr: 0x1000B8A80, symSize: 0x0 }
  - { offsetInCU: 0xBA63F, offset: 0xBA63F, size: 0x8, addend: 0x0, symName: _.str.12, symObjAddr: 0xB0F80, symBinAddr: 0x1000B8AC0, symSize: 0x0 }
  - { offsetInCU: 0xBA651, offset: 0xBA651, size: 0x8, addend: 0x0, symName: _.str.13, symObjAddr: 0xB0FC0, symBinAddr: 0x1000B8B00, symSize: 0x0 }
  - { offsetInCU: 0xBA663, offset: 0xBA663, size: 0x8, addend: 0x0, symName: _.str.14, symObjAddr: 0xB1000, symBinAddr: 0x1000B8B40, symSize: 0x0 }
  - { offsetInCU: 0xBA683, offset: 0xBA683, size: 0x8, addend: 0x0, symName: _.str.15, symObjAddr: 0xB1060, symBinAddr: 0x1000B8BA0, symSize: 0x0 }
  - { offsetInCU: 0xBA6A3, offset: 0xBA6A3, size: 0x8, addend: 0x0, symName: _.str.16, symObjAddr: 0xB10A0, symBinAddr: 0x1000B8BE0, symSize: 0x0 }
  - { offsetInCU: 0xBA6C3, offset: 0xBA6C3, size: 0x8, addend: 0x0, symName: ___func__._Z12feed_forwardRKN5Eigen6MatrixIdLin1ELin1ELi0ELin1ELin1EEES3_S3_RKNS0_IdLin1ELi1ELi0ELin1ELi1EEES6_, symObjAddr: 0xB1100, symBinAddr: 0x1000B8C40, symSize: 0x0 }
  - { offsetInCU: 0xBA6E3, offset: 0xBA6E3, size: 0x8, addend: 0x0, symName: _.str.17, symObjAddr: 0xB1120, symBinAddr: 0x1000B8C60, symSize: 0x0 }
  - { offsetInCU: 0xBA703, offset: 0xBA703, size: 0x8, addend: 0x0, symName: _.str.18, symObjAddr: 0xB1140, symBinAddr: 0x1000B8C80, symSize: 0x0 }
  - { offsetInCU: 0xBA723, offset: 0xBA723, size: 0x8, addend: 0x0, symName: _.str.19, symObjAddr: 0xB11A0, symBinAddr: 0x1000B8CE0, symSize: 0x0 }
  - { offsetInCU: 0xBA743, offset: 0xBA743, size: 0x8, addend: 0x0, symName: _.str.20, symObjAddr: 0xB11E0, symBinAddr: 0x1000B8D20, symSize: 0x0 }
  - { offsetInCU: 0xBA763, offset: 0xBA763, size: 0x8, addend: 0x0, symName: _.str.21, symObjAddr: 0xB1240, symBinAddr: 0x1000B8D80, symSize: 0x0 }
  - { offsetInCU: 0xBA775, offset: 0xBA775, size: 0x8, addend: 0x0, symName: _.str.22, symObjAddr: 0xB1280, symBinAddr: 0x1000B8DC0, symSize: 0x0 }
  - { offsetInCU: 0xBA787, offset: 0xBA787, size: 0x8, addend: 0x0, symName: _.str.23, symObjAddr: 0xB12E0, symBinAddr: 0x1000B8E20, symSize: 0x0 }
  - { offsetInCU: 0xBA7A7, offset: 0xBA7A7, size: 0x8, addend: 0x0, symName: _.str.24, symObjAddr: 0xB1320, symBinAddr: 0x1000B8E60, symSize: 0x0 }
  - { offsetInCU: 0xBA7B9, offset: 0xBA7B9, size: 0x8, addend: 0x0, symName: _.str.25, symObjAddr: 0xB1360, symBinAddr: 0x1000B8EA0, symSize: 0x0 }
  - { offsetInCU: 0xBA7D9, offset: 0xBA7D9, size: 0x8, addend: 0x0, symName: _.str.26, symObjAddr: 0xB13A0, symBinAddr: 0x1000B8EE0, symSize: 0x0 }
  - { offsetInCU: 0xBA7EB, offset: 0xBA7EB, size: 0x8, addend: 0x0, symName: _.str.27, symObjAddr: 0xB13E0, symBinAddr: 0x1000B8F20, symSize: 0x0 }
  - { offsetInCU: 0xBA80B, offset: 0xBA80B, size: 0x8, addend: 0x0, symName: _.str.28, symObjAddr: 0xB1420, symBinAddr: 0x1000B8F60, symSize: 0x0 }
  - { offsetInCU: 0xBA82B, offset: 0xBA82B, size: 0x8, addend: 0x0, symName: ___func__._Z10layer_normRKN5Eigen6MatrixIdLin1ELin1ELi0ELin1ELin1EEERKNS0_IdLin1ELi1ELi0ELin1ELi1EEES6_, symObjAddr: 0xB1480, symBinAddr: 0x1000B8FC0, symSize: 0x0 }
  - { offsetInCU: 0xBA84B, offset: 0xBA84B, size: 0x8, addend: 0x0, symName: _.str.29, symObjAddr: 0xB14A0, symBinAddr: 0x1000B8FE0, symSize: 0x0 }
  - { offsetInCU: 0xBA86B, offset: 0xBA86B, size: 0x8, addend: 0x0, symName: _.str.30, symObjAddr: 0xB1520, symBinAddr: 0x1000B9060, symSize: 0x0 }
  - { offsetInCU: 0xBA88B, offset: 0xBA88B, size: 0x8, addend: 0x0, symName: _.str.31, symObjAddr: 0xB1580, symBinAddr: 0x1000B90C0, symSize: 0x0 }
  - { offsetInCU: 0xBA8AB, offset: 0xBA8AB, size: 0x8, addend: 0x0, symName: _.str.32, symObjAddr: 0xB1600, symBinAddr: 0x1000B9140, symSize: 0x0 }
  - { offsetInCU: 0xBA8BD, offset: 0xBA8BD, size: 0x8, addend: 0x0, symName: _.str.33, symObjAddr: 0xB1640, symBinAddr: 0x1000B9180, symSize: 0x0 }
  - { offsetInCU: 0xBA8CF, offset: 0xBA8CF, size: 0x8, addend: 0x0, symName: _.str.34, symObjAddr: 0xB1680, symBinAddr: 0x1000B91C0, symSize: 0x0 }
  - { offsetInCU: 0xBA8E1, offset: 0xBA8E1, size: 0x8, addend: 0x0, symName: _.str.35, symObjAddr: 0xB16C0, symBinAddr: 0x1000B9200, symSize: 0x0 }
  - { offsetInCU: 0xBA8F4, offset: 0xBA8F4, size: 0x8, addend: 0x0, symName: _.str.36, symObjAddr: 0xB1700, symBinAddr: 0x1000B9240, symSize: 0x0 }
  - { offsetInCU: 0xBA948, offset: 0xBA948, size: 0x8, addend: 0x0, symName: _.str.41, symObjAddr: 0xB1740, symBinAddr: 0x1000B9280, symSize: 0x0 }
  - { offsetInCU: 0xBA968, offset: 0xBA968, size: 0x8, addend: 0x0, symName: _.str.42, symObjAddr: 0xB1760, symBinAddr: 0x1000B92A0, symSize: 0x0 }
  - { offsetInCU: 0xBA988, offset: 0xBA988, size: 0x8, addend: 0x0, symName: _.str.43, symObjAddr: 0xB17C0, symBinAddr: 0x1000B9300, symSize: 0x0 }
  - { offsetInCU: 0xBA9A9, offset: 0xBA9A9, size: 0x8, addend: 0x0, symName: _.str.44, symObjAddr: 0xB1820, symBinAddr: 0x1000B9360, symSize: 0x0 }
  - { offsetInCU: 0xBA9CA, offset: 0xBA9CA, size: 0x8, addend: 0x0, symName: ___func__._ZN5Eigen15PlainObjectBaseINS_6MatrixIdLin1ELin1ELi0ELin1ELin1EEEE6resizeEll, symObjAddr: 0xB1880, symBinAddr: 0x1000B93C0, symSize: 0x0 }
  - { offsetInCU: 0xBA9DD, offset: 0xBA9DD, size: 0x8, addend: 0x0, symName: _.str.45, symObjAddr: 0xB18A0, symBinAddr: 0x1000B93E0, symSize: 0x0 }
  - { offsetInCU: 0xBA9F0, offset: 0xBA9F0, size: 0x8, addend: 0x0, symName: _.str.46, symObjAddr: 0xB18E0, symBinAddr: 0x1000B9420, symSize: 0x0 }
  - { offsetInCU: 0xBAA11, offset: 0xBAA11, size: 0x8, addend: 0x0, symName: _.str.47, symObjAddr: 0xB1AE0, symBinAddr: 0x1000B9620, symSize: 0x0 }
  - { offsetInCU: 0xBAA31, offset: 0xBAA31, size: 0x8, addend: 0x0, symName: ___func__._ZN5Eigen8internal14aligned_mallocEm, symObjAddr: 0xB1BA0, symBinAddr: 0x1000B96E0, symSize: 0x0 }
  - { offsetInCU: 0xBAA43, offset: 0xBAA43, size: 0x8, addend: 0x0, symName: _.str.48, symObjAddr: 0xB1BC0, symBinAddr: 0x1000B9700, symSize: 0x0 }
  - { offsetInCU: 0xBAA63, offset: 0xBAA63, size: 0x8, addend: 0x0, symName: _.str.49, symObjAddr: 0xB1BE0, symBinAddr: 0x1000B9720, symSize: 0x0 }
  - { offsetInCU: 0xBAA84, offset: 0xBAA84, size: 0x8, addend: 0x0, symName: ___func__._ZN5Eigen8internal17resize_if_allowedINS_6MatrixIdLin1ELin1ELi0ELin1ELin1EEENS_14CwiseNullaryOpINS0_16scalar_random_opIdEES3_EEddEEvRT_RKT0_RKNS0_9assign_opIT1_T2_EE, symObjAddr: 0xB1CC0, symBinAddr: 0x1000B9800, symSize: 0x0 }
  - { offsetInCU: 0xBAA97, offset: 0xBAA97, size: 0x8, addend: 0x0, symName: _.str.50, symObjAddr: 0xB1D00, symBinAddr: 0x1000B9840, symSize: 0x0 }
  - { offsetInCU: 0xBAAAA, offset: 0xBAAAA, size: 0x8, addend: 0x0, symName: _.str.51, symObjAddr: 0xB1D40, symBinAddr: 0x1000B9880, symSize: 0x0 }
  - { offsetInCU: 0xBAABC, offset: 0xBAABC, size: 0x8, addend: 0x0, symName: ___func__._ZN5Eigen14CwiseNullaryOpINS_8internal16scalar_random_opIdEENS_6MatrixIdLin1ELin1ELi0ELin1ELin1EEEEC2EllRKS3_, symObjAddr: 0xB1DA0, symBinAddr: 0x1000B98E0, symSize: 0x0 }
  - { offsetInCU: 0xBAACE, offset: 0xBAACE, size: 0x8, addend: 0x0, symName: _.str.52, symObjAddr: 0xB1DC0, symBinAddr: 0x1000B9900, symSize: 0x0 }
  - { offsetInCU: 0xBAAEE, offset: 0xBAAEE, size: 0x8, addend: 0x0, symName: _.str.53, symObjAddr: 0xB1E00, symBinAddr: 0x1000B9940, symSize: 0x0 }
  - { offsetInCU: 0xBAB0E, offset: 0xBAB0E, size: 0x8, addend: 0x0, symName: ___func__._ZN5Eigen8internal19variable_if_dynamicIlLi1EEC2El, symObjAddr: 0xB1EC0, symBinAddr: 0x1000B9A00, symSize: 0x0 }
  - { offsetInCU: 0xBAB20, offset: 0xBAB20, size: 0x8, addend: 0x0, symName: _.str.54, symObjAddr: 0xB1F00, symBinAddr: 0x1000B9A40, symSize: 0x0 }
  - { offsetInCU: 0xBAB40, offset: 0xBAB40, size: 0x8, addend: 0x0, symName: _.str.55, symObjAddr: 0xB1F20, symBinAddr: 0x1000B9A60, symSize: 0x0 }
  - { offsetInCU: 0xBAB60, offset: 0xBAB60, size: 0x8, addend: 0x0, symName: _.str.56, symObjAddr: 0xB1F40, symBinAddr: 0x1000B9A80, symSize: 0x0 }
  - { offsetInCU: 0xBAB72, offset: 0xBAB72, size: 0x8, addend: 0x0, symName: _.str.57, symObjAddr: 0xB1FA0, symBinAddr: 0x1000B9AE0, symSize: 0x0 }
  - { offsetInCU: 0xBAB84, offset: 0xBAB84, size: 0x8, addend: 0x0, symName: _.str.58, symObjAddr: 0xB2000, symBinAddr: 0x1000B9B40, symSize: 0x0 }
  - { offsetInCU: 0xBABA4, offset: 0xBABA4, size: 0x8, addend: 0x0, symName: _.str.59, symObjAddr: 0xB2020, symBinAddr: 0x1000B9B60, symSize: 0x0 }
  - { offsetInCU: 0xBABC4, offset: 0xBABC4, size: 0x8, addend: 0x0, symName: ___func__._ZN18MultiHeadAttention11thread_funcEPv, symObjAddr: 0xB2040, symBinAddr: 0x1000B9B80, symSize: 0x0 }
  - { offsetInCU: 0xBABD6, offset: 0xBABD6, size: 0x8, addend: 0x0, symName: _.str.60, symObjAddr: 0xB2060, symBinAddr: 0x1000B9BA0, symSize: 0x0 }
  - { offsetInCU: 0xBABF6, offset: 0xBABF6, size: 0x8, addend: 0x0, symName: _.str.61, symObjAddr: 0xB20C0, symBinAddr: 0x1000B9C00, symSize: 0x0 }
  - { offsetInCU: 0xBAC16, offset: 0xBAC16, size: 0x8, addend: 0x0, symName: _.str.62, symObjAddr: 0xB2140, symBinAddr: 0x1000B9C80, symSize: 0x0 }
  - { offsetInCU: 0xBAC28, offset: 0xBAC28, size: 0x8, addend: 0x0, symName: _.str.63, symObjAddr: 0xB2180, symBinAddr: 0x1000B9CC0, symSize: 0x0 }
  - { offsetInCU: 0xBAC3A, offset: 0xBAC3A, size: 0x8, addend: 0x0, symName: _.str.64, symObjAddr: 0xB21C0, symBinAddr: 0x1000B9D00, symSize: 0x0 }
  - { offsetInCU: 0xBAC4C, offset: 0xBAC4C, size: 0x8, addend: 0x0, symName: _.str.65, symObjAddr: 0xB2200, symBinAddr: 0x1000B9D40, symSize: 0x0 }
  - { offsetInCU: 0xBAC5E, offset: 0xBAC5E, size: 0x8, addend: 0x0, symName: _.str.66, symObjAddr: 0xB2240, symBinAddr: 0x1000B9D80, symSize: 0x0 }
  - { offsetInCU: 0xBAC70, offset: 0xBAC70, size: 0x8, addend: 0x0, symName: _.str.67, symObjAddr: 0xB2280, symBinAddr: 0x1000B9DC0, symSize: 0x0 }
  - { offsetInCU: 0xBAC82, offset: 0xBAC82, size: 0x8, addend: 0x0, symName: _.str.68, symObjAddr: 0xB22E0, symBinAddr: 0x1000B9E20, symSize: 0x0 }
  - { offsetInCU: 0xBACA2, offset: 0xBACA2, size: 0x8, addend: 0x0, symName: _.str.69, symObjAddr: 0xB2360, symBinAddr: 0x1000B9EA0, symSize: 0x0 }
  - { offsetInCU: 0xBACC2, offset: 0xBACC2, size: 0x8, addend: 0x0, symName: _.str.70, symObjAddr: 0xB23C0, symBinAddr: 0x1000B9F00, symSize: 0x0 }
  - { offsetInCU: 0xBACE2, offset: 0xBACE2, size: 0x8, addend: 0x0, symName: _.str.71, symObjAddr: 0xB2440, symBinAddr: 0x1000B9F80, symSize: 0x0 }
  - { offsetInCU: 0xBACF4, offset: 0xBACF4, size: 0x8, addend: 0x0, symName: ___func__._ZN5Eigen5BlockINS_6MatrixIdLin1ELin1ELi0ELin1ELin1EEELin1ELin1ELb0EEC2ERS2_llll, symObjAddr: 0xB2460, symBinAddr: 0x1000B9FA0, symSize: 0x0 }
  - { offsetInCU: 0xBAD14, offset: 0xBAD14, size: 0x8, addend: 0x0, symName: _.str.72, symObjAddr: 0xB2480, symBinAddr: 0x1000B9FC0, symSize: 0x0 }
  - { offsetInCU: 0xBAD26, offset: 0xBAD26, size: 0x8, addend: 0x0, symName: _.str.73, symObjAddr: 0xB24A0, symBinAddr: 0x1000B9FE0, symSize: 0x0 }
  - { offsetInCU: 0xBAD46, offset: 0xBAD46, size: 0x8, addend: 0x0, symName: ___func__._ZN5Eigen7MapBaseINS_5BlockINS_6MatrixIdLin1ELin1ELi0ELin1ELin1EEELin1ELin1ELb0EEELi0EEC2EPdll, symObjAddr: 0xB2560, symBinAddr: 0x1000BA0A0, symSize: 0x0 }
  - { offsetInCU: 0xBAD58, offset: 0xBAD58, size: 0x8, addend: 0x0, symName: _.str.74, symObjAddr: 0xB2580, symBinAddr: 0x1000BA0C0, symSize: 0x0 }
  - { offsetInCU: 0xBAD6A, offset: 0xBAD6A, size: 0x8, addend: 0x0, symName: _.str.75, symObjAddr: 0xB25A0, symBinAddr: 0x1000BA0E0, symSize: 0x0 }
  - { offsetInCU: 0xBAD8B, offset: 0xBAD8B, size: 0x8, addend: 0x0, symName: _.str.76, symObjAddr: 0xB2680, symBinAddr: 0x1000BA1C0, symSize: 0x0 }
  - { offsetInCU: 0xBADAC, offset: 0xBADAC, size: 0x8, addend: 0x0, symName: _.str.77, symObjAddr: 0xB26E0, symBinAddr: 0x1000BA220, symSize: 0x0 }
  - { offsetInCU: 0xBADBF, offset: 0xBADBF, size: 0x8, addend: 0x0, symName: _.str.78, symObjAddr: 0xB2700, symBinAddr: 0x1000BA240, symSize: 0x0 }
  - { offsetInCU: 0xBADE0, offset: 0xBADE0, size: 0x8, addend: 0x0, symName: _.str.79, symObjAddr: 0xB27A0, symBinAddr: 0x1000BA2E0, symSize: 0x0 }
  - { offsetInCU: 0xBADF3, offset: 0xBADF3, size: 0x8, addend: 0x0, symName: ___func__._ZN5Eigen8internal15block_evaluatorINS_6MatrixIdLin1ELin1ELi0ELin1ELin1EEELin1ELin1ELb0ELb1EEC2ERKNS_5BlockIS3_Lin1ELin1ELb0EEE, symObjAddr: 0xB27E0, symBinAddr: 0x1000BA320, symSize: 0x0 }
  - { offsetInCU: 0xBAE06, offset: 0xBAE06, size: 0x8, addend: 0x0, symName: _.str.80, symObjAddr: 0xB2800, symBinAddr: 0x1000BA340, symSize: 0x0 }
  - { offsetInCU: 0xBAE19, offset: 0xBAE19, size: 0x8, addend: 0x0, symName: _.str.81, symObjAddr: 0xB2840, symBinAddr: 0x1000BA380, symSize: 0x0 }
  - { offsetInCU: 0xBAE39, offset: 0xBAE39, size: 0x8, addend: 0x0, symName: ___func__._ZN5Eigen13CwiseBinaryOpINS_8internal13scalar_sum_opIddEEKNS_6MatrixIdLin1ELin1ELi0ELin1ELin1EEES6_EC2ERS6_S8_RKS3_, symObjAddr: 0xB2920, symBinAddr: 0x1000BA460, symSize: 0x0 }
  - { offsetInCU: 0xBAE4B, offset: 0xBAE4B, size: 0x8, addend: 0x0, symName: _.str.82, symObjAddr: 0xB2940, symBinAddr: 0x1000BA480, symSize: 0x0 }
  - { offsetInCU: 0xBAE5D, offset: 0xBAE5D, size: 0x8, addend: 0x0, symName: _.str.83, symObjAddr: 0xB2960, symBinAddr: 0x1000BA4A0, symSize: 0x0 }
  - { offsetInCU: 0xBAE7D, offset: 0xBAE7D, size: 0x8, addend: 0x0, symName: _.str.84, symObjAddr: 0xB29C0, symBinAddr: 0x1000BA500, symSize: 0x0 }
  - { offsetInCU: 0xBAE9D, offset: 0xBAE9D, size: 0x8, addend: 0x0, symName: ___func__._ZN5Eigen7ProductINS_6MatrixIdLin1ELin1ELi0ELin1ELin1EEENS_9TransposeIKS2_EELi0EEC2ERS4_RKS5_, symObjAddr: 0xB2A40, symBinAddr: 0x1000BA580, symSize: 0x0 }
  - { offsetInCU: 0xBAEAF, offset: 0xBAEAF, size: 0x8, addend: 0x0, symName: _.str.85, symObjAddr: 0xB2A60, symBinAddr: 0x1000BA5A0, symSize: 0x0 }
  - { offsetInCU: 0xBAEC1, offset: 0xBAEC1, size: 0x8, addend: 0x0, symName: _.str.86, symObjAddr: 0xB2A80, symBinAddr: 0x1000BA5C0, symSize: 0x0 }
  - { offsetInCU: 0xBAEE1, offset: 0xBAEE1, size: 0x8, addend: 0x0, symName: _.str.87, symObjAddr: 0xB2B40, symBinAddr: 0x1000BA680, symSize: 0x0 }
  - { offsetInCU: 0xBAF02, offset: 0xBAF02, size: 0x8, addend: 0x0, symName: _.str.88, symObjAddr: 0xB2C20, symBinAddr: 0x1000BA760, symSize: 0x0 }
  - { offsetInCU: 0xBAF15, offset: 0xBAF15, size: 0x8, addend: 0x0, symName: ___func__._ZNK5Eigen9DenseBaseINS_13CwiseBinaryOpINS_8internal17scalar_product_opIddEEKNS_9TransposeIKNS_5BlockIKNS_6MatrixIdLin1ELin1ELi0ELin1ELin1EEELi1ELin1ELb0EEEEEKNS6_IKNS5_IS9_EELin1ELi1ELb0EEEEEE5reduxINS2_13scalar_sum_opIddEEEEdRKT_, symObjAddr: 0xB2C60, symBinAddr: 0x1000BA7A0, symSize: 0x0 }
  - { offsetInCU: 0xBAF28, offset: 0xBAF28, size: 0x8, addend: 0x0, symName: _.str.89, symObjAddr: 0xB2C80, symBinAddr: 0x1000BA7C0, symSize: 0x0 }
  - { offsetInCU: 0xBAF3B, offset: 0xBAF3B, size: 0x8, addend: 0x0, symName: _.str.90, symObjAddr: 0xB2CA0, symBinAddr: 0x1000BA7E0, symSize: 0x0 }
  - { offsetInCU: 0xBAF4D, offset: 0xBAF4D, size: 0x8, addend: 0x0, symName: ___func__._ZN5Eigen8internal10redux_implINS0_13scalar_sum_opIddEENS0_15redux_evaluatorINS_13CwiseBinaryOpINS0_17scalar_product_opIddEEKNS_9TransposeIKNS_5BlockIKNS_6MatrixIdLin1ELin1ELi0ELin1ELin1EEELi1ELin1ELb0EEEEEKNS9_IKNS8_ISC_EELin1ELi1ELb0EEEEEEELi0ELi0EE3runISL_EEdRKSM_RKS3_RKT_, symObjAddr: 0xB2D20, symBinAddr: 0x1000BA860, symSize: 0x0 }
  - { offsetInCU: 0xBAF6D, offset: 0xBAF6D, size: 0x8, addend: 0x0, symName: _.str.91, symObjAddr: 0xB2D40, symBinAddr: 0x1000BA880, symSize: 0x0 }
  - { offsetInCU: 0xBAF80, offset: 0xBAF80, size: 0x8, addend: 0x0, symName: ___func__._ZN5Eigen8internal20generic_product_implINS_6MatrixIdLin1ELin1ELi0ELin1ELin1EEENS_9TransposeIKS3_EENS_10DenseShapeES7_Li8EE13scaleAndAddToIS3_EEvRT_RS5_RKS6_RKd, symObjAddr: 0xB2DA0, symBinAddr: 0x1000BA8E0, symSize: 0x0 }
  - { offsetInCU: 0xBAF93, offset: 0xBAF93, size: 0x8, addend: 0x0, symName: _.str.92, symObjAddr: 0xB2DC0, symBinAddr: 0x1000BA900, symSize: 0x0 }
  - { offsetInCU: 0xBAFA6, offset: 0xBAFA6, size: 0x8, addend: 0x0, symName: _.str.93, symObjAddr: 0xB2E00, symBinAddr: 0x1000BA940, symSize: 0x0 }
  - { offsetInCU: 0xBAFD2, offset: 0xBAFD2, size: 0x8, addend: 0x0, symName: ___func__._ZNK5Eigen10MatrixBaseINS_5BlockIKNS_6MatrixIdLin1ELin1ELi0ELin1ELin1EEELi1ELin1ELb0EEEE3dotINS1_IKNS1_IKNS_9TransposeIS4_EELin1ELi1ELb0EEELin1ELi1ELb1EEEEENS_20ScalarBinaryOpTraitsIdNS_8internal6traitsIT_E6ScalarENSF_17scalar_product_opIdSJ_EEE10ReturnTypeERKNS0_ISH_EE, symObjAddr: 0xB2E60, symBinAddr: 0x1000BA9A0, symSize: 0x0 }
  - { offsetInCU: 0xBAFE4, offset: 0xBAFE4, size: 0x8, addend: 0x0, symName: _.str.94, symObjAddr: 0xB2E80, symBinAddr: 0x1000BA9C0, symSize: 0x0 }
  - { offsetInCU: 0xBAFF6, offset: 0xBAFF6, size: 0x8, addend: 0x0, symName: _.str.95, symObjAddr: 0xB2EA0, symBinAddr: 0x1000BA9E0, symSize: 0x0 }
  - { offsetInCU: 0xBB016, offset: 0xBB016, size: 0x8, addend: 0x0, symName: ___func__._ZN5Eigen8internal16blas_data_mapperIKdlLi0ELi0ELi1EEC2EPS2_ll, symObjAddr: 0xB2EE0, symBinAddr: 0x1000BAA20, symSize: 0x0 }
  - { offsetInCU: 0xBB028, offset: 0xBB028, size: 0x8, addend: 0x0, symName: _.str.96, symObjAddr: 0xB2F20, symBinAddr: 0x1000BAA60, symSize: 0x0 }
  - { offsetInCU: 0xBB03A, offset: 0xBB03A, size: 0x8, addend: 0x0, symName: _.str.97, symObjAddr: 0xB2F40, symBinAddr: 0x1000BAA80, symSize: 0x0 }
  - { offsetInCU: 0xBB04C, offset: 0xBB04C, size: 0x8, addend: 0x0, symName: _.str.98, symObjAddr: 0xB2F60, symBinAddr: 0x1000BAAA0, symSize: 0x0 }
  - { offsetInCU: 0xBB05E, offset: 0xBB05E, size: 0x8, addend: 0x0, symName: _.str.99, symObjAddr: 0xB2F80, symBinAddr: 0x1000BAAC0, symSize: 0x0 }
  - { offsetInCU: 0xBB07E, offset: 0xBB07E, size: 0x8, addend: 0x0, symName: ___func__._ZNK5Eigen7MapBaseINS_3MapINS_6MatrixIdLin1ELi1ELi0ELin1ELi1EEELi2ENS_6StrideILi0ELi0EEEEELi0EE11checkSanityIS6_EEvNS_8internal9enable_ifIXgtsr8internal6traitsIT_EE9AlignmentLi0EEPvE4typeE, symObjAddr: 0xB3000, symBinAddr: 0x1000BAB40, symSize: 0x0 }
  - { offsetInCU: 0xBB090, offset: 0xBB090, size: 0x8, addend: 0x0, symName: _.str.100, symObjAddr: 0xB3020, symBinAddr: 0x1000BAB60, symSize: 0x0 }
  - { offsetInCU: 0xBB0BB, offset: 0xBB0BB, size: 0x8, addend: 0x0, symName: ___func__._ZN5Eigen8internal13gemm_pack_lhsIdlNS0_22const_blas_data_mapperIdlLi0EEELi6ELi2E19__simd128_float64_tLi0ELb0ELb0EEclEPdRKS3_llll, symObjAddr: 0xB3120, symBinAddr: 0x1000BAC60, symSize: 0x0 }
  - { offsetInCU: 0xBB0CE, offset: 0xBB0CE, size: 0x8, addend: 0x0, symName: _.str.101, symObjAddr: 0xB3140, symBinAddr: 0x1000BAC80, symSize: 0x0 }
  - { offsetInCU: 0xBB0EF, offset: 0xBB0EF, size: 0x8, addend: 0x0, symName: _.str.102, symObjAddr: 0xB3180, symBinAddr: 0x1000BACC0, symSize: 0x0 }
  - { offsetInCU: 0xBB10F, offset: 0xBB10F, size: 0x8, addend: 0x0, symName: ___func__._ZN5Eigen8internal16BlasLinearMapperIKdlLi0ELi1EEC2EPS2_l, symObjAddr: 0xB3200, symBinAddr: 0x1000BAD40, symSize: 0x0 }
  - { offsetInCU: 0xBB122, offset: 0xBB122, size: 0x8, addend: 0x0, symName: ___func__._ZN5Eigen15PlainObjectBaseINS_6MatrixIdLin1ELi1ELi0ELin1ELi1EEEE10resizeLikeINS_16PartialReduxExprINS1_IdLin1ELin1ELi0ELin1ELin1EEENS_8internal10member_sumIddEELi1EEEEEvRKNS_9EigenBaseIT_EE, symObjAddr: 0xB3240, symBinAddr: 0x1000BAD80, symSize: 0x0 }
  - { offsetInCU: 0xBB135, offset: 0xBB135, size: 0x8, addend: 0x0, symName: _.str.103, symObjAddr: 0xB3260, symBinAddr: 0x1000BADA0, symSize: 0x0 }
  - { offsetInCU: 0xBB147, offset: 0xBB147, size: 0x8, addend: 0x0, symName: _.str.104, symObjAddr: 0xB32C0, symBinAddr: 0x1000BAE00, symSize: 0x0 }
  - { offsetInCU: 0xBB167, offset: 0xBB167, size: 0x8, addend: 0x0, symName: _.str.105, symObjAddr: 0xB3360, symBinAddr: 0x1000BAEA0, symSize: 0x0 }
  - { offsetInCU: 0xBB179, offset: 0xBB179, size: 0x8, addend: 0x0, symName: _.str.106, symObjAddr: 0xB3380, symBinAddr: 0x1000BAEC0, symSize: 0x0 }
  - { offsetInCU: 0xBB18B, offset: 0xBB18B, size: 0x8, addend: 0x0, symName: _.str.107, symObjAddr: 0xB33C0, symBinAddr: 0x1000B8860, symSize: 0x0 }
  - { offsetInCU: 0xC03D1, offset: 0xC03D1, size: 0x8, addend: 0x0, symName: __ZN5Eigen8internal21dense_assignment_loopINS0_31generic_dense_assignment_kernelINS0_9evaluatorINS_5BlockINS_6MatrixIdLin1ELin1ELi0ELin1ELin1EEELin1ELin1ELb0EEEEENS3_IS6_EENS0_9assign_opIddEELi0EEELi4ELi0EE3runERSC_, symObjAddr: 0x32960, symBinAddr: 0x100036150, symSize: 0x5B4 }
  - { offsetInCU: 0xC0782, offset: 0xC0782, size: 0x8, addend: 0x0, symName: __ZN5Eigen8internal21dense_assignment_loopINS0_31generic_dense_assignment_kernelINS0_9evaluatorINS_6MatrixIdLin1ELin1ELi0ELin1ELin1EEEEENS3_INS_13CwiseBinaryOpINS0_13scalar_sum_opIddEEKS5_SA_EEEENS0_9assign_opIddEELi0EEELi3ELi0EE3runERSF_, symObjAddr: 0x35BC4, symBinAddr: 0x1000393B4, symSize: 0xAC }
  - { offsetInCU: 0xC0BF9, offset: 0xC0BF9, size: 0x8, addend: 0x0, symName: __ZN5Eigen8internal21dense_assignment_loopINS0_41restricted_packet_dense_assignment_kernelINS0_9evaluatorINS_6MatrixIdLin1ELin1ELi0ELin1ELin1EEEEENS3_INS_7ProductIS5_NS_9TransposeIKS5_EELi1EEEEENS0_9assign_opIddEEEELi4ELi0EE3runERSF_, symObjAddr: 0x45D78, symBinAddr: 0x100049568, symSize: 0x524 }
  - { offsetInCU: 0xC0DD2, offset: 0xC0DD2, size: 0x8, addend: 0x0, symName: __ZN5Eigen8internal29general_matrix_vector_productIldNS0_22const_blas_data_mapperIdlLi0EEELi0ELb0EdNS2_IdlLi1EEELb0ELi0EE3runEllRKS3_RKS4_Pdld, symObjAddr: 0x507A0, symBinAddr: 0x100053F90, symSize: 0x4D08 }
  - { offsetInCU: 0xC1F54, offset: 0xC1F54, size: 0x8, addend: 0x0, symName: __ZN5Eigen8internal13gemm_pack_lhsIdlNS0_22const_blas_data_mapperIdlLi0EEELi6ELi2E19__simd128_float64_tLi0ELb0ELb0EEclEPdRKS3_llll, symObjAddr: 0x62468, symBinAddr: 0x100065C58, symSize: 0xF6C }
  - { offsetInCU: 0xC24F9, offset: 0xC24F9, size: 0x8, addend: 0x0, symName: __ZN5Eigen8internal11gebp_kernelIddlNS0_16blas_data_mapperIdlLi0ELi0ELi1EEELi6ELi4ELb0ELb0EEclERKS3_PKdS8_llldllll, symObjAddr: 0x63EE0, symBinAddr: 0x1000676D0, symSize: 0x8FE0 }
  - { offsetInCU: 0xC53D3, offset: 0xC53D3, size: 0x8, addend: 0x0, symName: __ZN5Eigen8internal21dense_assignment_loopINS0_31generic_dense_assignment_kernelINS0_9evaluatorINS_6MatrixIdLin1ELin1ELi0ELin1ELin1EEEEENS3_INS_13CwiseBinaryOpINS0_18scalar_quotient_opIddEEKNS_7ProductIS5_NS_9TransposeIKS5_EELi0EEEKNS_14CwiseNullaryOpINS0_18scalar_constant_opIdEESC_EEEEEENS0_9assign_opIddEELi0EEELi3ELi0EE3runERSP_, symObjAddr: 0x4352C, symBinAddr: 0x100046D1C, symSize: 0xAC }
  - { offsetInCU: 0xC551D, offset: 0xC551D, size: 0x8, addend: 0x0, symName: __ZN5Eigen8internal21dense_assignment_loopINS0_31generic_dense_assignment_kernelINS0_9evaluatorINS_6MatrixIdLin1ELin1ELi0ELin1ELin1EEEEENS3_INS_12CwiseUnaryOpINS0_13scalar_exp_opIdEEKNS_12ArrayWrapperIS5_EEEEEENS0_9assign_opIddEELi0EEELi3ELi0EE3runERSH_, symObjAddr: 0x72B58, symBinAddr: 0x100076348, symSize: 0xAC }
  - { offsetInCU: 0xC5658, offset: 0xC5658, size: 0x8, addend: 0x0, symName: __ZN5Eigen8internal21dense_assignment_loopINS0_31generic_dense_assignment_kernelINS0_9evaluatorINS_6MatrixIdLin1ELi1ELi0ELin1ELi1EEEEENS3_INS_16PartialReduxExprINS4_IdLin1ELin1ELi0ELin1ELin1EEENS0_10member_sumIddEELi1EEEEENS0_9assign_opIddEELi0EEELi3ELi0EE3runERSF_, symObjAddr: 0x77148, symBinAddr: 0x10007A938, symSize: 0xAC }
  - { offsetInCU: 0xC56EE, offset: 0xC56EE, size: 0x8, addend: 0x0, symName: __ZNK5Eigen8internal9evaluatorINS_16PartialReduxExprINS_6MatrixIdLin1ELin1ELi0ELin1ELin1EEENS0_10member_sumIddEELi1EEEE6packetILi0E19__simd128_float64_tEET0_l, symObjAddr: 0x77978, symBinAddr: 0x10007B168, symSize: 0x4E8 }
  - { offsetInCU: 0xC5BE1, offset: 0xC5BE1, size: 0x8, addend: 0x0, symName: __ZN5Eigen8internal21dense_assignment_loopINS0_41restricted_packet_dense_assignment_kernelINS0_9evaluatorINS_6MatrixIdLin1ELin1ELi0ELin1ELin1EEEEENS3_INS_7ProductIS5_S5_Li1EEEEENS0_9assign_opIddEEEELi4ELi0EE3runERSC_, symObjAddr: 0x7ED1C, symBinAddr: 0x10008250C, symSize: 0x524 }
  - { offsetInCU: 0xC5D60, offset: 0xC5D60, size: 0x8, addend: 0x0, symName: __ZN5Eigen8internal29general_matrix_vector_productIldNS0_22const_blas_data_mapperIdlLi1EEELi1ELb0EdNS2_IdlLi0EEELb0ELi0EE3runEllRKS3_RKS4_Pdld, symObjAddr: 0x88EB8, symBinAddr: 0x10008C6A8, symSize: 0x4A18 }
  - { offsetInCU: 0xC6FB9, offset: 0xC6FB9, size: 0x8, addend: 0x0, symName: __ZN5Eigen8internal21dense_assignment_loopINS0_31generic_dense_assignment_kernelINS0_9evaluatorINS_6MatrixIdLin1ELin1ELi0ELin1ELin1EEEEENS3_INS_13CwiseBinaryOpINS0_13scalar_max_opIddLi0EEEKNS_12ArrayWrapperIS5_EEKNS_14CwiseNullaryOpINS0_18scalar_constant_opIdEENS_5ArrayIdLin1ELin1ELi0ELin1ELin1EEEEEEEEENS0_9assign_opIddEELi0EEELi3ELi0EE3runERSO_, symObjAddr: 0x96A40, symBinAddr: 0x10009A230, symSize: 0xAC }
  - { offsetInCU: 0xC737E, offset: 0xC737E, size: 0x8, addend: 0x0, symName: __ZN5Eigen8internal21dense_assignment_loopINS0_31generic_dense_assignment_kernelINS0_9evaluatorINS_5ArrayIdLi1ELin1ELi1ELi1ELin1EEEEENS3_INS_9TransposeIKNS_12CwiseUnaryOpINS0_14scalar_sqrt_opIdEEKNS_12ArrayWrapperINS_6MatrixIdLin1ELi1ELi0ELin1ELi1EEEEEEEEEEENS0_9assign_opIddEELi0EEELi3ELi0EE3runERSM_, symObjAddr: 0xA4D18, symBinAddr: 0x1000A8508, symSize: 0xAC }
  - { offsetInCU: 0xC793E, offset: 0xC793E, size: 0x8, addend: 0x0, symName: __ZN5Eigen8internal21dense_assignment_loopINS0_31generic_dense_assignment_kernelINS0_9evaluatorINS_6MatrixIdLin1ELin1ELi0ELin1ELin1EEEEENS3_INS_13CwiseBinaryOpINS0_13scalar_sum_opIddEEKNS7_INS0_17scalar_product_opIddEEKNS_12ArrayWrapperIS5_EESE_EESE_EEEENS0_9assign_opIddEELi0EEELi3ELi0EE3runERSL_, symObjAddr: 0xA97A4, symBinAddr: 0x1000ACF94, symSize: 0xAC }
  - { offsetInCU: 0xC80A4, offset: 0xC80A4, size: 0x8, addend: 0x0, symName: __ZNSt3__16vectorI23TransformerEncoderLayerNS_9allocatorIS1_EEE26__swap_out_circular_bufferERNS_14__split_bufferIS1_RS3_EE, symObjAddr: 0xCE14, symBinAddr: 0x100010604, symSize: 0x56C }
  - { offsetInCU: 0xC813A, offset: 0xC813A, size: 0x8, addend: 0x0, symName: __ZNSt3__16vectorIN5Eigen6MatrixIdLin1ELin1ELi0ELin1ELin1EEENS_9allocatorIS3_EEE26__swap_out_circular_bufferERNS_14__split_bufferIS3_RS5_EE, symObjAddr: 0x14240, symBinAddr: 0x100017A30, symSize: 0x56C }
  - { offsetInCU: 0xC847A, offset: 0xC847A, size: 0x8, addend: 0x0, symName: __ZNSt3__16vectorI23TransformerDecoderLayerNS_9allocatorIS1_EEE26__swap_out_circular_bufferERNS_14__split_bufferIS1_RS3_EE, symObjAddr: 0x1DB30, symBinAddr: 0x100021320, symSize: 0x56C }
  - { offsetInCU: 0xC8900, offset: 0xC8900, size: 0x8, addend: 0x0, symName: __ZNSt3__16vectorINS_10unique_ptrIN18MultiHeadAttention10ThreadDataENS_14default_deleteIS3_EEEENS_9allocatorIS6_EEE26__swap_out_circular_bufferERNS_14__split_bufferIS6_RS8_EE, symObjAddr: 0x2D214, symBinAddr: 0x100030A04, symSize: 0x56C }
  - { offsetInCU: 0xC8C01, offset: 0xC8C01, size: 0x8, addend: 0x0, symName: __Z3powB8ue170006IifENSt3__19enable_ifIXaasr3std13is_arithmeticIT_EE5valuesr3std13is_arithmeticIT0_EE5valueENS0_9__promoteIS2_S3_vEEE4type4typeES2_S3_, symObjAddr: 0xAE8, symBinAddr: 0x1000042D8, symSize: 0x3C }
  - { offsetInCU: 0xC92A3, offset: 0xC92A3, size: 0x8, addend: 0x0, symName: __ZN5Eigen8internal19gemv_dense_selectorILi2ELi0ELb1EE3runINS_9TransposeIKNS4_IKNS_6MatrixIdLin1ELin1ELi0ELin1ELin1EEEEEEENS4_IKNS_5BlockIS7_Li1ELin1ELb0EEEEENS4_INSB_IS6_Li1ELin1ELb0EEEEEEEvRKT_RKT0_RT1_RKNSN_6ScalarE, symObjAddr: 0x58C08, symBinAddr: 0x10005C3F8, symSize: 0xC18 }
  - { offsetInCU: 0xCA26D, offset: 0xCA26D, size: 0x8, addend: 0x0, symName: __ZN5Eigen8internal19gemv_dense_selectorILi2ELi1ELb1EE3runINS_9TransposeIKNS_6MatrixIdLin1ELin1ELi0ELin1ELin1EEEEENS4_IKNS_5BlockIS7_Li1ELin1ELb0EEEEENS4_INS9_IS6_Li1ELin1ELb0EEEEEEEvRKT_RKT0_RT1_RKNSL_6ScalarE, symObjAddr: 0x8829C, symBinAddr: 0x10008BA8C, symSize: 0xB54 }
  - { offsetInCU: 0xCE0BB, offset: 0xCE0BB, size: 0x8, addend: 0x0, symName: __ZN5Eigen8symbolic10SymbolExprINS_8internal17symbolic_last_tagEEC1Ev, symObjAddr: 0x0, symBinAddr: 0x1000037F0, symSize: 0x2C }
  - { offsetInCU: 0xCE0E5, offset: 0xCE0E5, size: 0x8, addend: 0x0, symName: __ZNK5Eigen8symbolic8BaseExprINS0_10SymbolExprINS_8internal17symbolic_last_tagEEEEplILi1EEENS0_7AddExprIS5_NS0_9ValueExprINS3_8FixedIntIXT_EEEEEEESB_, symObjAddr: 0x2C, symBinAddr: 0x10000381C, symSize: 0x2C4 }
  - { offsetInCU: 0xCE121, offset: 0xCE121, size: 0x8, addend: 0x0, symName: __ZNK5Eigen8internal8FixedIntILi1EEclEv, symObjAddr: 0x2F0, symBinAddr: 0x100003AE0, symSize: 0x10 }
  - { offsetInCU: 0xCE147, offset: 0xCE147, size: 0x8, addend: 0x0, symName: __ZN5Eigen8internal5all_tC1Ev, symObjAddr: 0x300, symBinAddr: 0x100003AF0, symSize: 0x2C }
  - { offsetInCU: 0xCE170, offset: 0xCE170, size: 0x8, addend: 0x0, symName: __Z19positional_encodingii, symObjAddr: 0x32C, symBinAddr: 0x100003B1C, symSize: 0x5D8 }
  - { offsetInCU: 0xCE1EF, offset: 0xCE1EF, size: 0x8, addend: 0x0, symName: __ZNSt3__113basic_ostreamIcNS_11char_traitsIcEEElsB8ue170006EPFRS3_S4_E, symObjAddr: 0x94C, symBinAddr: 0x10000413C, symSize: 0x2C }
  - { offsetInCU: 0xCE223, offset: 0xCE223, size: 0x8, addend: 0x0, symName: __ZNSt3__16vectorIfNS_9allocatorIfEEEC1Em, symObjAddr: 0xA4C, symBinAddr: 0x10000423C, symSize: 0x34 }
  - { offsetInCU: 0xCE25E, offset: 0xCE25E, size: 0x8, addend: 0x0, symName: __ZNSt3__16vectorINS0_IfNS_9allocatorIfEEEENS1_IS3_EEEC1EmRKS3_, symObjAddr: 0xA80, symBinAddr: 0x100004270, symSize: 0x3C }
  - { offsetInCU: 0xCE2A8, offset: 0xCE2A8, size: 0x8, addend: 0x0, symName: __ZNSt3__16vectorIfNS_9allocatorIfEEED1B8ue170006Ev, symObjAddr: 0xABC, symBinAddr: 0x1000042AC, symSize: 0x2C }
  - { offsetInCU: 0xCE2D2, offset: 0xCE2D2, size: 0x8, addend: 0x0, symName: __ZNSt3__16vectorINS0_IfNS_9allocatorIfEEEENS1_IS3_EEEixB8ue170006Em, symObjAddr: 0xB24, symBinAddr: 0x100004314, symSize: 0x74 }
  - { offsetInCU: 0xCE309, offset: 0xCE309, size: 0x8, addend: 0x0, symName: __ZNSt3__16vectorIfNS_9allocatorIfEEEixB8ue170006Em, symObjAddr: 0xB98, symBinAddr: 0x100004388, symSize: 0x6C }
  - { offsetInCU: 0xCE340, offset: 0xCE340, size: 0x8, addend: 0x0, symName: __ZNSt3__16vectorINS0_IfNS_9allocatorIfEEEENS1_IS3_EEED1B8ue170006Ev, symObjAddr: 0xC04, symBinAddr: 0x1000043F4, symSize: 0x2C }
  - { offsetInCU: 0xCE369, offset: 0xCE369, size: 0x8, addend: 0x0, symName: __Z28scaled_dot_product_attentionRKN5Eigen6MatrixIdLin1ELin1ELi0ELin1ELin1EEES3_S3_d, symObjAddr: 0xC30, symBinAddr: 0x100004420, symSize: 0xEC0 }
  - { offsetInCU: 0xCE41F, offset: 0xCE41F, size: 0x8, addend: 0x0, symName: __ZNK5Eigen15PlainObjectBaseINS_6MatrixIdLin1ELin1ELi0ELin1ELin1EEEE4rowsEv, symObjAddr: 0x1AF0, symBinAddr: 0x1000052E0, symSize: 0x24 }
  - { offsetInCU: 0xCE445, offset: 0xCE445, size: 0x8, addend: 0x0, symName: __ZNK5Eigen15PlainObjectBaseINS_6MatrixIdLin1ELin1ELi0ELin1ELin1EEEE4colsEv, symObjAddr: 0x1B14, symBinAddr: 0x100005304, symSize: 0x24 }
  - { offsetInCU: 0xCE46B, offset: 0xCE46B, size: 0x8, addend: 0x0, symName: __ZNK5Eigen10MatrixBaseINS_6MatrixIdLin1ELin1ELi0ELin1ELin1EEEEmlINS_9TransposeIKS2_EEEEKNS_7ProductIS2_T_Li0EEERKNS0_IS9_EE, symObjAddr: 0x1B38, symBinAddr: 0x100005328, symSize: 0x224 }
  - { offsetInCU: 0xCE4AD, offset: 0xCE4AD, size: 0x8, addend: 0x0, symName: __ZNK5Eigen9DenseBaseINS_6MatrixIdLin1ELin1ELi0ELin1ELin1EEEE9transposeEv, symObjAddr: 0x1D5C, symBinAddr: 0x10000554C, symSize: 0x204 }
  - { offsetInCU: 0xCE4D6, offset: 0xCE4D6, size: 0x8, addend: 0x0, symName: __ZNK5Eigen10MatrixBaseINS_7ProductINS_6MatrixIdLin1ELin1ELi0ELin1ELin1EEENS_9TransposeIKS3_EELi0EEEEdvIdEEKNS_13CwiseBinaryOpINS_8internal18scalar_quotient_opIdNSB_18promote_scalar_argIdT_Xsr5Eigen8internal14has_ReturnTypeINS_20ScalarBinaryOpTraitsIdSE_NSC_IdSE_EEEEEE5valueEE4typeEEEKS7_KNSB_19plain_constant_typeIS7_SJ_E4typeEEERKSE_, symObjAddr: 0x1F60, symBinAddr: 0x100005750, symSize: 0x2FC }
  - { offsetInCU: 0xCE51A, offset: 0xCE51A, size: 0x8, addend: 0x0, symName: __ZN5Eigen6MatrixIdLin1ELin1ELi0ELin1ELin1EEC1INS_13CwiseBinaryOpINS_8internal18scalar_quotient_opIddEEKNS_7ProductIS1_NS_9TransposeIKS1_EELi0EEEKNS_14CwiseNullaryOpINS4_18scalar_constant_opIdEES9_EEEEEERKNS_9EigenBaseIT_EE, symObjAddr: 0x225C, symBinAddr: 0x100005A4C, symSize: 0x34 }
  - { offsetInCU: 0xCE55C, offset: 0xCE55C, size: 0x8, addend: 0x0, symName: __ZN5Eigen10MatrixBaseINS_6MatrixIdLin1ELin1ELi0ELin1ELin1EEEE5arrayEv, symObjAddr: 0x2290, symBinAddr: 0x100005A80, symSize: 0x204 }
  - { offsetInCU: 0xCE583, offset: 0xCE583, size: 0x8, addend: 0x0, symName: __ZNK5Eigen9ArrayBaseINS_12ArrayWrapperINS_6MatrixIdLin1ELin1ELi0ELin1ELin1EEEEEE3expEv, symObjAddr: 0x2494, symBinAddr: 0x100005C84, symSize: 0x200 }
  - { offsetInCU: 0xCE5AF, offset: 0xCE5AF, size: 0x8, addend: 0x0, symName: __ZN5Eigen6MatrixIdLin1ELin1ELi0ELin1ELin1EEC1INS_12CwiseUnaryOpINS_8internal13scalar_exp_opIdEEKNS_12ArrayWrapperIS1_EEEEEERKNS_9EigenBaseIT_EE, symObjAddr: 0x2694, symBinAddr: 0x100005E84, symSize: 0x34 }
  - { offsetInCU: 0xCE5F1, offset: 0xCE5F1, size: 0x8, addend: 0x0, symName: __ZN5Eigen9DenseBaseINS_6MatrixIdLin1ELin1ELi0ELin1ELin1EEEE7rowwiseEv, symObjAddr: 0x26C8, symBinAddr: 0x100005EB8, symSize: 0x204 }
  - { offsetInCU: 0xCE61B, offset: 0xCE61B, size: 0x8, addend: 0x0, symName: __ZNK5Eigen12VectorwiseOpINS_6MatrixIdLin1ELin1ELi0ELin1ELin1EEELi1EE3sumEv, symObjAddr: 0x28CC, symBinAddr: 0x1000060BC, symSize: 0x200 }
  - { offsetInCU: 0xCE647, offset: 0xCE647, size: 0x8, addend: 0x0, symName: __ZN5Eigen6MatrixIdLin1ELi1ELi0ELin1ELi1EEC1INS_16PartialReduxExprINS0_IdLin1ELin1ELi0ELin1ELin1EEENS_8internal10member_sumIddEELi1EEEEERKNS_9EigenBaseIT_EE, symObjAddr: 0x2ACC, symBinAddr: 0x1000062BC, symSize: 0x34 }
  - { offsetInCU: 0xCE689, offset: 0xCE689, size: 0x8, addend: 0x0, symName: __ZNK5Eigen15PlainObjectBaseINS_6MatrixIdLin1ELi1ELi0ELin1ELi1EEEE4rowsEv, symObjAddr: 0x2B00, symBinAddr: 0x1000062F0, symSize: 0x24 }
  - { offsetInCU: 0xCE6AF, offset: 0xCE6AF, size: 0x8, addend: 0x0, symName: __ZNK5Eigen15PlainObjectBaseINS_6MatrixIdLin1ELi1ELi0ELin1ELi1EEEE4colsEv, symObjAddr: 0x2B24, symBinAddr: 0x100006314, symSize: 0x3C }
  - { offsetInCU: 0xCE6D5, offset: 0xCE6D5, size: 0x8, addend: 0x0, symName: __ZN5Eigen9DenseBaseINS_12ArrayWrapperINS_6MatrixIdLin1ELin1ELi0ELin1ELin1EEEEEE7colwiseEv, symObjAddr: 0x2B60, symBinAddr: 0x100006350, symSize: 0x204 }
  - { offsetInCU: 0xCE6FF, offset: 0xCE6FF, size: 0x8, addend: 0x0, symName: __ZNK5Eigen12VectorwiseOpINS_12ArrayWrapperINS_6MatrixIdLin1ELin1ELi0ELin1ELin1EEEEELi0EEdvINS1_INS2_IdLin1ELi1ELi0ELin1ELi1EEEEEEENS_13CwiseBinaryOpINS_8internal18scalar_quotient_opIddEEKS4_KNS5_12ExtendedTypeIT_E4TypeEEERKNS_9DenseBaseISF_EE, symObjAddr: 0x2D64, symBinAddr: 0x100006554, symSize: 0x23C }
  - { offsetInCU: 0xCE73F, offset: 0xCE73F, size: 0x8, addend: 0x0, symName: __ZN5Eigen10MatrixBaseINS_6MatrixIdLin1ELi1ELi0ELin1ELi1EEEE5arrayEv, symObjAddr: 0x2FA0, symBinAddr: 0x100006790, symSize: 0x204 }
  - { offsetInCU: 0xCE76B, offset: 0xCE76B, size: 0x8, addend: 0x0, symName: __ZN5Eigen6MatrixIdLin1ELin1ELi0ELin1ELin1EEC1INS_13CwiseBinaryOpINS_8internal18scalar_quotient_opIddEEKNS_12ArrayWrapperIS1_EEKNS_9ReplicateINS7_INS0_IdLin1ELi1ELi0ELin1ELi1EEEEELi1ELin1EEEEEEERKNS_9EigenBaseIT_EE, symObjAddr: 0x31A4, symBinAddr: 0x100006994, symSize: 0x34 }
  - { offsetInCU: 0xCE7AD, offset: 0xCE7AD, size: 0x8, addend: 0x0, symName: __ZNK5Eigen10MatrixBaseINS_6MatrixIdLin1ELin1ELi0ELin1ELin1EEEEmlIS2_EEKNS_7ProductIS2_T_Li0EEERKNS0_IS6_EE, symObjAddr: 0x31D8, symBinAddr: 0x1000069C8, symSize: 0x224 }
  - { offsetInCU: 0xCE7F4, offset: 0xCE7F4, size: 0x8, addend: 0x0, symName: __ZN5Eigen6MatrixIdLin1ELin1ELi0ELin1ELin1EEC1INS_7ProductIS1_S1_Li0EEEEERKNS_9EigenBaseIT_EE, symObjAddr: 0x33FC, symBinAddr: 0x100006BEC, symSize: 0x34 }
  - { offsetInCU: 0xCE836, offset: 0xCE836, size: 0x8, addend: 0x0, symName: __ZN5Eigen6MatrixIdLin1ELin1ELi0ELin1ELin1EED1Ev, symObjAddr: 0x3430, symBinAddr: 0x100006C20, symSize: 0x2C }
  - { offsetInCU: 0xCE862, offset: 0xCE862, size: 0x8, addend: 0x0, symName: __ZN5Eigen6MatrixIdLin1ELi1ELi0ELin1ELi1EED1Ev, symObjAddr: 0x345C, symBinAddr: 0x100006C4C, symSize: 0x2C }
  - { offsetInCU: 0xCE88D, offset: 0xCE88D, size: 0x8, addend: 0x0, symName: __Z12feed_forwardRKN5Eigen6MatrixIdLin1ELin1ELi0ELin1ELin1EEES3_S3_RKNS0_IdLin1ELi1ELi0ELin1ELi1EEES6_, symObjAddr: 0x3488, symBinAddr: 0x100006C78, symSize: 0xA40 }
  - { offsetInCU: 0xCE919, offset: 0xCE919, size: 0x8, addend: 0x0, symName: __ZNK5Eigen9EigenBaseINS_6MatrixIdLin1ELi1ELi0ELin1ELi1EEEE4sizeEv, symObjAddr: 0x3EC8, symBinAddr: 0x1000076B8, symSize: 0x44 }
  - { offsetInCU: 0xCE93F, offset: 0xCE93F, size: 0x8, addend: 0x0, symName: __ZNK5Eigen9DenseBaseINS_7ProductINS_6MatrixIdLin1ELin1ELi0ELin1ELin1EEES3_Li0EEEE7rowwiseEv, symObjAddr: 0x3F0C, symBinAddr: 0x1000076FC, symSize: 0x210 }
  - { offsetInCU: 0xCE966, offset: 0xCE966, size: 0x8, addend: 0x0, symName: __ZNK5Eigen12VectorwiseOpIKNS_7ProductINS_6MatrixIdLin1ELin1ELi0ELin1ELin1EEES3_Li0EEELi1EEplINS_9TransposeIKNS2_IdLin1ELi1ELi0ELin1ELi1EEEEEEENS_13CwiseBinaryOpINS_8internal13scalar_sum_opIdNT_6ScalarEEES5_KNS6_12ExtendedTypeISF_E4TypeEEERKNS_9DenseBaseISF_EE, symObjAddr: 0x411C, symBinAddr: 0x10000790C, symSize: 0x23C }
  - { offsetInCU: 0xCE9A6, offset: 0xCE9A6, size: 0x8, addend: 0x0, symName: __ZNK5Eigen9DenseBaseINS_6MatrixIdLin1ELi1ELi0ELin1ELi1EEEE9transposeEv, symObjAddr: 0x4358, symBinAddr: 0x100007B48, symSize: 0x204 }
  - { offsetInCU: 0xCE9D4, offset: 0xCE9D4, size: 0x8, addend: 0x0, symName: __ZN5Eigen6MatrixIdLin1ELin1ELi0ELin1ELin1EEC1INS_13CwiseBinaryOpINS_8internal13scalar_sum_opIddEEKNS_7ProductIS1_S1_Li0EEEKNS_9ReplicateINS_9TransposeIKNS0_IdLin1ELi1ELi0ELin1ELi1EEEEELin1ELi1EEEEEEERKNS_9EigenBaseIT_EE, symObjAddr: 0x455C, symBinAddr: 0x100007D4C, symSize: 0x34 }
  - { offsetInCU: 0xCEA16, offset: 0xCEA16, size: 0x8, addend: 0x0, symName: __ZNK5Eigen9ArrayBaseINS_12ArrayWrapperINS_6MatrixIdLin1ELin1ELi0ELin1ELin1EEEEEE3maxERKd, symObjAddr: 0x4590, symBinAddr: 0x100007D80, symSize: 0x24C }
  - { offsetInCU: 0xCEA4C, offset: 0xCEA4C, size: 0x8, addend: 0x0, symName: __ZN5Eigen6MatrixIdLin1ELin1ELi0ELin1ELin1EEaSINS_13CwiseBinaryOpINS_8internal13scalar_max_opIddLi0EEEKNS_12ArrayWrapperIS1_EEKNS_14CwiseNullaryOpINS4_18scalar_constant_opIdEENS_5ArrayIdLin1ELin1ELi0ELin1ELin1EEEEEEEEERS1_RKNS_9DenseBaseIT_EE, symObjAddr: 0x47DC, symBinAddr: 0x100007FCC, symSize: 0x2C }
  - { offsetInCU: 0xCEA88, offset: 0xCEA88, size: 0x8, addend: 0x0, symName: __Z10layer_normRKN5Eigen6MatrixIdLin1ELin1ELi0ELin1ELin1EEERKNS0_IdLin1ELi1ELi0ELin1ELi1EEES6_, symObjAddr: 0x4808, symBinAddr: 0x100007FF8, symSize: 0x15D4 }
  - { offsetInCU: 0xCEB42, offset: 0xCEB42, size: 0x8, addend: 0x0, symName: __ZNK5Eigen9DenseBaseINS_6MatrixIdLin1ELin1ELi0ELin1ELin1EEEE7colwiseEv, symObjAddr: 0x5DDC, symBinAddr: 0x1000095CC, symSize: 0x204 }
  - { offsetInCU: 0xCEB69, offset: 0xCEB69, size: 0x8, addend: 0x0, symName: __ZNK5Eigen12VectorwiseOpIKNS_6MatrixIdLin1ELin1ELi0ELin1ELin1EEELi0EE4meanEv, symObjAddr: 0x5FE0, symBinAddr: 0x1000097D0, symSize: 0x2B0 }
  - { offsetInCU: 0xCEB95, offset: 0xCEB95, size: 0x8, addend: 0x0, symName: __ZN5Eigen6MatrixIdLin1ELi1ELi0ELin1ELi1EEC1INS_13CwiseBinaryOpINS_8internal18scalar_quotient_opIddEEKNS_16PartialReduxExprIKNS0_IdLin1ELin1ELi0ELin1ELin1EEENS4_10member_sumIddEELi0EEEKNS_14CwiseNullaryOpINS4_18scalar_constant_opIdEEKNS0_IdLi1ELin1ELi1ELi1ELin1EEEEEEEEERKNS_9EigenBaseIT_EE, symObjAddr: 0x6290, symBinAddr: 0x100009A80, symSize: 0x34 }
  - { offsetInCU: 0xCEBD7, offset: 0xCEBD7, size: 0x8, addend: 0x0, symName: __ZNK5Eigen9DenseBaseINS_6MatrixIdLin1ELin1ELi0ELin1ELin1EEEE7rowwiseEv, symObjAddr: 0x62C4, symBinAddr: 0x100009AB4, symSize: 0x204 }
  - { offsetInCU: 0xCEBFE, offset: 0xCEBFE, size: 0x8, addend: 0x0, symName: __ZNK5Eigen12VectorwiseOpIKNS_6MatrixIdLin1ELin1ELi0ELin1ELin1EEELi1EEmiINS_9TransposeINS1_IdLin1ELi1ELi0ELin1ELi1EEEEEEENS_13CwiseBinaryOpINS_8internal20scalar_difference_opIdNT_6ScalarEEES3_KNS4_12ExtendedTypeISC_E4TypeEEERKNS_9DenseBaseISC_EE, symObjAddr: 0x64C8, symBinAddr: 0x100009CB8, symSize: 0x274 }
  - { offsetInCU: 0xCEC3E, offset: 0xCEC3E, size: 0x8, addend: 0x0, symName: __ZN5Eigen9DenseBaseINS_6MatrixIdLin1ELi1ELi0ELin1ELi1EEEE9transposeEv, symObjAddr: 0x673C, symBinAddr: 0x100009F2C, symSize: 0x204 }
  - { offsetInCU: 0xCEC67, offset: 0xCEC67, size: 0x8, addend: 0x0, symName: __ZN5Eigen10MatrixBaseINS_13CwiseBinaryOpINS_8internal20scalar_difference_opIddEEKNS_6MatrixIdLin1ELin1ELi0ELin1ELin1EEEKNS_9ReplicateINS_9TransposeINS5_IdLin1ELi1ELi0ELin1ELi1EEEEELin1ELi1EEEEEE5arrayEv, symObjAddr: 0x6940, symBinAddr: 0x10000A130, symSize: 0x38 }
  - { offsetInCU: 0xCEC8D, offset: 0xCEC8D, size: 0x8, addend: 0x0, symName: __ZNK5Eigen9ArrayBaseINS_12ArrayWrapperINS_13CwiseBinaryOpINS_8internal20scalar_difference_opIddEEKNS_6MatrixIdLin1ELin1ELi0ELin1ELin1EEEKNS_9ReplicateINS_9TransposeINS6_IdLin1ELi1ELi0ELin1ELi1EEEEELin1ELi1EEEEEEEE6squareEv, symObjAddr: 0x6978, symBinAddr: 0x10000A168, symSize: 0x200 }
  - { offsetInCU: 0xCECB4, offset: 0xCECB4, size: 0x8, addend: 0x0, symName: __ZNK5Eigen9DenseBaseINS_12CwiseUnaryOpINS_8internal16scalar_square_opIdEEKNS_12ArrayWrapperINS_13CwiseBinaryOpINS2_20scalar_difference_opIddEEKNS_6MatrixIdLin1ELin1ELi0ELin1ELin1EEEKNS_9ReplicateINS_9TransposeINS9_IdLin1ELi1ELi0ELin1ELi1EEEEELin1ELi1EEEEEEEEEE7colwiseEv, symObjAddr: 0x6B78, symBinAddr: 0x10000A368, symSize: 0x38 }
  - { offsetInCU: 0xCECDA, offset: 0xCECDA, size: 0x8, addend: 0x0, symName: __ZNK5Eigen12VectorwiseOpIKNS_12CwiseUnaryOpINS_8internal16scalar_square_opIdEEKNS_12ArrayWrapperINS_13CwiseBinaryOpINS2_20scalar_difference_opIddEEKNS_6MatrixIdLin1ELin1ELi0ELin1ELin1EEEKNS_9ReplicateINS_9TransposeINS9_IdLin1ELi1ELi0ELin1ELi1EEEEELin1ELi1EEEEEEEEELi0EE4meanEv, symObjAddr: 0x6BB0, symBinAddr: 0x10000A3A0, symSize: 0x2BC }
  - { offsetInCU: 0xCED01, offset: 0xCED01, size: 0x8, addend: 0x0, symName: __ZNK5Eigen9ArrayBaseINS_13CwiseBinaryOpINS_8internal18scalar_quotient_opIddEEKNS_16PartialReduxExprIKNS_12CwiseUnaryOpINS2_16scalar_square_opIdEEKNS_12ArrayWrapperINS1_INS2_20scalar_difference_opIddEEKNS_6MatrixIdLin1ELin1ELi0ELin1ELin1EEEKNS_9ReplicateINS_9TransposeINSC_IdLin1ELi1ELi0ELin1ELi1EEEEELin1ELi1EEEEEEEEENS2_10member_sumIddEELi0EEEKNS_14CwiseNullaryOpINS2_18scalar_constant_opIdEEKNS_5ArrayIdLi1ELin1ELi1ELi1ELin1EEEEEEEE6matrixEv, symObjAddr: 0x6E6C, symBinAddr: 0x10000A65C, symSize: 0x38 }
  - { offsetInCU: 0xCED2C, offset: 0xCED2C, size: 0x8, addend: 0x0, symName: __ZN5Eigen6MatrixIdLin1ELi1ELi0ELin1ELi1EEC1INS_13MatrixWrapperIKNS_13CwiseBinaryOpINS_8internal18scalar_quotient_opIddEEKNS_16PartialReduxExprIKNS_12CwiseUnaryOpINS5_16scalar_square_opIdEEKNS_12ArrayWrapperINS4_INS5_20scalar_difference_opIddEEKNS0_IdLin1ELin1ELi0ELin1ELin1EEEKNS_9ReplicateINS_9TransposeIS1_EELin1ELi1EEEEEEEEENS5_10member_sumIddEELi0EEEKNS_14CwiseNullaryOpINS5_18scalar_constant_opIdEEKNS_5ArrayIdLi1ELin1ELi1ELi1ELin1EEEEEEEEEEERKNS_9EigenBaseIT_EE, symObjAddr: 0x6EA4, symBinAddr: 0x10000A694, symSize: 0x34 }
  - { offsetInCU: 0xCED6E, offset: 0xCED6E, size: 0x8, addend: 0x0, symName: __ZN5Eigen9DenseBaseINS_12ArrayWrapperINS_13CwiseBinaryOpINS_8internal20scalar_difference_opIddEEKNS_6MatrixIdLin1ELin1ELi0ELin1ELin1EEEKNS_9ReplicateINS_9TransposeINS6_IdLin1ELi1ELi0ELin1ELi1EEEEELin1ELi1EEEEEEEE7rowwiseEv, symObjAddr: 0x6ED8, symBinAddr: 0x10000A6C8, symSize: 0x38 }
  - { offsetInCU: 0xCED97, offset: 0xCED97, size: 0x8, addend: 0x0, symName: __ZNK5Eigen12VectorwiseOpINS_12ArrayWrapperINS_13CwiseBinaryOpINS_8internal20scalar_difference_opIddEEKNS_6MatrixIdLin1ELin1ELi0ELin1ELin1EEEKNS_9ReplicateINS_9TransposeINS6_IdLin1ELi1ELi0ELin1ELi1EEEEELin1ELi1EEEEEEELi1EEdvINSA_IKNS_12CwiseUnaryOpINS3_14scalar_sqrt_opIdEEKNS1_ISB_EEEEEEEENS2_INS3_18scalar_quotient_opIddEEKSG_KNSH_12ExtendedTypeIT_E4TypeEEERKNS_9DenseBaseISV_EE, symObjAddr: 0x6F10, symBinAddr: 0x10000A700, symSize: 0x228 }
  - { offsetInCU: 0xCEDD7, offset: 0xCEDD7, size: 0x8, addend: 0x0, symName: __ZNK5Eigen9ArrayBaseINS_12ArrayWrapperINS_6MatrixIdLin1ELi1ELi0ELin1ELi1EEEEEE4sqrtEv, symObjAddr: 0x7138, symBinAddr: 0x10000A928, symSize: 0x200 }
  - { offsetInCU: 0xCEDFE, offset: 0xCEDFE, size: 0x8, addend: 0x0, symName: __ZNK5Eigen9DenseBaseINS_12CwiseUnaryOpINS_8internal14scalar_sqrt_opIdEEKNS_12ArrayWrapperINS_6MatrixIdLin1ELi1ELi0ELin1ELi1EEEEEEEE9transposeEv, symObjAddr: 0x7338, symBinAddr: 0x10000AB28, symSize: 0x38 }
  - { offsetInCU: 0xCEE2B, offset: 0xCEE2B, size: 0x8, addend: 0x0, symName: __ZN5Eigen6MatrixIdLin1ELin1ELi0ELin1ELin1EEC1INS_13CwiseBinaryOpINS_8internal18scalar_quotient_opIddEEKNS_12ArrayWrapperINS3_INS4_20scalar_difference_opIddEEKS1_KNS_9ReplicateINS_9TransposeINS0_IdLin1ELi1ELi0ELin1ELi1EEEEELin1ELi1EEEEEEEKNSB_INSC_IKNS_12CwiseUnaryOpINS4_14scalar_sqrt_opIdEEKNS7_ISD_EEEEEELin1ELi1EEEEEEERKNS_9EigenBaseIT_EE, symObjAddr: 0x7370, symBinAddr: 0x10000AB60, symSize: 0x34 }
  - { offsetInCU: 0xCEE6D, offset: 0xCEE6D, size: 0x8, addend: 0x0, symName: __ZNK5Eigen9DenseBaseINS_9TransposeIKNS_6MatrixIdLin1ELi1ELi0ELin1ELi1EEEEEE9replicateEll, symObjAddr: 0x73A4, symBinAddr: 0x10000AB94, symSize: 0x44 }
  - { offsetInCU: 0xCEEB6, offset: 0xCEEB6, size: 0x8, addend: 0x0, symName: __ZN5Eigen6MatrixIdLin1ELin1ELi0ELin1ELin1EEC1INS_9ReplicateINS_9TransposeIKNS0_IdLin1ELi1ELi0ELin1ELi1EEEEELin1ELin1EEEEERKNS_9EigenBaseIT_EE, symObjAddr: 0x73E8, symBinAddr: 0x10000ABD8, symSize: 0x34 }
  - { offsetInCU: 0xCEEF8, offset: 0xCEEF8, size: 0x8, addend: 0x0, symName: __ZNK5Eigen9ArrayBaseINS_12ArrayWrapperINS_6MatrixIdLin1ELin1ELi0ELin1ELin1EEEEEEmlIS4_EEKNS_13CwiseBinaryOpINS_8internal17scalar_product_opIdNS8_6traitsIT_E6ScalarEEEKS4_KSB_EERKNS0_ISB_EE, symObjAddr: 0x741C, symBinAddr: 0x10000AC0C, symSize: 0x214 }
  - { offsetInCU: 0xCEF37, offset: 0xCEF37, size: 0x8, addend: 0x0, symName: __ZNK5Eigen9ArrayBaseINS_13CwiseBinaryOpINS_8internal17scalar_product_opIddEEKNS_12ArrayWrapperINS_6MatrixIdLin1ELin1ELi0ELin1ELin1EEEEES9_EEEplIS8_EEKNS1_INS2_13scalar_sum_opIdNS2_6traitsIT_E6ScalarEEEKSA_KSF_EERKNS0_ISF_EE, symObjAddr: 0x7630, symBinAddr: 0x10000AE20, symSize: 0x214 }
  - { offsetInCU: 0xCEF7B, offset: 0xCEF7B, size: 0x8, addend: 0x0, symName: __ZN5Eigen6MatrixIdLin1ELin1ELi0ELin1ELin1EEC1INS_13CwiseBinaryOpINS_8internal13scalar_sum_opIddEEKNS3_INS4_17scalar_product_opIddEEKNS_12ArrayWrapperIS1_EESB_EESB_EEEERKNS_9EigenBaseIT_EE, symObjAddr: 0x7844, symBinAddr: 0x10000B034, symSize: 0x34 }
  - { offsetInCU: 0xCEFBD, offset: 0xCEFBD, size: 0x8, addend: 0x0, symName: _main, symObjAddr: 0x7878, symBinAddr: 0x10000B068, symSize: 0x850 }
  - { offsetInCU: 0xCF097, offset: 0xCF097, size: 0x8, addend: 0x0, symName: __ZN5Eigen6MatrixIdLin1ELin1ELi0ELin1ELin1EEC1IiiEERKT_RKT0_, symObjAddr: 0x80C8, symBinAddr: 0x10000B8B8, symSize: 0x3C }
  - { offsetInCU: 0xCF0F1, offset: 0xCF0F1, size: 0x8, addend: 0x0, symName: __ZN5Eigen9DenseBaseINS_6MatrixIdLin1ELin1ELi0ELin1ELin1EEEE9setRandomEv, symObjAddr: 0x8104, symBinAddr: 0x10000B8F4, symSize: 0x240 }
  - { offsetInCU: 0xCF1C8, offset: 0xCF1C8, size: 0x8, addend: 0x0, symName: __ZN11TransformerC1Eiiii, symObjAddr: 0x8344, symBinAddr: 0x10000BB34, symSize: 0x4C }
  - { offsetInCU: 0xCF22E, offset: 0xCF22E, size: 0x8, addend: 0x0, symName: __ZN11TransformerclERKN5Eigen6MatrixIdLin1ELin1ELi0ELin1ELin1EEES4_, symObjAddr: 0x8390, symBinAddr: 0x10000BB80, symSize: 0x614 }
  - { offsetInCU: 0xCF2CD, offset: 0xCF2CD, size: 0x8, addend: 0x0, symName: __ZN11TransformerD1Ev, symObjAddr: 0x90C8, symBinAddr: 0x10000C8B8, symSize: 0x2C }
  - { offsetInCU: 0xCF2FA, offset: 0xCF2FA, size: 0x8, addend: 0x0, symName: __ZN5Eigen8internal8FixedIntILi1EEC1Ev, symObjAddr: 0x90F4, symBinAddr: 0x10000C8E4, symSize: 0x2C }
  - { offsetInCU: 0xCF324, offset: 0xCF324, size: 0x8, addend: 0x0, symName: __ZN5Eigen8internal8FixedIntILi0EEC1Ev, symObjAddr: 0x9120, symBinAddr: 0x10000C910, symSize: 0x2C }
  - { offsetInCU: 0xCF34E, offset: 0xCF34E, size: 0x8, addend: 0x0, symName: __ZN5Eigen8internal8FixedIntILi2EEC1Ev, symObjAddr: 0x914C, symBinAddr: 0x10000C93C, symSize: 0x2C }
  - { offsetInCU: 0xCF378, offset: 0xCF378, size: 0x8, addend: 0x0, symName: __ZN5Eigen8internal8FixedIntILi3EEC1Ev, symObjAddr: 0x9178, symBinAddr: 0x10000C968, symSize: 0x2C }
  - { offsetInCU: 0xCF3A2, offset: 0xCF3A2, size: 0x8, addend: 0x0, symName: __ZN5Eigen8internal5all_tC2Ev, symObjAddr: 0x91A4, symBinAddr: 0x10000C994, symSize: 0x14 }
  - { offsetInCU: 0xCF3CC, offset: 0xCF3CC, size: 0x8, addend: 0x0, symName: __ZNK5Eigen12DenseStorageIdLin1ELin1ELin1ELi0EE4rowsEv, symObjAddr: 0x91B8, symBinAddr: 0x10000C9A8, symSize: 0x64 }
  - { offsetInCU: 0xCF3F2, offset: 0xCF3F2, size: 0x8, addend: 0x0, symName: __ZNK5Eigen12DenseStorageIdLin1ELin1ELin1ELi0EE4colsEv, symObjAddr: 0x921C, symBinAddr: 0x10000CA0C, symSize: 0x64 }
  - { offsetInCU: 0xCF418, offset: 0xCF418, size: 0x8, addend: 0x0, symName: __ZNK5Eigen12DenseStorageIdLin1ELin1ELi1ELi0EE4rowsEv, symObjAddr: 0x9280, symBinAddr: 0x10000CA70, symSize: 0x64 }
  - { offsetInCU: 0xCF43E, offset: 0xCF43E, size: 0x8, addend: 0x0, symName: __ZN5Eigen12DenseStorageIdLin1ELin1ELi1ELi0EE4colsEv, symObjAddr: 0x92E4, symBinAddr: 0x10000CAD4, symSize: 0x8 }
  - { offsetInCU: 0xCF452, offset: 0xCF452, size: 0x8, addend: 0x0, symName: __ZN5Eigen6MatrixIdLin1ELin1ELi0ELin1ELin1EED2Ev, symObjAddr: 0x92F8, symBinAddr: 0x10000CAE8, symSize: 0x2C }
  - { offsetInCU: 0xCF47E, offset: 0xCF47E, size: 0x8, addend: 0x0, symName: __ZN5Eigen15PlainObjectBaseINS_6MatrixIdLin1ELin1ELi0ELin1ELin1EEEED2Ev, symObjAddr: 0x9324, symBinAddr: 0x10000CB14, symSize: 0x2C }
  - { offsetInCU: 0xCF4AA, offset: 0xCF4AA, size: 0x8, addend: 0x0, symName: __ZN5Eigen12DenseStorageIdLin1ELin1ELin1ELi0EED1Ev, symObjAddr: 0x9350, symBinAddr: 0x10000CB40, symSize: 0x2C }
  - { offsetInCU: 0xCF4D4, offset: 0xCF4D4, size: 0x8, addend: 0x0, symName: __ZN5Eigen12DenseStorageIdLin1ELin1ELin1ELi0EED2Ev, symObjAddr: 0x937C, symBinAddr: 0x10000CB6C, symSize: 0x104 }
  - { offsetInCU: 0xCF4FE, offset: 0xCF4FE, size: 0x8, addend: 0x0, symName: __ZN5Eigen6MatrixIdLin1ELi1ELi0ELin1ELi1EED2Ev, symObjAddr: 0x94F0, symBinAddr: 0x10000CCE0, symSize: 0x2C }
  - { offsetInCU: 0xCF52A, offset: 0xCF52A, size: 0x8, addend: 0x0, symName: __ZN5Eigen15PlainObjectBaseINS_6MatrixIdLin1ELi1ELi0ELin1ELi1EEEED2Ev, symObjAddr: 0x951C, symBinAddr: 0x10000CD0C, symSize: 0x2C }
  - { offsetInCU: 0xCF556, offset: 0xCF556, size: 0x8, addend: 0x0, symName: __ZN5Eigen12DenseStorageIdLin1ELin1ELi1ELi0EED1Ev, symObjAddr: 0x9548, symBinAddr: 0x10000CD38, symSize: 0x2C }
  - { offsetInCU: 0xCF580, offset: 0xCF580, size: 0x8, addend: 0x0, symName: __ZN5Eigen12DenseStorageIdLin1ELin1ELi1ELi0EED2Ev, symObjAddr: 0x9574, symBinAddr: 0x10000CD64, symSize: 0xC8 }
  - { offsetInCU: 0xCF5AA, offset: 0xCF5AA, size: 0x8, addend: 0x0, symName: __ZNK5Eigen9EigenBaseINS_6MatrixIdLin1ELi1ELi0ELin1ELi1EEEE4rowsEv, symObjAddr: 0x963C, symBinAddr: 0x10000CE2C, symSize: 0x44 }
  - { offsetInCU: 0xCF5D0, offset: 0xCF5D0, size: 0x8, addend: 0x0, symName: __ZNK5Eigen9EigenBaseINS_6MatrixIdLin1ELi1ELi0ELin1ELi1EEEE4colsEv, symObjAddr: 0x9680, symBinAddr: 0x10000CE70, symSize: 0x28 }
  - { offsetInCU: 0xCF5F6, offset: 0xCF5F6, size: 0x8, addend: 0x0, symName: __ZNK5Eigen9EigenBaseINS_6MatrixIdLin1ELi1ELi0ELin1ELi1EEEE7derivedEv, symObjAddr: 0x96A8, symBinAddr: 0x10000CE98, symSize: 0x14 }
  - { offsetInCU: 0xCF61C, offset: 0xCF61C, size: 0x8, addend: 0x0, symName: __ZN11TransformerC2Eiiii, symObjAddr: 0x96BC, symBinAddr: 0x10000CEAC, symSize: 0x6F8 }
  - { offsetInCU: 0xCF6A5, offset: 0xCF6A5, size: 0x8, addend: 0x0, symName: __ZNSt3__16vectorI23TransformerEncoderLayerNS_9allocatorIS1_EEEC1B8ue170006Ev, symObjAddr: 0x9DB4, symBinAddr: 0x10000D5A4, symSize: 0x2C }
  - { offsetInCU: 0xCF6CF, offset: 0xCF6CF, size: 0x8, addend: 0x0, symName: __ZNSt3__16vectorI23TransformerDecoderLayerNS_9allocatorIS1_EEEC1B8ue170006Ev, symObjAddr: 0x9DE0, symBinAddr: 0x10000D5D0, symSize: 0x2C }
  - { offsetInCU: 0xCF6F9, offset: 0xCF6F9, size: 0x8, addend: 0x0, symName: __ZNSt3__16vectorI23TransformerEncoderLayerNS_9allocatorIS1_EEE9push_backB8ue170006EOS1_, symObjAddr: 0x9E0C, symBinAddr: 0x10000D5FC, symSize: 0xE0 }
  - { offsetInCU: 0xCF730, offset: 0xCF730, size: 0x8, addend: 0x0, symName: __ZN23TransformerEncoderLayerC1Eiii, symObjAddr: 0x9EEC, symBinAddr: 0x10000D6DC, symSize: 0x44 }
  - { offsetInCU: 0xCF784, offset: 0xCF784, size: 0x8, addend: 0x0, symName: __ZN23TransformerEncoderLayerD1Ev, symObjAddr: 0x9F30, symBinAddr: 0x10000D720, symSize: 0x2C }
  - { offsetInCU: 0xCF7B0, offset: 0xCF7B0, size: 0x8, addend: 0x0, symName: __ZNSt3__16vectorI23TransformerDecoderLayerNS_9allocatorIS1_EEE9push_backB8ue170006EOS1_, symObjAddr: 0x9F5C, symBinAddr: 0x10000D74C, symSize: 0xE0 }
  - { offsetInCU: 0xCF7E7, offset: 0xCF7E7, size: 0x8, addend: 0x0, symName: __ZN23TransformerDecoderLayerC1Eiii, symObjAddr: 0xA03C, symBinAddr: 0x10000D82C, symSize: 0x44 }
  - { offsetInCU: 0xCF83B, offset: 0xCF83B, size: 0x8, addend: 0x0, symName: __ZN23TransformerDecoderLayerD1Ev, symObjAddr: 0xA080, symBinAddr: 0x10000D870, symSize: 0x2C }
  - { offsetInCU: 0xCF867, offset: 0xCF867, size: 0x8, addend: 0x0, symName: __ZNSt3__16vectorI23TransformerDecoderLayerNS_9allocatorIS1_EEED1B8ue170006Ev, symObjAddr: 0xA0AC, symBinAddr: 0x10000D89C, symSize: 0x2C }
  - { offsetInCU: 0xCF891, offset: 0xCF891, size: 0x8, addend: 0x0, symName: __ZNSt3__16vectorI23TransformerEncoderLayerNS_9allocatorIS1_EEED1B8ue170006Ev, symObjAddr: 0xA0D8, symBinAddr: 0x10000D8C8, symSize: 0x2C }
  - { offsetInCU: 0xCF8BB, offset: 0xCF8BB, size: 0x8, addend: 0x0, symName: __ZNSt3__16vectorI23TransformerEncoderLayerNS_9allocatorIS1_EEEC2B8ue170006Ev, symObjAddr: 0xA104, symBinAddr: 0x10000D8F4, symSize: 0x2E8 }
  - { offsetInCU: 0xCF8F2, offset: 0xCF8F2, size: 0x8, addend: 0x0, symName: __ZNSt3__117__compressed_pairIP23TransformerEncoderLayerNS_9allocatorIS1_EEEC1B8ue170006IDnNS_18__default_init_tagEEEOT_OT0_, symObjAddr: 0xA3EC, symBinAddr: 0x10000DBDC, symSize: 0x3C }
  - { offsetInCU: 0xCF94A, offset: 0xCF94A, size: 0x8, addend: 0x0, symName: __ZNSt3__117__compressed_pairIP23TransformerEncoderLayerNS_9allocatorIS1_EEEC2B8ue170006IDnNS_18__default_init_tagEEEOT_OT0_, symObjAddr: 0xA428, symBinAddr: 0x10000DC18, symSize: 0x40 }
  - { offsetInCU: 0xCF9A2, offset: 0xCF9A2, size: 0x8, addend: 0x0, symName: __ZNSt3__122__compressed_pair_elemIP23TransformerEncoderLayerLi0ELb0EEC2B8ue170006IDnvEEOT_, symObjAddr: 0xA468, symBinAddr: 0x10000DC58, symSize: 0x64 }
  - { offsetInCU: 0xCF9E4, offset: 0xCF9E4, size: 0x8, addend: 0x0, symName: __ZNSt3__122__compressed_pair_elemINS_9allocatorI23TransformerEncoderLayerEELi1ELb1EEC2B8ue170006ENS_18__default_init_tagE, symObjAddr: 0xA4CC, symBinAddr: 0x10000DCBC, symSize: 0x2C }
  - { offsetInCU: 0xCFA18, offset: 0xCFA18, size: 0x8, addend: 0x0, symName: __ZNSt3__19allocatorI23TransformerEncoderLayerEC2B8ue170006Ev, symObjAddr: 0xA4F8, symBinAddr: 0x10000DCE8, symSize: 0x2C }
  - { offsetInCU: 0xCFA42, offset: 0xCFA42, size: 0x8, addend: 0x0, symName: __ZNSt3__116__non_trivial_ifILb1ENS_9allocatorI23TransformerEncoderLayerEEEC2B8ue170006Ev, symObjAddr: 0xA524, symBinAddr: 0x10000DD14, symSize: 0x14 }
  - { offsetInCU: 0xCFA6C, offset: 0xCFA6C, size: 0x8, addend: 0x0, symName: __ZNSt3__16vectorI23TransformerDecoderLayerNS_9allocatorIS1_EEEC2B8ue170006Ev, symObjAddr: 0xA538, symBinAddr: 0x10000DD28, symSize: 0x2E8 }
  - { offsetInCU: 0xCFA97, offset: 0xCFA97, size: 0x8, addend: 0x0, symName: __ZNSt3__117__compressed_pairIP23TransformerDecoderLayerNS_9allocatorIS1_EEEC1B8ue170006IDnNS_18__default_init_tagEEEOT_OT0_, symObjAddr: 0xA820, symBinAddr: 0x10000E010, symSize: 0x3C }
  - { offsetInCU: 0xCFAEF, offset: 0xCFAEF, size: 0x8, addend: 0x0, symName: __ZNSt3__117__compressed_pairIP23TransformerDecoderLayerNS_9allocatorIS1_EEEC2B8ue170006IDnNS_18__default_init_tagEEEOT_OT0_, symObjAddr: 0xA85C, symBinAddr: 0x10000E04C, symSize: 0x40 }
  - { offsetInCU: 0xCFB47, offset: 0xCFB47, size: 0x8, addend: 0x0, symName: __ZNSt3__122__compressed_pair_elemIP23TransformerDecoderLayerLi0ELb0EEC2B8ue170006IDnvEEOT_, symObjAddr: 0xA89C, symBinAddr: 0x10000E08C, symSize: 0x64 }
  - { offsetInCU: 0xCFB89, offset: 0xCFB89, size: 0x8, addend: 0x0, symName: __ZNSt3__122__compressed_pair_elemINS_9allocatorI23TransformerDecoderLayerEELi1ELb1EEC2B8ue170006ENS_18__default_init_tagE, symObjAddr: 0xA900, symBinAddr: 0x10000E0F0, symSize: 0x2C }
  - { offsetInCU: 0xCFBBD, offset: 0xCFBBD, size: 0x8, addend: 0x0, symName: __ZNSt3__19allocatorI23TransformerDecoderLayerEC2B8ue170006Ev, symObjAddr: 0xA92C, symBinAddr: 0x10000E11C, symSize: 0x2C }
  - { offsetInCU: 0xCFBE7, offset: 0xCFBE7, size: 0x8, addend: 0x0, symName: __ZNSt3__116__non_trivial_ifILb1ENS_9allocatorI23TransformerDecoderLayerEEEC2B8ue170006Ev, symObjAddr: 0xA958, symBinAddr: 0x10000E148, symSize: 0x14 }
  - { offsetInCU: 0xCFC11, offset: 0xCFC11, size: 0x8, addend: 0x0, symName: __ZNSt3__16vectorI23TransformerEncoderLayerNS_9allocatorIS1_EEE9__end_capB8ue170006Ev, symObjAddr: 0xA96C, symBinAddr: 0x10000E15C, symSize: 0x28 }
  - { offsetInCU: 0xCFC3D, offset: 0xCFC3D, size: 0x8, addend: 0x0, symName: __ZNSt3__16vectorI23TransformerEncoderLayerNS_9allocatorIS1_EEE22__construct_one_at_endB8ue170006IJS1_EEEvDpOT_, symObjAddr: 0xA994, symBinAddr: 0x10000E184, symSize: 0x36C }
  - { offsetInCU: 0xCFC92, offset: 0xCFC92, size: 0x8, addend: 0x0, symName: __ZNSt3__16vectorI23TransformerEncoderLayerNS_9allocatorIS1_EEE21__push_back_slow_pathIS1_EEvOT_, symObjAddr: 0xAD00, symBinAddr: 0x10000E4F0, symSize: 0x3C0 }
  - { offsetInCU: 0xCFCF7, offset: 0xCFCF7, size: 0x8, addend: 0x0, symName: __ZNSt3__117__compressed_pairIP23TransformerEncoderLayerNS_9allocatorIS1_EEE5firstB8ue170006Ev, symObjAddr: 0xB0C0, symBinAddr: 0x10000E8B0, symSize: 0x24 }
  - { offsetInCU: 0xCFD1D, offset: 0xCFD1D, size: 0x8, addend: 0x0, symName: __ZNSt3__122__compressed_pair_elemIP23TransformerEncoderLayerLi0ELb0EE5__getB8ue170006Ev, symObjAddr: 0xB0E4, symBinAddr: 0x10000E8D4, symSize: 0x14 }
  - { offsetInCU: 0xCFD5C, offset: 0xCFD5C, size: 0x8, addend: 0x0, symName: __ZNSt3__16vectorI23TransformerEncoderLayerNS_9allocatorIS1_EEE21_ConstructTransactionC1B8ue170006ERS4_m, symObjAddr: 0xB0F8, symBinAddr: 0x10000E8E8, symSize: 0x3C }
  - { offsetInCU: 0xCFDA4, offset: 0xCFDA4, size: 0x8, addend: 0x0, symName: __ZNSt3__116allocator_traitsINS_9allocatorI23TransformerEncoderLayerEEE9constructB8ue170006IS2_JS2_EvEEvRS3_PT_DpOT0_, symObjAddr: 0xB134, symBinAddr: 0x10000E924, symSize: 0x34 }
  - { offsetInCU: 0xCFDFB, offset: 0xCFDFB, size: 0x8, addend: 0x0, symName: __ZNSt3__16vectorI23TransformerEncoderLayerNS_9allocatorIS1_EEE7__allocB8ue170006Ev, symObjAddr: 0xB168, symBinAddr: 0x10000E958, symSize: 0x28 }
  - { offsetInCU: 0xCFE21, offset: 0xCFE21, size: 0x8, addend: 0x0, symName: __ZNSt3__16vectorI23TransformerEncoderLayerNS_9allocatorIS1_EEE21_ConstructTransactionD1B8ue170006Ev, symObjAddr: 0xB1A4, symBinAddr: 0x10000E994, symSize: 0x2C }
  - { offsetInCU: 0xCFE4B, offset: 0xCFE4B, size: 0x8, addend: 0x0, symName: __ZNSt3__16vectorI23TransformerEncoderLayerNS_9allocatorIS1_EEE21_ConstructTransactionC2B8ue170006ERS4_m, symObjAddr: 0xB1D0, symBinAddr: 0x10000E9C0, symSize: 0x1D8 }
  - { offsetInCU: 0xCFE93, offset: 0xCFE93, size: 0x8, addend: 0x0, symName: __ZNKSt3__16vectorI23TransformerEncoderLayerNS_9allocatorIS1_EEE19__annotate_increaseB8ue170006Em, symObjAddr: 0xB3A8, symBinAddr: 0x10000EB98, symSize: 0xF8 }
  - { offsetInCU: 0xCFEC8, offset: 0xCFEC8, size: 0x8, addend: 0x0, symName: __ZNKSt3__16vectorI23TransformerEncoderLayerNS_9allocatorIS1_EEE31__annotate_contiguous_containerEPKvS6_S6_S6_, symObjAddr: 0xB4A0, symBinAddr: 0x10000EC90, symSize: 0x58 }
  - { offsetInCU: 0xCFF2A, offset: 0xCFF2A, size: 0x8, addend: 0x0, symName: __ZNKSt3__16vectorI23TransformerEncoderLayerNS_9allocatorIS1_EEE4dataB8ue170006Ev, symObjAddr: 0xB4F8, symBinAddr: 0x10000ECE8, symSize: 0x64 }
  - { offsetInCU: 0xCFF50, offset: 0xCFF50, size: 0x8, addend: 0x0, symName: __ZNKSt3__16vectorI23TransformerEncoderLayerNS_9allocatorIS1_EEE8capacityB8ue170006Ev, symObjAddr: 0xB55C, symBinAddr: 0x10000ED4C, symSize: 0xBC }
  - { offsetInCU: 0xCFF76, offset: 0xCFF76, size: 0x8, addend: 0x0, symName: __ZNKSt3__16vectorI23TransformerEncoderLayerNS_9allocatorIS1_EEE4sizeB8ue170006Ev, symObjAddr: 0xB618, symBinAddr: 0x10000EE08, symSize: 0xB0 }
  - { offsetInCU: 0xCFF9C, offset: 0xCFF9C, size: 0x8, addend: 0x0, symName: __ZNKSt3__16vectorI23TransformerEncoderLayerNS_9allocatorIS1_EEE9__end_capB8ue170006Ev, symObjAddr: 0xB6C8, symBinAddr: 0x10000EEB8, symSize: 0x28 }
  - { offsetInCU: 0xCFFC2, offset: 0xCFFC2, size: 0x8, addend: 0x0, symName: __ZNKSt3__117__compressed_pairIP23TransformerEncoderLayerNS_9allocatorIS1_EEE5firstB8ue170006Ev, symObjAddr: 0xB6F0, symBinAddr: 0x10000EEE0, symSize: 0x24 }
  - { offsetInCU: 0xCFFE8, offset: 0xCFFE8, size: 0x8, addend: 0x0, symName: __ZNKSt3__122__compressed_pair_elemIP23TransformerEncoderLayerLi0ELb0EE5__getB8ue170006Ev, symObjAddr: 0xB714, symBinAddr: 0x10000EF04, symSize: 0x14 }
  - { offsetInCU: 0xD000E, offset: 0xD000E, size: 0x8, addend: 0x0, symName: __ZNSt3__19allocatorI23TransformerEncoderLayerE9constructB8ue170006IS1_JS1_EEEvPT_DpOT0_, symObjAddr: 0xB728, symBinAddr: 0x10000EF18, symSize: 0x30 }
  - { offsetInCU: 0xD0064, offset: 0xD0064, size: 0x8, addend: 0x0, symName: __ZN23TransformerEncoderLayerC1EOS_, symObjAddr: 0xB758, symBinAddr: 0x10000EF48, symSize: 0x34 }
  - { offsetInCU: 0xD0099, offset: 0xD0099, size: 0x8, addend: 0x0, symName: __ZN23TransformerEncoderLayerC2EOS_, symObjAddr: 0xB78C, symBinAddr: 0x10000EF7C, symSize: 0xC4 }
  - { offsetInCU: 0xD00D4, offset: 0xD00D4, size: 0x8, addend: 0x0, symName: __ZN18MultiHeadAttentionC1EOS_, symObjAddr: 0xB850, symBinAddr: 0x10000F040, symSize: 0x34 }
  - { offsetInCU: 0xD0109, offset: 0xD0109, size: 0x8, addend: 0x0, symName: __ZN5Eigen6MatrixIdLin1ELin1ELi0ELin1ELin1EEC1EOS1_, symObjAddr: 0xB884, symBinAddr: 0x10000F074, symSize: 0x34 }
  - { offsetInCU: 0xD0142, offset: 0xD0142, size: 0x8, addend: 0x0, symName: __ZN5Eigen6MatrixIdLin1ELi1ELi0ELin1ELi1EEC1EOS1_, symObjAddr: 0xB8B8, symBinAddr: 0x10000F0A8, symSize: 0x34 }
  - { offsetInCU: 0xD017B, offset: 0xD017B, size: 0x8, addend: 0x0, symName: __ZN18MultiHeadAttentionC2EOS_, symObjAddr: 0xB8EC, symBinAddr: 0x10000F0DC, symSize: 0x88 }
  - { offsetInCU: 0xD01B0, offset: 0xD01B0, size: 0x8, addend: 0x0, symName: __ZNSt3__16vectorIN5Eigen6MatrixIdLin1ELin1ELi0ELin1ELin1EEENS_9allocatorIS3_EEEC1B8ue170006EOS6_, symObjAddr: 0xB974, symBinAddr: 0x10000F164, symSize: 0x34 }
  - { offsetInCU: 0xD01EB, offset: 0xD01EB, size: 0x8, addend: 0x0, symName: __ZNSt3__16vectorIN5Eigen6MatrixIdLin1ELin1ELi0ELin1ELin1EEENS_9allocatorIS3_EEEC2B8ue170006EOS6_, symObjAddr: 0xB9A8, symBinAddr: 0x10000F198, symSize: 0x4F4 }
  - { offsetInCU: 0xD0228, offset: 0xD0228, size: 0x8, addend: 0x0, symName: __ZNSt3__16vectorIN5Eigen6MatrixIdLin1ELin1ELi0ELin1ELin1EEENS_9allocatorIS3_EEE7__allocB8ue170006Ev, symObjAddr: 0xBE9C, symBinAddr: 0x10000F68C, symSize: 0x28 }
  - { offsetInCU: 0xD0254, offset: 0xD0254, size: 0x8, addend: 0x0, symName: __ZNSt3__117__compressed_pairIPN5Eigen6MatrixIdLin1ELin1ELi0ELin1ELin1EEENS_9allocatorIS3_EEEC1B8ue170006IDnS6_EEOT_OT0_, symObjAddr: 0xBEC4, symBinAddr: 0x10000F6B4, symSize: 0x3C }
  - { offsetInCU: 0xD02AC, offset: 0xD02AC, size: 0x8, addend: 0x0, symName: __ZNSt3__16vectorIN5Eigen6MatrixIdLin1ELin1ELi0ELin1ELin1EEENS_9allocatorIS3_EEE9__end_capB8ue170006Ev, symObjAddr: 0xBF00, symBinAddr: 0x10000F6F0, symSize: 0x28 }
  - { offsetInCU: 0xD02D2, offset: 0xD02D2, size: 0x8, addend: 0x0, symName: __ZNSt3__117__compressed_pairIPN5Eigen6MatrixIdLin1ELin1ELi0ELin1ELin1EEENS_9allocatorIS3_EEE6secondB8ue170006Ev, symObjAddr: 0xBF28, symBinAddr: 0x10000F718, symSize: 0x24 }
  - { offsetInCU: 0xD02F8, offset: 0xD02F8, size: 0x8, addend: 0x0, symName: __ZNSt3__122__compressed_pair_elemINS_9allocatorIN5Eigen6MatrixIdLin1ELin1ELi0ELin1ELin1EEEEELi1ELb1EE5__getB8ue170006Ev, symObjAddr: 0xBF4C, symBinAddr: 0x10000F73C, symSize: 0x14 }
  - { offsetInCU: 0xD031E, offset: 0xD031E, size: 0x8, addend: 0x0, symName: __ZNSt3__117__compressed_pairIPN5Eigen6MatrixIdLin1ELin1ELi0ELin1ELin1EEENS_9allocatorIS3_EEEC2B8ue170006IDnS6_EEOT_OT0_, symObjAddr: 0xBF60, symBinAddr: 0x10000F750, symSize: 0x44 }
  - { offsetInCU: 0xD0376, offset: 0xD0376, size: 0x8, addend: 0x0, symName: __ZNSt3__122__compressed_pair_elemIPN5Eigen6MatrixIdLin1ELin1ELi0ELin1ELin1EEELi0ELb0EEC2B8ue170006IDnvEEOT_, symObjAddr: 0xBFA4, symBinAddr: 0x10000F794, symSize: 0x64 }
  - { offsetInCU: 0xD03B8, offset: 0xD03B8, size: 0x8, addend: 0x0, symName: __ZNSt3__122__compressed_pair_elemINS_9allocatorIN5Eigen6MatrixIdLin1ELin1ELi0ELin1ELin1EEEEELi1ELb1EEC2B8ue170006IS5_vEEOT_, symObjAddr: 0xC008, symBinAddr: 0x10000F7F8, symSize: 0x18 }
  - { offsetInCU: 0xD03FA, offset: 0xD03FA, size: 0x8, addend: 0x0, symName: __ZNSt3__117__compressed_pairIPN5Eigen6MatrixIdLin1ELin1ELi0ELin1ELin1EEENS_9allocatorIS3_EEE5firstB8ue170006Ev, symObjAddr: 0xC020, symBinAddr: 0x10000F810, symSize: 0x24 }
  - { offsetInCU: 0xD0420, offset: 0xD0420, size: 0x8, addend: 0x0, symName: __ZNSt3__122__compressed_pair_elemIPN5Eigen6MatrixIdLin1ELin1ELi0ELin1ELin1EEELi0ELb0EE5__getB8ue170006Ev, symObjAddr: 0xC044, symBinAddr: 0x10000F834, symSize: 0x14 }
  - { offsetInCU: 0xD0446, offset: 0xD0446, size: 0x8, addend: 0x0, symName: __ZN5Eigen6MatrixIdLin1ELin1ELi0ELin1ELin1EEC2EOS1_, symObjAddr: 0xC058, symBinAddr: 0x10000F848, symSize: 0x4C }
  - { offsetInCU: 0xD047F, offset: 0xD047F, size: 0x8, addend: 0x0, symName: __ZN5Eigen15PlainObjectBaseINS_6MatrixIdLin1ELin1ELi0ELin1ELin1EEEEC2EOS3_, symObjAddr: 0xC0A4, symBinAddr: 0x10000F894, symSize: 0x50 }
  - { offsetInCU: 0xD04B8, offset: 0xD04B8, size: 0x8, addend: 0x0, symName: __ZN5Eigen15PlainObjectBaseINS_6MatrixIdLin1ELin1ELi0ELin1ELin1EEEE22_check_template_paramsEv, symObjAddr: 0xC0F4, symBinAddr: 0x10000F8E4, symSize: 0x4 }
  - { offsetInCU: 0xD04CC, offset: 0xD04CC, size: 0x8, addend: 0x0, symName: __ZN5Eigen10MatrixBaseINS_6MatrixIdLin1ELin1ELi0ELin1ELin1EEEEC2Ev, symObjAddr: 0xC0F8, symBinAddr: 0x10000F8E8, symSize: 0x2C }
  - { offsetInCU: 0xD04F6, offset: 0xD04F6, size: 0x8, addend: 0x0, symName: __ZN5Eigen12DenseStorageIdLin1ELin1ELin1ELi0EEC1EOS1_, symObjAddr: 0xC124, symBinAddr: 0x10000F914, symSize: 0x34 }
  - { offsetInCU: 0xD052F, offset: 0xD052F, size: 0x8, addend: 0x0, symName: __ZN5Eigen9DenseBaseINS_6MatrixIdLin1ELin1ELi0ELin1ELin1EEEEC2Ev, symObjAddr: 0xC158, symBinAddr: 0x10000F948, symSize: 0x14 }
  - { offsetInCU: 0xD0559, offset: 0xD0559, size: 0x8, addend: 0x0, symName: __ZN5Eigen12DenseStorageIdLin1ELin1ELin1ELi0EEC2EOS1_, symObjAddr: 0xC16C, symBinAddr: 0x10000F95C, symSize: 0x280 }
  - { offsetInCU: 0xD0592, offset: 0xD0592, size: 0x8, addend: 0x0, symName: __ZN5Eigen6MatrixIdLin1ELi1ELi0ELin1ELi1EEC2EOS1_, symObjAddr: 0xC3EC, symBinAddr: 0x10000FBDC, symSize: 0x4C }
  - { offsetInCU: 0xD05CB, offset: 0xD05CB, size: 0x8, addend: 0x0, symName: __ZN5Eigen15PlainObjectBaseINS_6MatrixIdLin1ELi1ELi0ELin1ELi1EEEEC2EOS3_, symObjAddr: 0xC438, symBinAddr: 0x10000FC28, symSize: 0x50 }
  - { offsetInCU: 0xD0604, offset: 0xD0604, size: 0x8, addend: 0x0, symName: __ZN5Eigen15PlainObjectBaseINS_6MatrixIdLin1ELi1ELi0ELin1ELi1EEEE22_check_template_paramsEv, symObjAddr: 0xC488, symBinAddr: 0x10000FC78, symSize: 0x4 }
  - { offsetInCU: 0xD0618, offset: 0xD0618, size: 0x8, addend: 0x0, symName: __ZN5Eigen10MatrixBaseINS_6MatrixIdLin1ELi1ELi0ELin1ELi1EEEEC2Ev, symObjAddr: 0xC48C, symBinAddr: 0x10000FC7C, symSize: 0x2C }
  - { offsetInCU: 0xD0642, offset: 0xD0642, size: 0x8, addend: 0x0, symName: __ZN5Eigen12DenseStorageIdLin1ELin1ELi1ELi0EEC1EOS1_, symObjAddr: 0xC4B8, symBinAddr: 0x10000FCA8, symSize: 0x34 }
  - { offsetInCU: 0xD067B, offset: 0xD067B, size: 0x8, addend: 0x0, symName: __ZN5Eigen9DenseBaseINS_6MatrixIdLin1ELi1ELi0ELin1ELi1EEEEC2Ev, symObjAddr: 0xC4EC, symBinAddr: 0x10000FCDC, symSize: 0x14 }
  - { offsetInCU: 0xD06A5, offset: 0xD06A5, size: 0x8, addend: 0x0, symName: __ZN5Eigen12DenseStorageIdLin1ELin1ELi1ELi0EEC2EOS1_, symObjAddr: 0xC500, symBinAddr: 0x10000FCF0, symSize: 0x1B8 }
  - { offsetInCU: 0xD06DE, offset: 0xD06DE, size: 0x8, addend: 0x0, symName: __ZNSt3__117__compressed_pairIP23TransformerEncoderLayerNS_9allocatorIS1_EEE6secondB8ue170006Ev, symObjAddr: 0xC6B8, symBinAddr: 0x10000FEA8, symSize: 0x24 }
  - { offsetInCU: 0xD0704, offset: 0xD0704, size: 0x8, addend: 0x0, symName: __ZNSt3__122__compressed_pair_elemINS_9allocatorI23TransformerEncoderLayerEELi1ELb1EE5__getB8ue170006Ev, symObjAddr: 0xC6DC, symBinAddr: 0x10000FECC, symSize: 0x14 }
  - { offsetInCU: 0xD072A, offset: 0xD072A, size: 0x8, addend: 0x0, symName: __ZNSt3__16vectorI23TransformerEncoderLayerNS_9allocatorIS1_EEE21_ConstructTransactionD2B8ue170006Ev, symObjAddr: 0xC6F0, symBinAddr: 0x10000FEE0, symSize: 0x278 }
  - { offsetInCU: 0xD0754, offset: 0xD0754, size: 0x8, addend: 0x0, symName: __ZNKSt3__16vectorI23TransformerEncoderLayerNS_9allocatorIS1_EEE17__annotate_shrinkB8ue170006Em, symObjAddr: 0xC968, symBinAddr: 0x100010158, symSize: 0xE4 }
  - { offsetInCU: 0xD0789, offset: 0xD0789, size: 0x8, addend: 0x0, symName: __ZNKSt3__16vectorI23TransformerEncoderLayerNS_9allocatorIS1_EEE11__recommendB8ue170006Em, symObjAddr: 0xCA4C, symBinAddr: 0x10001023C, symSize: 0x384 }
  - { offsetInCU: 0xD07E5, offset: 0xD07E5, size: 0x8, addend: 0x0, symName: __ZNSt3__114__split_bufferI23TransformerEncoderLayerRNS_9allocatorIS1_EEEC1EmmS4_, symObjAddr: 0xCDD0, symBinAddr: 0x1000105C0, symSize: 0x44 }
  - { offsetInCU: 0xD083B, offset: 0xD083B, size: 0x8, addend: 0x0, symName: __ZNSt3__114__split_bufferI23TransformerEncoderLayerRNS_9allocatorIS1_EEED1Ev, symObjAddr: 0xD380, symBinAddr: 0x100010B70, symSize: 0x2C }
  - { offsetInCU: 0xD0867, offset: 0xD0867, size: 0x8, addend: 0x0, symName: __ZNKSt3__16vectorI23TransformerEncoderLayerNS_9allocatorIS1_EEE8max_sizeEv, symObjAddr: 0xD3AC, symBinAddr: 0x100010B9C, symSize: 0x2FC }
  - { offsetInCU: 0xD0890, offset: 0xD0890, size: 0x8, addend: 0x0, symName: __ZNKSt3__16vectorI23TransformerEncoderLayerNS_9allocatorIS1_EEE20__throw_length_errorB8ue170006Ev, symObjAddr: 0xD6A8, symBinAddr: 0x100010E98, symSize: 0x20 }
  - { offsetInCU: 0xD08C0, offset: 0xD08C0, size: 0x8, addend: 0x0, symName: __ZNSt3__116allocator_traitsINS_9allocatorI23TransformerEncoderLayerEEE8max_sizeB8ue170006IS3_vEEmRKS3_, symObjAddr: 0xD720, symBinAddr: 0x100010F10, symSize: 0x24 }
  - { offsetInCU: 0xD08EE, offset: 0xD08EE, size: 0x8, addend: 0x0, symName: __ZNKSt3__16vectorI23TransformerEncoderLayerNS_9allocatorIS1_EEE7__allocB8ue170006Ev, symObjAddr: 0xD744, symBinAddr: 0x100010F34, symSize: 0x28 }
  - { offsetInCU: 0xD0914, offset: 0xD0914, size: 0x8, addend: 0x0, symName: __ZNSt3__114numeric_limitsIlE3maxB8ue170006Ev, symObjAddr: 0xD76C, symBinAddr: 0x100010F5C, symSize: 0x14 }
  - { offsetInCU: 0xD093C, offset: 0xD093C, size: 0x8, addend: 0x0, symName: __ZNKSt3__16__lessIvvEclB8ue170006ImmEEbRKT_RKT0_, symObjAddr: 0xD968, symBinAddr: 0x100011158, symSize: 0xBC }
  - { offsetInCU: 0xD0990, offset: 0xD0990, size: 0x8, addend: 0x0, symName: __ZNKSt3__19allocatorI23TransformerEncoderLayerE8max_sizeB8ue170006Ev, symObjAddr: 0xDA24, symBinAddr: 0x100011214, symSize: 0x18 }
  - { offsetInCU: 0xD09B6, offset: 0xD09B6, size: 0x8, addend: 0x0, symName: __ZNKSt3__117__compressed_pairIP23TransformerEncoderLayerNS_9allocatorIS1_EEE6secondB8ue170006Ev, symObjAddr: 0xDA3C, symBinAddr: 0x10001122C, symSize: 0x24 }
  - { offsetInCU: 0xD09DC, offset: 0xD09DC, size: 0x8, addend: 0x0, symName: __ZNKSt3__122__compressed_pair_elemINS_9allocatorI23TransformerEncoderLayerEELi1ELb1EE5__getB8ue170006Ev, symObjAddr: 0xDA60, symBinAddr: 0x100011250, symSize: 0x14 }
  - { offsetInCU: 0xD0A02, offset: 0xD0A02, size: 0x8, addend: 0x0, symName: __ZNSt3__123__libcpp_numeric_limitsIlLb1EE3maxB8ue170006Ev, symObjAddr: 0xDA74, symBinAddr: 0x100011264, symSize: 0x8 }
  - { offsetInCU: 0xD0A16, offset: 0xD0A16, size: 0x8, addend: 0x0, symName: __ZNSt12length_errorC1B8ue170006EPKc, symObjAddr: 0xDAE4, symBinAddr: 0x1000112D4, symSize: 0x34 }
  - { offsetInCU: 0xD0A4E, offset: 0xD0A4E, size: 0x8, addend: 0x0, symName: __ZNSt12length_errorC2B8ue170006EPKc, symObjAddr: 0xDB18, symBinAddr: 0x100011308, symSize: 0x8C }
  - { offsetInCU: 0xD0A86, offset: 0xD0A86, size: 0x8, addend: 0x0, symName: __ZNSt3__114__split_bufferI23TransformerEncoderLayerRNS_9allocatorIS1_EEEC2EmmS4_, symObjAddr: 0xDD8C, symBinAddr: 0x10001157C, symSize: 0x530 }
  - { offsetInCU: 0xD0B01, offset: 0xD0B01, size: 0x8, addend: 0x0, symName: __ZNSt3__117__compressed_pairIP23TransformerEncoderLayerRNS_9allocatorIS1_EEEC1B8ue170006IDnS5_EEOT_OT0_, symObjAddr: 0xE2BC, symBinAddr: 0x100011AAC, symSize: 0x3C }
  - { offsetInCU: 0xD0B59, offset: 0xD0B59, size: 0x8, addend: 0x0, symName: __ZNSt3__114__split_bufferI23TransformerEncoderLayerRNS_9allocatorIS1_EEE7__allocB8ue170006Ev, symObjAddr: 0xE584, symBinAddr: 0x100011D74, symSize: 0x28 }
  - { offsetInCU: 0xD0B7F, offset: 0xD0B7F, size: 0x8, addend: 0x0, symName: __ZNSt3__114__split_bufferI23TransformerEncoderLayerRNS_9allocatorIS1_EEE9__end_capB8ue170006Ev, symObjAddr: 0xE5AC, symBinAddr: 0x100011D9C, symSize: 0x28 }
  - { offsetInCU: 0xD0BA5, offset: 0xD0BA5, size: 0x8, addend: 0x0, symName: __ZNSt3__117__compressed_pairIP23TransformerEncoderLayerRNS_9allocatorIS1_EEEC2B8ue170006IDnS5_EEOT_OT0_, symObjAddr: 0xE5D4, symBinAddr: 0x100011DC4, symSize: 0x48 }
  - { offsetInCU: 0xD0BFD, offset: 0xD0BFD, size: 0x8, addend: 0x0, symName: __ZNSt3__122__compressed_pair_elemIRNS_9allocatorI23TransformerEncoderLayerEELi1ELb0EEC2B8ue170006IS4_vEEOT_, symObjAddr: 0xE61C, symBinAddr: 0x100011E0C, symSize: 0x70 }
  - { offsetInCU: 0xD0C3F, offset: 0xD0C3F, size: 0x8, addend: 0x0, symName: __ZNSt3__19allocatorI23TransformerEncoderLayerE8allocateB8ue170006Em, symObjAddr: 0xE68C, symBinAddr: 0x100011E7C, symSize: 0x60 }
  - { offsetInCU: 0xD0C73, offset: 0xD0C73, size: 0x8, addend: 0x0, symName: __ZNSt3__117__compressed_pairIP23TransformerEncoderLayerRNS_9allocatorIS1_EEE6secondB8ue170006Ev, symObjAddr: 0xE770, symBinAddr: 0x100011F60, symSize: 0x28 }
  - { offsetInCU: 0xD0C99, offset: 0xD0C99, size: 0x8, addend: 0x0, symName: __ZNSt3__122__compressed_pair_elemIRNS_9allocatorI23TransformerEncoderLayerEELi1ELb0EE5__getB8ue170006Ev, symObjAddr: 0xE798, symBinAddr: 0x100011F88, symSize: 0x60 }
  - { offsetInCU: 0xD0CBF, offset: 0xD0CBF, size: 0x8, addend: 0x0, symName: __ZNSt3__117__compressed_pairIP23TransformerEncoderLayerRNS_9allocatorIS1_EEE5firstB8ue170006Ev, symObjAddr: 0xE7F8, symBinAddr: 0x100011FE8, symSize: 0x24 }
  - { offsetInCU: 0xD0CE5, offset: 0xD0CE5, size: 0x8, addend: 0x0, symName: __ZNKSt3__16vectorI23TransformerEncoderLayerNS_9allocatorIS1_EEE17__annotate_deleteB8ue170006Ev, symObjAddr: 0xE81C, symBinAddr: 0x10001200C, symSize: 0xE8 }
  - { offsetInCU: 0xD0D0B, offset: 0xD0D0B, size: 0x8, addend: 0x0, symName: __ZNSt3__116reverse_iteratorIP23TransformerEncoderLayerEC1B8ue170006ES2_, symObjAddr: 0xEE48, symBinAddr: 0x100012638, symSize: 0x34 }
  - { offsetInCU: 0xD0D43, offset: 0xD0D43, size: 0x8, addend: 0x0, symName: __ZNKSt3__116reverse_iteratorIP23TransformerEncoderLayerE4baseB8ue170006Ev, symObjAddr: 0xEE7C, symBinAddr: 0x10001266C, symSize: 0x64 }
  - { offsetInCU: 0xD0D69, offset: 0xD0D69, size: 0x8, addend: 0x0, symName: __ZNKSt3__16vectorI23TransformerEncoderLayerNS_9allocatorIS1_EEE14__annotate_newB8ue170006Em, symObjAddr: 0xF014, symBinAddr: 0x100012804, symSize: 0xDC }
  - { offsetInCU: 0xD0D9E, offset: 0xD0D9E, size: 0x8, addend: 0x0, symName: __ZNSt3__129_AllocatorDestroyRangeReverseINS_9allocatorI23TransformerEncoderLayerEENS_16reverse_iteratorIPS2_EEEC1B8ue170006ERS3_RS6_S9_, symObjAddr: 0xF2E8, symBinAddr: 0x100012AD8, symSize: 0x44 }
  - { offsetInCU: 0xD0DF5, offset: 0xD0DF5, size: 0x8, addend: 0x0, symName: __ZNKSt3__116reverse_iteratorIP23TransformerEncoderLayerEdeB8ue170006Ev, symObjAddr: 0xF398, symBinAddr: 0x100012B88, symSize: 0x74 }
  - { offsetInCU: 0xD0E29, offset: 0xD0E29, size: 0x8, addend: 0x0, symName: __ZNSt3__116reverse_iteratorIP23TransformerEncoderLayerEppB8ue170006Ev, symObjAddr: 0xF40C, symBinAddr: 0x100012BFC, symSize: 0x6C }
  - { offsetInCU: 0xD0E4F, offset: 0xD0E4F, size: 0x8, addend: 0x0, symName: __ZNSt3__128__exception_guard_exceptionsINS_29_AllocatorDestroyRangeReverseINS_9allocatorI23TransformerEncoderLayerEENS_16reverse_iteratorIPS3_EEEEE10__completeB8ue170006Ev, symObjAddr: 0xF478, symBinAddr: 0x100012C68, symSize: 0x8C }
  - { offsetInCU: 0xD0E75, offset: 0xD0E75, size: 0x8, addend: 0x0, symName: __ZNSt3__128__exception_guard_exceptionsINS_29_AllocatorDestroyRangeReverseINS_9allocatorI23TransformerEncoderLayerEENS_16reverse_iteratorIPS3_EEEEED1B8ue170006Ev, symObjAddr: 0xF504, symBinAddr: 0x100012CF4, symSize: 0x2C }
  - { offsetInCU: 0xD0E9F, offset: 0xD0E9F, size: 0x8, addend: 0x0, symName: __ZNSt3__128__exception_guard_exceptionsINS_29_AllocatorDestroyRangeReverseINS_9allocatorI23TransformerEncoderLayerEENS_16reverse_iteratorIPS3_EEEEEC1B8ue170006ES8_, symObjAddr: 0xF530, symBinAddr: 0x100012D20, symSize: 0x34 }
  - { offsetInCU: 0xD0ED8, offset: 0xD0ED8, size: 0x8, addend: 0x0, symName: __ZNSt3__128__exception_guard_exceptionsINS_29_AllocatorDestroyRangeReverseINS_9allocatorI23TransformerEncoderLayerEENS_16reverse_iteratorIPS3_EEEEEC2B8ue170006ES8_, symObjAddr: 0xF564, symBinAddr: 0x100012D54, symSize: 0xA4 }
  - { offsetInCU: 0xD0F11, offset: 0xD0F11, size: 0x8, addend: 0x0, symName: __ZNSt3__129_AllocatorDestroyRangeReverseINS_9allocatorI23TransformerEncoderLayerEENS_16reverse_iteratorIPS2_EEEC2B8ue170006ERS3_RS6_S9_, symObjAddr: 0xF608, symBinAddr: 0x100012DF8, symSize: 0x104 }
  - { offsetInCU: 0xD0F6D, offset: 0xD0F6D, size: 0x8, addend: 0x0, symName: __ZNSt3__119__to_address_helperINS_16reverse_iteratorIP23TransformerEncoderLayerEEvE6__callB8ue170006ERKS4_, symObjAddr: 0xF70C, symBinAddr: 0x100012EFC, symSize: 0x44 }
  - { offsetInCU: 0xD0F90, offset: 0xD0F90, size: 0x8, addend: 0x0, symName: __ZNKSt3__116reverse_iteratorIP23TransformerEncoderLayerEptB8ue170006Ev, symObjAddr: 0xF750, symBinAddr: 0x100012F40, symSize: 0x24 }
  - { offsetInCU: 0xD0FB6, offset: 0xD0FB6, size: 0x8, addend: 0x0, symName: __ZNSt3__128__exception_guard_exceptionsINS_29_AllocatorDestroyRangeReverseINS_9allocatorI23TransformerEncoderLayerEENS_16reverse_iteratorIPS3_EEEEED2B8ue170006Ev, symObjAddr: 0xF774, symBinAddr: 0x100012F64, symSize: 0xBC }
  - { offsetInCU: 0xD0FE0, offset: 0xD0FE0, size: 0x8, addend: 0x0, symName: __ZNKSt3__129_AllocatorDestroyRangeReverseINS_9allocatorI23TransformerEncoderLayerEENS_16reverse_iteratorIPS2_EEEclB8ue170006Ev, symObjAddr: 0xF830, symBinAddr: 0x100013020, symSize: 0x3A8 }
  - { offsetInCU: 0xD1007, offset: 0xD1007, size: 0x8, addend: 0x0, symName: __ZNSt3__116reverse_iteratorINS0_IP23TransformerEncoderLayerEEEC1B8ue170006ES3_, symObjAddr: 0xFC48, symBinAddr: 0x100013438, symSize: 0x248 }
  - { offsetInCU: 0xD1044, offset: 0xD1044, size: 0x8, addend: 0x0, symName: __ZNSt3__116allocator_traitsINS_9allocatorI23TransformerEncoderLayerEEE7destroyB8ue170006IS2_vEEvRS3_PT_, symObjAddr: 0x1015C, symBinAddr: 0x10001394C, symSize: 0x2C }
  - { offsetInCU: 0xD1081, offset: 0xD1081, size: 0x8, addend: 0x0, symName: __ZNSt3__116reverse_iteratorINS0_IP23TransformerEncoderLayerEEEppB8ue170006Ev, symObjAddr: 0x101AC, symBinAddr: 0x10001399C, symSize: 0x30 }
  - { offsetInCU: 0xD10A7, offset: 0xD10A7, size: 0x8, addend: 0x0, symName: __ZNKSt3__116reverse_iteratorINS0_IP23TransformerEncoderLayerEEE4baseB8ue170006Ev, symObjAddr: 0x101DC, symBinAddr: 0x1000139CC, symSize: 0x20C }
  - { offsetInCU: 0xD10CE, offset: 0xD10CE, size: 0x8, addend: 0x0, symName: __ZNSt3__19allocatorI23TransformerEncoderLayerE7destroyB8ue170006EPS1_, symObjAddr: 0x103E8, symBinAddr: 0x100013BD8, symSize: 0x28 }
  - { offsetInCU: 0xD1107, offset: 0xD1107, size: 0x8, addend: 0x0, symName: __ZNSt3__119__to_address_helperINS_16reverse_iteratorINS1_IP23TransformerEncoderLayerEEEEvE6__callB8ue170006ERKS5_, symObjAddr: 0x10410, symBinAddr: 0x100013C00, symSize: 0x44 }
  - { offsetInCU: 0xD112A, offset: 0xD112A, size: 0x8, addend: 0x0, symName: __ZNKSt3__116reverse_iteratorINS0_IP23TransformerEncoderLayerEEEptB8ue170006Ev, symObjAddr: 0x10454, symBinAddr: 0x100013C44, symSize: 0x24 }
  - { offsetInCU: 0xD1150, offset: 0xD1150, size: 0x8, addend: 0x0, symName: __ZNKSt3__116reverse_iteratorINS0_IP23TransformerEncoderLayerEEEdeB8ue170006Ev, symObjAddr: 0x10478, symBinAddr: 0x100013C68, symSize: 0x1EC }
  - { offsetInCU: 0xD1189, offset: 0xD1189, size: 0x8, addend: 0x0, symName: __ZNSt3__116reverse_iteratorIP23TransformerEncoderLayerEmmB8ue170006Ev, symObjAddr: 0x10664, symBinAddr: 0x100013E54, symSize: 0x6C }
  - { offsetInCU: 0xD11AF, offset: 0xD11AF, size: 0x8, addend: 0x0, symName: __ZNSt3__116reverse_iteratorINS0_IP23TransformerEncoderLayerEEEC2B8ue170006ES3_, symObjAddr: 0x106D0, symBinAddr: 0x100013EC0, symSize: 0x22C }
  - { offsetInCU: 0xD11EC, offset: 0xD11EC, size: 0x8, addend: 0x0, symName: __ZNSt3__116reverse_iteratorIP23TransformerEncoderLayerEC2B8ue170006ES2_, symObjAddr: 0x108FC, symBinAddr: 0x1000140EC, symSize: 0xB8 }
  - { offsetInCU: 0xD1224, offset: 0xD1224, size: 0x8, addend: 0x0, symName: __ZNSt3__114__split_bufferI23TransformerEncoderLayerRNS_9allocatorIS1_EEED2Ev, symObjAddr: 0x109B4, symBinAddr: 0x1000141A4, symSize: 0x104 }
  - { offsetInCU: 0xD1250, offset: 0xD1250, size: 0x8, addend: 0x0, symName: __ZNSt3__114__split_bufferI23TransformerEncoderLayerRNS_9allocatorIS1_EEE5clearB8ue170006Ev, symObjAddr: 0x10AB8, symBinAddr: 0x1000142A8, symSize: 0x68 }
  - { offsetInCU: 0xD1276, offset: 0xD1276, size: 0x8, addend: 0x0, symName: __ZNSt3__116allocator_traitsINS_9allocatorI23TransformerEncoderLayerEEE10deallocateB8ue170006ERS3_PS2_m, symObjAddr: 0x10B20, symBinAddr: 0x100014310, symSize: 0x34 }
  - { offsetInCU: 0xD12B8, offset: 0xD12B8, size: 0x8, addend: 0x0, symName: __ZNKSt3__114__split_bufferI23TransformerEncoderLayerRNS_9allocatorIS1_EEE8capacityB8ue170006Ev, symObjAddr: 0x10B54, symBinAddr: 0x100014344, symSize: 0xBC }
  - { offsetInCU: 0xD12DE, offset: 0xD12DE, size: 0x8, addend: 0x0, symName: __ZNSt3__114__split_bufferI23TransformerEncoderLayerRNS_9allocatorIS1_EEE17__destruct_at_endB8ue170006EPS1_, symObjAddr: 0x10C10, symBinAddr: 0x100014400, symSize: 0x2C }
  - { offsetInCU: 0xD1312, offset: 0xD1312, size: 0x8, addend: 0x0, symName: __ZNSt3__114__split_bufferI23TransformerEncoderLayerRNS_9allocatorIS1_EEE17__destruct_at_endB8ue170006EPS1_NS_17integral_constantIbLb0EEE, symObjAddr: 0x10C3C, symBinAddr: 0x10001442C, symSize: 0x10C }
  - { offsetInCU: 0xD1352, offset: 0xD1352, size: 0x8, addend: 0x0, symName: __ZNSt3__19allocatorI23TransformerEncoderLayerE10deallocateB8ue170006EPS1_m, symObjAddr: 0x10D48, symBinAddr: 0x100014538, symSize: 0x50 }
  - { offsetInCU: 0xD1394, offset: 0xD1394, size: 0x8, addend: 0x0, symName: __ZNKSt3__114__split_bufferI23TransformerEncoderLayerRNS_9allocatorIS1_EEE9__end_capB8ue170006Ev, symObjAddr: 0x10E14, symBinAddr: 0x100014604, symSize: 0x28 }
  - { offsetInCU: 0xD13BA, offset: 0xD13BA, size: 0x8, addend: 0x0, symName: __ZNKSt3__117__compressed_pairIP23TransformerEncoderLayerRNS_9allocatorIS1_EEE5firstB8ue170006Ev, symObjAddr: 0x10E3C, symBinAddr: 0x10001462C, symSize: 0x24 }
  - { offsetInCU: 0xD13E0, offset: 0xD13E0, size: 0x8, addend: 0x0, symName: __ZN23TransformerEncoderLayerC2Eiii, symObjAddr: 0x10E60, symBinAddr: 0x100014650, symSize: 0x720 }
  - { offsetInCU: 0xD1438, offset: 0xD1438, size: 0x8, addend: 0x0, symName: __ZN18MultiHeadAttentionC1Eii, symObjAddr: 0x11580, symBinAddr: 0x100014D70, symSize: 0x3C }
  - { offsetInCU: 0xD147E, offset: 0xD147E, size: 0x8, addend: 0x0, symName: __ZN5Eigen9DenseBaseINS_6MatrixIdLin1ELin1ELi0ELin1ELin1EEEE6RandomEll, symObjAddr: 0x115BC, symBinAddr: 0x100014DAC, symSize: 0x200 }
  - { offsetInCU: 0xD14B5, offset: 0xD14B5, size: 0x8, addend: 0x0, symName: __ZN5Eigen6MatrixIdLin1ELin1ELi0ELin1ELin1EEC1INS_14CwiseNullaryOpINS_8internal16scalar_random_opIdEES1_EEEERKT_, symObjAddr: 0x117BC, symBinAddr: 0x100014FAC, symSize: 0x34 }
  - { offsetInCU: 0xD14F7, offset: 0xD14F7, size: 0x8, addend: 0x0, symName: __ZN5Eigen9DenseBaseINS_6MatrixIdLin1ELi1ELi0ELin1ELi1EEEE6RandomEl, symObjAddr: 0x117F0, symBinAddr: 0x100014FE0, symSize: 0x1F0 }
  - { offsetInCU: 0xD151E, offset: 0xD151E, size: 0x8, addend: 0x0, symName: __ZN5Eigen6MatrixIdLin1ELi1ELi0ELin1ELi1EEC1INS_14CwiseNullaryOpINS_8internal16scalar_random_opIdEES1_EEEERKT_, symObjAddr: 0x119E0, symBinAddr: 0x1000151D0, symSize: 0x34 }
  - { offsetInCU: 0xD1560, offset: 0xD1560, size: 0x8, addend: 0x0, symName: __ZN18MultiHeadAttentionD1Ev, symObjAddr: 0x11A14, symBinAddr: 0x100015204, symSize: 0x2C }
  - { offsetInCU: 0xD158C, offset: 0xD158C, size: 0x8, addend: 0x0, symName: __ZN18MultiHeadAttentionC2Eii, symObjAddr: 0x11A40, symBinAddr: 0x100015230, symSize: 0x280 }
  - { offsetInCU: 0xD15D2, offset: 0xD15D2, size: 0x8, addend: 0x0, symName: __ZNSt3__16vectorIN5Eigen6MatrixIdLin1ELin1ELi0ELin1ELin1EEENS_9allocatorIS3_EEEC1B8ue170006Ev, symObjAddr: 0x11CC0, symBinAddr: 0x1000154B0, symSize: 0x2C }
  - { offsetInCU: 0xD15FC, offset: 0xD15FC, size: 0x8, addend: 0x0, symName: __ZN5Eigen6MatrixIdLin1ELin1ELi0ELin1ELin1EEC1Ev, symObjAddr: 0x11CEC, symBinAddr: 0x1000154DC, symSize: 0x2C }
  - { offsetInCU: 0xD1626, offset: 0xD1626, size: 0x8, addend: 0x0, symName: __ZN18MultiHeadAttention18initialize_weightsEv, symObjAddr: 0x11D18, symBinAddr: 0x100015508, symSize: 0xA00 }
  - { offsetInCU: 0xD1662, offset: 0xD1662, size: 0x8, addend: 0x0, symName: __ZNSt3__16vectorIN5Eigen6MatrixIdLin1ELin1ELi0ELin1ELin1EEENS_9allocatorIS3_EEED1B8ue170006Ev, symObjAddr: 0x12718, symBinAddr: 0x100015F08, symSize: 0x2C }
  - { offsetInCU: 0xD168C, offset: 0xD168C, size: 0x8, addend: 0x0, symName: __ZNSt3__16vectorIN5Eigen6MatrixIdLin1ELin1ELi0ELin1ELin1EEENS_9allocatorIS3_EEEC2B8ue170006Ev, symObjAddr: 0x12744, symBinAddr: 0x100015F34, symSize: 0x2E8 }
  - { offsetInCU: 0xD16B7, offset: 0xD16B7, size: 0x8, addend: 0x0, symName: __ZNSt3__117__compressed_pairIPN5Eigen6MatrixIdLin1ELin1ELi0ELin1ELin1EEENS_9allocatorIS3_EEEC1B8ue170006IDnNS_18__default_init_tagEEEOT_OT0_, symObjAddr: 0x12A2C, symBinAddr: 0x10001621C, symSize: 0x3C }
  - { offsetInCU: 0xD170F, offset: 0xD170F, size: 0x8, addend: 0x0, symName: __ZNSt3__117__compressed_pairIPN5Eigen6MatrixIdLin1ELin1ELi0ELin1ELin1EEENS_9allocatorIS3_EEEC2B8ue170006IDnNS_18__default_init_tagEEEOT_OT0_, symObjAddr: 0x12A68, symBinAddr: 0x100016258, symSize: 0x40 }
  - { offsetInCU: 0xD1767, offset: 0xD1767, size: 0x8, addend: 0x0, symName: __ZNSt3__122__compressed_pair_elemINS_9allocatorIN5Eigen6MatrixIdLin1ELin1ELi0ELin1ELin1EEEEELi1ELb1EEC2B8ue170006ENS_18__default_init_tagE, symObjAddr: 0x12AA8, symBinAddr: 0x100016298, symSize: 0x2C }
  - { offsetInCU: 0xD179B, offset: 0xD179B, size: 0x8, addend: 0x0, symName: __ZNSt3__19allocatorIN5Eigen6MatrixIdLin1ELin1ELi0ELin1ELin1EEEEC2B8ue170006Ev, symObjAddr: 0x12AD4, symBinAddr: 0x1000162C4, symSize: 0x2C }
  - { offsetInCU: 0xD17C5, offset: 0xD17C5, size: 0x8, addend: 0x0, symName: __ZNSt3__116__non_trivial_ifILb1ENS_9allocatorIN5Eigen6MatrixIdLin1ELin1ELi0ELin1ELin1EEEEEEC2B8ue170006Ev, symObjAddr: 0x12B00, symBinAddr: 0x1000162F0, symSize: 0x14 }
  - { offsetInCU: 0xD17EF, offset: 0xD17EF, size: 0x8, addend: 0x0, symName: __ZN5Eigen6MatrixIdLin1ELin1ELi0ELin1ELin1EEC2Ev, symObjAddr: 0x12B14, symBinAddr: 0x100016304, symSize: 0x30 }
  - { offsetInCU: 0xD1819, offset: 0xD1819, size: 0x8, addend: 0x0, symName: __ZN5Eigen15PlainObjectBaseINS_6MatrixIdLin1ELin1ELi0ELin1ELin1EEEEC2Ev, symObjAddr: 0x12B44, symBinAddr: 0x100016334, symSize: 0x34 }
  - { offsetInCU: 0xD1843, offset: 0xD1843, size: 0x8, addend: 0x0, symName: __ZN5Eigen12DenseStorageIdLin1ELin1ELin1ELi0EEC1Ev, symObjAddr: 0x12B78, symBinAddr: 0x100016368, symSize: 0x2C }
  - { offsetInCU: 0xD186D, offset: 0xD186D, size: 0x8, addend: 0x0, symName: __ZN5Eigen12DenseStorageIdLin1ELin1ELin1ELi0EEC2Ev, symObjAddr: 0x12BA4, symBinAddr: 0x100016394, symSize: 0xD4 }
  - { offsetInCU: 0xD1897, offset: 0xD1897, size: 0x8, addend: 0x0, symName: __ZNSt3__16vectorIN5Eigen6MatrixIdLin1ELin1ELi0ELin1ELin1EEENS_9allocatorIS3_EEE9push_backB8ue170006EOS3_, symObjAddr: 0x12C78, symBinAddr: 0x100016468, symSize: 0xE0 }
  - { offsetInCU: 0xD18D3, offset: 0xD18D3, size: 0x8, addend: 0x0, symName: __ZN5Eigen6MatrixIdLin1ELin1ELi0ELin1ELin1EEC1INS_14CwiseNullaryOpINS_8internal16scalar_random_opIdEES1_EEEERKNS_9EigenBaseIT_EE, symObjAddr: 0x12D58, symBinAddr: 0x100016548, symSize: 0x34 }
  - { offsetInCU: 0xD1915, offset: 0xD1915, size: 0x8, addend: 0x0, symName: __ZN5Eigen6MatrixIdLin1ELin1ELi0ELin1ELin1EEaSINS_14CwiseNullaryOpINS_8internal16scalar_random_opIdEES1_EEEERS1_RKNS_9DenseBaseIT_EE, symObjAddr: 0x12D8C, symBinAddr: 0x10001657C, symSize: 0x2C }
  - { offsetInCU: 0xD1952, offset: 0xD1952, size: 0x8, addend: 0x0, symName: __ZNSt3__16vectorIN5Eigen6MatrixIdLin1ELin1ELi0ELin1ELin1EEENS_9allocatorIS3_EEE22__construct_one_at_endB8ue170006IJS3_EEEvDpOT_, symObjAddr: 0x12DB8, symBinAddr: 0x1000165A8, symSize: 0x36C }
  - { offsetInCU: 0xD19A7, offset: 0xD19A7, size: 0x8, addend: 0x0, symName: __ZNSt3__16vectorIN5Eigen6MatrixIdLin1ELin1ELi0ELin1ELin1EEENS_9allocatorIS3_EEE21__push_back_slow_pathIS3_EEvOT_, symObjAddr: 0x13124, symBinAddr: 0x100016914, symSize: 0x3C0 }
  - { offsetInCU: 0xD1A25, offset: 0xD1A25, size: 0x8, addend: 0x0, symName: __ZNSt3__16vectorIN5Eigen6MatrixIdLin1ELin1ELi0ELin1ELin1EEENS_9allocatorIS3_EEE21_ConstructTransactionC1B8ue170006ERS6_m, symObjAddr: 0x134E4, symBinAddr: 0x100016CD4, symSize: 0x3C }
  - { offsetInCU: 0xD1A6D, offset: 0xD1A6D, size: 0x8, addend: 0x0, symName: __ZNSt3__116allocator_traitsINS_9allocatorIN5Eigen6MatrixIdLin1ELin1ELi0ELin1ELin1EEEEEE9constructB8ue170006IS4_JS4_EvEEvRS5_PT_DpOT0_, symObjAddr: 0x13520, symBinAddr: 0x100016D10, symSize: 0x34 }
  - { offsetInCU: 0xD1AC4, offset: 0xD1AC4, size: 0x8, addend: 0x0, symName: __ZNSt3__16vectorIN5Eigen6MatrixIdLin1ELin1ELi0ELin1ELin1EEENS_9allocatorIS3_EEE21_ConstructTransactionD1B8ue170006Ev, symObjAddr: 0x13568, symBinAddr: 0x100016D58, symSize: 0x2C }
  - { offsetInCU: 0xD1AEE, offset: 0xD1AEE, size: 0x8, addend: 0x0, symName: __ZNSt3__16vectorIN5Eigen6MatrixIdLin1ELin1ELi0ELin1ELin1EEENS_9allocatorIS3_EEE21_ConstructTransactionC2B8ue170006ERS6_m, symObjAddr: 0x13594, symBinAddr: 0x100016D84, symSize: 0x1D8 }
  - { offsetInCU: 0xD1B36, offset: 0xD1B36, size: 0x8, addend: 0x0, symName: __ZNKSt3__16vectorIN5Eigen6MatrixIdLin1ELin1ELi0ELin1ELin1EEENS_9allocatorIS3_EEE19__annotate_increaseB8ue170006Em, symObjAddr: 0x1376C, symBinAddr: 0x100016F5C, symSize: 0xF8 }
  - { offsetInCU: 0xD1B6B, offset: 0xD1B6B, size: 0x8, addend: 0x0, symName: __ZNKSt3__16vectorIN5Eigen6MatrixIdLin1ELin1ELi0ELin1ELin1EEENS_9allocatorIS3_EEE31__annotate_contiguous_containerEPKvS8_S8_S8_, symObjAddr: 0x13864, symBinAddr: 0x100017054, symSize: 0x58 }
  - { offsetInCU: 0xD1BCD, offset: 0xD1BCD, size: 0x8, addend: 0x0, symName: __ZNKSt3__16vectorIN5Eigen6MatrixIdLin1ELin1ELi0ELin1ELin1EEENS_9allocatorIS3_EEE4dataB8ue170006Ev, symObjAddr: 0x138BC, symBinAddr: 0x1000170AC, symSize: 0x64 }
  - { offsetInCU: 0xD1BF3, offset: 0xD1BF3, size: 0x8, addend: 0x0, symName: __ZNKSt3__16vectorIN5Eigen6MatrixIdLin1ELin1ELi0ELin1ELin1EEENS_9allocatorIS3_EEE8capacityB8ue170006Ev, symObjAddr: 0x13920, symBinAddr: 0x100017110, symSize: 0xBC }
  - { offsetInCU: 0xD1C19, offset: 0xD1C19, size: 0x8, addend: 0x0, symName: __ZNKSt3__16vectorIN5Eigen6MatrixIdLin1ELin1ELi0ELin1ELin1EEENS_9allocatorIS3_EEE4sizeB8ue170006Ev, symObjAddr: 0x139DC, symBinAddr: 0x1000171CC, symSize: 0xB0 }
  - { offsetInCU: 0xD1C3F, offset: 0xD1C3F, size: 0x8, addend: 0x0, symName: __ZNKSt3__16vectorIN5Eigen6MatrixIdLin1ELin1ELi0ELin1ELin1EEENS_9allocatorIS3_EEE9__end_capB8ue170006Ev, symObjAddr: 0x13A8C, symBinAddr: 0x10001727C, symSize: 0x28 }
  - { offsetInCU: 0xD1C65, offset: 0xD1C65, size: 0x8, addend: 0x0, symName: __ZNKSt3__117__compressed_pairIPN5Eigen6MatrixIdLin1ELin1ELi0ELin1ELin1EEENS_9allocatorIS3_EEE5firstB8ue170006Ev, symObjAddr: 0x13AB4, symBinAddr: 0x1000172A4, symSize: 0x24 }
  - { offsetInCU: 0xD1C8B, offset: 0xD1C8B, size: 0x8, addend: 0x0, symName: __ZNKSt3__122__compressed_pair_elemIPN5Eigen6MatrixIdLin1ELin1ELi0ELin1ELin1EEELi0ELb0EE5__getB8ue170006Ev, symObjAddr: 0x13AD8, symBinAddr: 0x1000172C8, symSize: 0x14 }
  - { offsetInCU: 0xD1CB1, offset: 0xD1CB1, size: 0x8, addend: 0x0, symName: __ZNSt3__19allocatorIN5Eigen6MatrixIdLin1ELin1ELi0ELin1ELin1EEEE9constructB8ue170006IS3_JS3_EEEvPT_DpOT0_, symObjAddr: 0x13AEC, symBinAddr: 0x1000172DC, symSize: 0x30 }
  - { offsetInCU: 0xD1D07, offset: 0xD1D07, size: 0x8, addend: 0x0, symName: __ZNSt3__16vectorIN5Eigen6MatrixIdLin1ELin1ELi0ELin1ELin1EEENS_9allocatorIS3_EEE21_ConstructTransactionD2B8ue170006Ev, symObjAddr: 0x13B1C, symBinAddr: 0x10001730C, symSize: 0x278 }
  - { offsetInCU: 0xD1D31, offset: 0xD1D31, size: 0x8, addend: 0x0, symName: __ZNKSt3__16vectorIN5Eigen6MatrixIdLin1ELin1ELi0ELin1ELin1EEENS_9allocatorIS3_EEE17__annotate_shrinkB8ue170006Em, symObjAddr: 0x13D94, symBinAddr: 0x100017584, symSize: 0xE4 }
  - { offsetInCU: 0xD1D66, offset: 0xD1D66, size: 0x8, addend: 0x0, symName: __ZNKSt3__16vectorIN5Eigen6MatrixIdLin1ELin1ELi0ELin1ELin1EEENS_9allocatorIS3_EEE11__recommendB8ue170006Em, symObjAddr: 0x13E78, symBinAddr: 0x100017668, symSize: 0x384 }
  - { offsetInCU: 0xD1DC2, offset: 0xD1DC2, size: 0x8, addend: 0x0, symName: __ZNSt3__114__split_bufferIN5Eigen6MatrixIdLin1ELin1ELi0ELin1ELin1EEERNS_9allocatorIS3_EEEC1EmmS6_, symObjAddr: 0x141FC, symBinAddr: 0x1000179EC, symSize: 0x44 }
  - { offsetInCU: 0xD1E18, offset: 0xD1E18, size: 0x8, addend: 0x0, symName: __ZNSt3__114__split_bufferIN5Eigen6MatrixIdLin1ELin1ELi0ELin1ELin1EEERNS_9allocatorIS3_EEED1Ev, symObjAddr: 0x147AC, symBinAddr: 0x100017F9C, symSize: 0x2C }
  - { offsetInCU: 0xD1E44, offset: 0xD1E44, size: 0x8, addend: 0x0, symName: __ZNKSt3__16vectorIN5Eigen6MatrixIdLin1ELin1ELi0ELin1ELin1EEENS_9allocatorIS3_EEE8max_sizeEv, symObjAddr: 0x147D8, symBinAddr: 0x100017FC8, symSize: 0x2FC }
  - { offsetInCU: 0xD1E6D, offset: 0xD1E6D, size: 0x8, addend: 0x0, symName: __ZNKSt3__16vectorIN5Eigen6MatrixIdLin1ELin1ELi0ELin1ELin1EEENS_9allocatorIS3_EEE20__throw_length_errorB8ue170006Ev, symObjAddr: 0x14AD4, symBinAddr: 0x1000182C4, symSize: 0x20 }
  - { offsetInCU: 0xD1E9D, offset: 0xD1E9D, size: 0x8, addend: 0x0, symName: __ZNSt3__116allocator_traitsINS_9allocatorIN5Eigen6MatrixIdLin1ELin1ELi0ELin1ELin1EEEEEE8max_sizeB8ue170006IS5_vEEmRKS5_, symObjAddr: 0x14AF4, symBinAddr: 0x1000182E4, symSize: 0x24 }
  - { offsetInCU: 0xD1ECB, offset: 0xD1ECB, size: 0x8, addend: 0x0, symName: __ZNKSt3__16vectorIN5Eigen6MatrixIdLin1ELin1ELi0ELin1ELin1EEENS_9allocatorIS3_EEE7__allocB8ue170006Ev, symObjAddr: 0x14B18, symBinAddr: 0x100018308, symSize: 0x28 }
  - { offsetInCU: 0xD1EF1, offset: 0xD1EF1, size: 0x8, addend: 0x0, symName: __ZNKSt3__19allocatorIN5Eigen6MatrixIdLin1ELin1ELi0ELin1ELin1EEEE8max_sizeB8ue170006Ev, symObjAddr: 0x14B40, symBinAddr: 0x100018330, symSize: 0x18 }
  - { offsetInCU: 0xD1F17, offset: 0xD1F17, size: 0x8, addend: 0x0, symName: __ZNKSt3__117__compressed_pairIPN5Eigen6MatrixIdLin1ELin1ELi0ELin1ELin1EEENS_9allocatorIS3_EEE6secondB8ue170006Ev, symObjAddr: 0x14B58, symBinAddr: 0x100018348, symSize: 0x24 }
  - { offsetInCU: 0xD1F3D, offset: 0xD1F3D, size: 0x8, addend: 0x0, symName: __ZNKSt3__122__compressed_pair_elemINS_9allocatorIN5Eigen6MatrixIdLin1ELin1ELi0ELin1ELin1EEEEELi1ELb1EE5__getB8ue170006Ev, symObjAddr: 0x14B7C, symBinAddr: 0x10001836C, symSize: 0x14 }
  - { offsetInCU: 0xD1F63, offset: 0xD1F63, size: 0x8, addend: 0x0, symName: __ZNSt3__114__split_bufferIN5Eigen6MatrixIdLin1ELin1ELi0ELin1ELin1EEERNS_9allocatorIS3_EEEC2EmmS6_, symObjAddr: 0x14B90, symBinAddr: 0x100018380, symSize: 0x530 }
  - { offsetInCU: 0xD1FDE, offset: 0xD1FDE, size: 0x8, addend: 0x0, symName: __ZNSt3__117__compressed_pairIPN5Eigen6MatrixIdLin1ELin1ELi0ELin1ELin1EEERNS_9allocatorIS3_EEEC1B8ue170006IDnS7_EEOT_OT0_, symObjAddr: 0x150C0, symBinAddr: 0x1000188B0, symSize: 0x3C }
  - { offsetInCU: 0xD2036, offset: 0xD2036, size: 0x8, addend: 0x0, symName: __ZNSt3__114__split_bufferIN5Eigen6MatrixIdLin1ELin1ELi0ELin1ELin1EEERNS_9allocatorIS3_EEE7__allocB8ue170006Ev, symObjAddr: 0x15388, symBinAddr: 0x100018B78, symSize: 0x28 }
  - { offsetInCU: 0xD205C, offset: 0xD205C, size: 0x8, addend: 0x0, symName: __ZNSt3__114__split_bufferIN5Eigen6MatrixIdLin1ELin1ELi0ELin1ELin1EEERNS_9allocatorIS3_EEE9__end_capB8ue170006Ev, symObjAddr: 0x153B0, symBinAddr: 0x100018BA0, symSize: 0x28 }
  - { offsetInCU: 0xD2082, offset: 0xD2082, size: 0x8, addend: 0x0, symName: __ZNSt3__117__compressed_pairIPN5Eigen6MatrixIdLin1ELin1ELi0ELin1ELin1EEERNS_9allocatorIS3_EEEC2B8ue170006IDnS7_EEOT_OT0_, symObjAddr: 0x153D8, symBinAddr: 0x100018BC8, symSize: 0x48 }
  - { offsetInCU: 0xD20DA, offset: 0xD20DA, size: 0x8, addend: 0x0, symName: __ZNSt3__122__compressed_pair_elemIRNS_9allocatorIN5Eigen6MatrixIdLin1ELin1ELi0ELin1ELin1EEEEELi1ELb0EEC2B8ue170006IS6_vEEOT_, symObjAddr: 0x15420, symBinAddr: 0x100018C10, symSize: 0x70 }
  - { offsetInCU: 0xD211C, offset: 0xD211C, size: 0x8, addend: 0x0, symName: __ZNSt3__19allocatorIN5Eigen6MatrixIdLin1ELin1ELi0ELin1ELin1EEEE8allocateB8ue170006Em, symObjAddr: 0x15490, symBinAddr: 0x100018C80, symSize: 0x60 }
  - { offsetInCU: 0xD2150, offset: 0xD2150, size: 0x8, addend: 0x0, symName: __ZNSt3__117__compressed_pairIPN5Eigen6MatrixIdLin1ELin1ELi0ELin1ELin1EEERNS_9allocatorIS3_EEE6secondB8ue170006Ev, symObjAddr: 0x154F0, symBinAddr: 0x100018CE0, symSize: 0x28 }
  - { offsetInCU: 0xD2176, offset: 0xD2176, size: 0x8, addend: 0x0, symName: __ZNSt3__122__compressed_pair_elemIRNS_9allocatorIN5Eigen6MatrixIdLin1ELin1ELi0ELin1ELin1EEEEELi1ELb0EE5__getB8ue170006Ev, symObjAddr: 0x15518, symBinAddr: 0x100018D08, symSize: 0x60 }
  - { offsetInCU: 0xD219C, offset: 0xD219C, size: 0x8, addend: 0x0, symName: __ZNSt3__117__compressed_pairIPN5Eigen6MatrixIdLin1ELin1ELi0ELin1ELin1EEERNS_9allocatorIS3_EEE5firstB8ue170006Ev, symObjAddr: 0x15578, symBinAddr: 0x100018D68, symSize: 0x24 }
  - { offsetInCU: 0xD21C2, offset: 0xD21C2, size: 0x8, addend: 0x0, symName: __ZNKSt3__16vectorIN5Eigen6MatrixIdLin1ELin1ELi0ELin1ELin1EEENS_9allocatorIS3_EEE17__annotate_deleteB8ue170006Ev, symObjAddr: 0x1559C, symBinAddr: 0x100018D8C, symSize: 0xE8 }
  - { offsetInCU: 0xD21E8, offset: 0xD21E8, size: 0x8, addend: 0x0, symName: __ZNSt3__116reverse_iteratorIPN5Eigen6MatrixIdLin1ELin1ELi0ELin1ELin1EEEEC1B8ue170006ES4_, symObjAddr: 0x15BC8, symBinAddr: 0x1000193B8, symSize: 0x34 }
  - { offsetInCU: 0xD2220, offset: 0xD2220, size: 0x8, addend: 0x0, symName: __ZNKSt3__116reverse_iteratorIPN5Eigen6MatrixIdLin1ELin1ELi0ELin1ELin1EEEE4baseB8ue170006Ev, symObjAddr: 0x15BFC, symBinAddr: 0x1000193EC, symSize: 0x64 }
  - { offsetInCU: 0xD2246, offset: 0xD2246, size: 0x8, addend: 0x0, symName: __ZNKSt3__16vectorIN5Eigen6MatrixIdLin1ELin1ELi0ELin1ELin1EEENS_9allocatorIS3_EEE14__annotate_newB8ue170006Em, symObjAddr: 0x15D94, symBinAddr: 0x100019584, symSize: 0xDC }
  - { offsetInCU: 0xD227B, offset: 0xD227B, size: 0x8, addend: 0x0, symName: __ZNSt3__129_AllocatorDestroyRangeReverseINS_9allocatorIN5Eigen6MatrixIdLin1ELin1ELi0ELin1ELin1EEEEENS_16reverse_iteratorIPS4_EEEC1B8ue170006ERS5_RS8_SB_, symObjAddr: 0x16068, symBinAddr: 0x100019858, symSize: 0x44 }
  - { offsetInCU: 0xD22D2, offset: 0xD22D2, size: 0x8, addend: 0x0, symName: __ZNKSt3__116reverse_iteratorIPN5Eigen6MatrixIdLin1ELin1ELi0ELin1ELin1EEEEdeB8ue170006Ev, symObjAddr: 0x16118, symBinAddr: 0x100019908, symSize: 0x74 }
  - { offsetInCU: 0xD2306, offset: 0xD2306, size: 0x8, addend: 0x0, symName: __ZNSt3__116reverse_iteratorIPN5Eigen6MatrixIdLin1ELin1ELi0ELin1ELin1EEEEppB8ue170006Ev, symObjAddr: 0x1618C, symBinAddr: 0x10001997C, symSize: 0x6C }
  - { offsetInCU: 0xD232C, offset: 0xD232C, size: 0x8, addend: 0x0, symName: __ZNSt3__128__exception_guard_exceptionsINS_29_AllocatorDestroyRangeReverseINS_9allocatorIN5Eigen6MatrixIdLin1ELin1ELi0ELin1ELin1EEEEENS_16reverse_iteratorIPS5_EEEEE10__completeB8ue170006Ev, symObjAddr: 0x161F8, symBinAddr: 0x1000199E8, symSize: 0x8C }
  - { offsetInCU: 0xD2352, offset: 0xD2352, size: 0x8, addend: 0x0, symName: __ZNSt3__128__exception_guard_exceptionsINS_29_AllocatorDestroyRangeReverseINS_9allocatorIN5Eigen6MatrixIdLin1ELin1ELi0ELin1ELin1EEEEENS_16reverse_iteratorIPS5_EEEEED1B8ue170006Ev, symObjAddr: 0x16284, symBinAddr: 0x100019A74, symSize: 0x2C }
  - { offsetInCU: 0xD237C, offset: 0xD237C, size: 0x8, addend: 0x0, symName: __ZNSt3__128__exception_guard_exceptionsINS_29_AllocatorDestroyRangeReverseINS_9allocatorIN5Eigen6MatrixIdLin1ELin1ELi0ELin1ELin1EEEEENS_16reverse_iteratorIPS5_EEEEEC1B8ue170006ESA_, symObjAddr: 0x162B0, symBinAddr: 0x100019AA0, symSize: 0x34 }
  - { offsetInCU: 0xD23B5, offset: 0xD23B5, size: 0x8, addend: 0x0, symName: __ZNSt3__128__exception_guard_exceptionsINS_29_AllocatorDestroyRangeReverseINS_9allocatorIN5Eigen6MatrixIdLin1ELin1ELi0ELin1ELin1EEEEENS_16reverse_iteratorIPS5_EEEEEC2B8ue170006ESA_, symObjAddr: 0x162E4, symBinAddr: 0x100019AD4, symSize: 0xA4 }
  - { offsetInCU: 0xD23EE, offset: 0xD23EE, size: 0x8, addend: 0x0, symName: __ZNSt3__129_AllocatorDestroyRangeReverseINS_9allocatorIN5Eigen6MatrixIdLin1ELin1ELi0ELin1ELin1EEEEENS_16reverse_iteratorIPS4_EEEC2B8ue170006ERS5_RS8_SB_, symObjAddr: 0x16388, symBinAddr: 0x100019B78, symSize: 0x104 }
  - { offsetInCU: 0xD244A, offset: 0xD244A, size: 0x8, addend: 0x0, symName: __ZNSt3__119__to_address_helperINS_16reverse_iteratorIPN5Eigen6MatrixIdLin1ELin1ELi0ELin1ELin1EEEEEvE6__callB8ue170006ERKS6_, symObjAddr: 0x1648C, symBinAddr: 0x100019C7C, symSize: 0x44 }
  - { offsetInCU: 0xD246D, offset: 0xD246D, size: 0x8, addend: 0x0, symName: __ZNKSt3__116reverse_iteratorIPN5Eigen6MatrixIdLin1ELin1ELi0ELin1ELin1EEEEptB8ue170006Ev, symObjAddr: 0x164D0, symBinAddr: 0x100019CC0, symSize: 0x24 }
  - { offsetInCU: 0xD2493, offset: 0xD2493, size: 0x8, addend: 0x0, symName: __ZNSt3__128__exception_guard_exceptionsINS_29_AllocatorDestroyRangeReverseINS_9allocatorIN5Eigen6MatrixIdLin1ELin1ELi0ELin1ELin1EEEEENS_16reverse_iteratorIPS5_EEEEED2B8ue170006Ev, symObjAddr: 0x164F4, symBinAddr: 0x100019CE4, symSize: 0xBC }
  - { offsetInCU: 0xD24BD, offset: 0xD24BD, size: 0x8, addend: 0x0, symName: __ZNKSt3__129_AllocatorDestroyRangeReverseINS_9allocatorIN5Eigen6MatrixIdLin1ELin1ELi0ELin1ELin1EEEEENS_16reverse_iteratorIPS4_EEEclB8ue170006Ev, symObjAddr: 0x165B0, symBinAddr: 0x100019DA0, symSize: 0x3A8 }
  - { offsetInCU: 0xD24E4, offset: 0xD24E4, size: 0x8, addend: 0x0, symName: __ZNSt3__116reverse_iteratorINS0_IPN5Eigen6MatrixIdLin1ELin1ELi0ELin1ELin1EEEEEEC1B8ue170006ES5_, symObjAddr: 0x169C8, symBinAddr: 0x10001A1B8, symSize: 0x248 }
  - { offsetInCU: 0xD2521, offset: 0xD2521, size: 0x8, addend: 0x0, symName: __ZNSt3__116allocator_traitsINS_9allocatorIN5Eigen6MatrixIdLin1ELin1ELi0ELin1ELin1EEEEEE7destroyB8ue170006IS4_vEEvRS5_PT_, symObjAddr: 0x16EDC, symBinAddr: 0x10001A6CC, symSize: 0x2C }
  - { offsetInCU: 0xD255E, offset: 0xD255E, size: 0x8, addend: 0x0, symName: __ZNSt3__116reverse_iteratorINS0_IPN5Eigen6MatrixIdLin1ELin1ELi0ELin1ELin1EEEEEEppB8ue170006Ev, symObjAddr: 0x16F2C, symBinAddr: 0x10001A71C, symSize: 0x30 }
  - { offsetInCU: 0xD2584, offset: 0xD2584, size: 0x8, addend: 0x0, symName: __ZNKSt3__116reverse_iteratorINS0_IPN5Eigen6MatrixIdLin1ELin1ELi0ELin1ELin1EEEEEE4baseB8ue170006Ev, symObjAddr: 0x16F5C, symBinAddr: 0x10001A74C, symSize: 0x20C }
  - { offsetInCU: 0xD25AB, offset: 0xD25AB, size: 0x8, addend: 0x0, symName: __ZNSt3__19allocatorIN5Eigen6MatrixIdLin1ELin1ELi0ELin1ELin1EEEE7destroyB8ue170006EPS3_, symObjAddr: 0x17168, symBinAddr: 0x10001A958, symSize: 0x28 }
  - { offsetInCU: 0xD25E4, offset: 0xD25E4, size: 0x8, addend: 0x0, symName: __ZNSt3__119__to_address_helperINS_16reverse_iteratorINS1_IPN5Eigen6MatrixIdLin1ELin1ELi0ELin1ELin1EEEEEEEvE6__callB8ue170006ERKS7_, symObjAddr: 0x17190, symBinAddr: 0x10001A980, symSize: 0x44 }
  - { offsetInCU: 0xD2607, offset: 0xD2607, size: 0x8, addend: 0x0, symName: __ZNKSt3__116reverse_iteratorINS0_IPN5Eigen6MatrixIdLin1ELin1ELi0ELin1ELin1EEEEEEptB8ue170006Ev, symObjAddr: 0x171D4, symBinAddr: 0x10001A9C4, symSize: 0x24 }
  - { offsetInCU: 0xD262D, offset: 0xD262D, size: 0x8, addend: 0x0, symName: __ZNKSt3__116reverse_iteratorINS0_IPN5Eigen6MatrixIdLin1ELin1ELi0ELin1ELin1EEEEEEdeB8ue170006Ev, symObjAddr: 0x171F8, symBinAddr: 0x10001A9E8, symSize: 0x1EC }
  - { offsetInCU: 0xD2666, offset: 0xD2666, size: 0x8, addend: 0x0, symName: __ZNSt3__116reverse_iteratorIPN5Eigen6MatrixIdLin1ELin1ELi0ELin1ELin1EEEEmmB8ue170006Ev, symObjAddr: 0x173E4, symBinAddr: 0x10001ABD4, symSize: 0x6C }
  - { offsetInCU: 0xD268C, offset: 0xD268C, size: 0x8, addend: 0x0, symName: __ZNSt3__116reverse_iteratorINS0_IPN5Eigen6MatrixIdLin1ELin1ELi0ELin1ELin1EEEEEEC2B8ue170006ES5_, symObjAddr: 0x17450, symBinAddr: 0x10001AC40, symSize: 0x22C }
  - { offsetInCU: 0xD26C9, offset: 0xD26C9, size: 0x8, addend: 0x0, symName: __ZNSt3__116reverse_iteratorIPN5Eigen6MatrixIdLin1ELin1ELi0ELin1ELin1EEEEC2B8ue170006ES4_, symObjAddr: 0x1767C, symBinAddr: 0x10001AE6C, symSize: 0xB8 }
  - { offsetInCU: 0xD2701, offset: 0xD2701, size: 0x8, addend: 0x0, symName: __ZNSt3__114__split_bufferIN5Eigen6MatrixIdLin1ELin1ELi0ELin1ELin1EEERNS_9allocatorIS3_EEED2Ev, symObjAddr: 0x17734, symBinAddr: 0x10001AF24, symSize: 0x104 }
  - { offsetInCU: 0xD272D, offset: 0xD272D, size: 0x8, addend: 0x0, symName: __ZNSt3__114__split_bufferIN5Eigen6MatrixIdLin1ELin1ELi0ELin1ELin1EEERNS_9allocatorIS3_EEE5clearB8ue170006Ev, symObjAddr: 0x17838, symBinAddr: 0x10001B028, symSize: 0x68 }
  - { offsetInCU: 0xD2753, offset: 0xD2753, size: 0x8, addend: 0x0, symName: __ZNSt3__116allocator_traitsINS_9allocatorIN5Eigen6MatrixIdLin1ELin1ELi0ELin1ELin1EEEEEE10deallocateB8ue170006ERS5_PS4_m, symObjAddr: 0x178A0, symBinAddr: 0x10001B090, symSize: 0x34 }
  - { offsetInCU: 0xD2795, offset: 0xD2795, size: 0x8, addend: 0x0, symName: __ZNKSt3__114__split_bufferIN5Eigen6MatrixIdLin1ELin1ELi0ELin1ELin1EEERNS_9allocatorIS3_EEE8capacityB8ue170006Ev, symObjAddr: 0x178D4, symBinAddr: 0x10001B0C4, symSize: 0xBC }
  - { offsetInCU: 0xD27BB, offset: 0xD27BB, size: 0x8, addend: 0x0, symName: __ZNSt3__114__split_bufferIN5Eigen6MatrixIdLin1ELin1ELi0ELin1ELin1EEERNS_9allocatorIS3_EEE17__destruct_at_endB8ue170006EPS3_, symObjAddr: 0x17990, symBinAddr: 0x10001B180, symSize: 0x2C }
  - { offsetInCU: 0xD27EF, offset: 0xD27EF, size: 0x8, addend: 0x0, symName: __ZNSt3__114__split_bufferIN5Eigen6MatrixIdLin1ELin1ELi0ELin1ELin1EEERNS_9allocatorIS3_EEE17__destruct_at_endB8ue170006EPS3_NS_17integral_constantIbLb0EEE, symObjAddr: 0x179BC, symBinAddr: 0x10001B1AC, symSize: 0x10C }
  - { offsetInCU: 0xD282F, offset: 0xD282F, size: 0x8, addend: 0x0, symName: __ZNSt3__19allocatorIN5Eigen6MatrixIdLin1ELin1ELi0ELin1ELin1EEEE10deallocateB8ue170006EPS3_m, symObjAddr: 0x17AC8, symBinAddr: 0x10001B2B8, symSize: 0x50 }
  - { offsetInCU: 0xD2871, offset: 0xD2871, size: 0x8, addend: 0x0, symName: __ZNKSt3__114__split_bufferIN5Eigen6MatrixIdLin1ELin1ELi0ELin1ELin1EEERNS_9allocatorIS3_EEE9__end_capB8ue170006Ev, symObjAddr: 0x17B18, symBinAddr: 0x10001B308, symSize: 0x28 }
  - { offsetInCU: 0xD2897, offset: 0xD2897, size: 0x8, addend: 0x0, symName: __ZNKSt3__117__compressed_pairIPN5Eigen6MatrixIdLin1ELin1ELi0ELin1ELin1EEERNS_9allocatorIS3_EEE5firstB8ue170006Ev, symObjAddr: 0x17B40, symBinAddr: 0x10001B330, symSize: 0x24 }
  - { offsetInCU: 0xD28BD, offset: 0xD28BD, size: 0x8, addend: 0x0, symName: __ZN5Eigen6MatrixIdLin1ELin1ELi0ELin1ELin1EEC2INS_14CwiseNullaryOpINS_8internal16scalar_random_opIdEES1_EEEERKNS_9EigenBaseIT_EE, symObjAddr: 0x17B64, symBinAddr: 0x10001B354, symSize: 0x40 }
  - { offsetInCU: 0xD28FF, offset: 0xD28FF, size: 0x8, addend: 0x0, symName: __ZNK5Eigen9EigenBaseINS_14CwiseNullaryOpINS_8internal16scalar_random_opIdEENS_6MatrixIdLin1ELin1ELi0ELin1ELin1EEEEEE7derivedEv, symObjAddr: 0x17BA4, symBinAddr: 0x10001B394, symSize: 0x14 }
  - { offsetInCU: 0xD2925, offset: 0xD2925, size: 0x8, addend: 0x0, symName: __ZN5Eigen15PlainObjectBaseINS_6MatrixIdLin1ELin1ELi0ELin1ELin1EEEEC2INS_14CwiseNullaryOpINS_8internal16scalar_random_opIdEES2_EEEERKNS_9DenseBaseIT_EE, symObjAddr: 0x17BB8, symBinAddr: 0x10001B3A8, symSize: 0x80 }
  - { offsetInCU: 0xD29A8, offset: 0xD29A8, size: 0x8, addend: 0x0, symName: __ZN5Eigen15PlainObjectBaseINS_6MatrixIdLin1ELin1ELi0ELin1ELin1EEEE10resizeLikeINS_14CwiseNullaryOpINS_8internal16scalar_random_opIdEES2_EEEEvRKNS_9EigenBaseIT_EE, symObjAddr: 0x17C38, symBinAddr: 0x10001B428, symSize: 0x11C }
  - { offsetInCU: 0xD2A3C, offset: 0xD2A3C, size: 0x8, addend: 0x0, symName: __ZN5Eigen15PlainObjectBaseINS_6MatrixIdLin1ELin1ELi0ELin1ELin1EEEE12_set_noaliasINS_14CwiseNullaryOpINS_8internal16scalar_random_opIdEES2_EEEERS2_RKNS_9DenseBaseIT_EE, symObjAddr: 0x17D54, symBinAddr: 0x10001B544, symSize: 0x21C }
  - { offsetInCU: 0xD2A7C, offset: 0xD2A7C, size: 0x8, addend: 0x0, symName: __ZNK5Eigen14CwiseNullaryOpINS_8internal16scalar_random_opIdEENS_6MatrixIdLin1ELin1ELi0ELin1ELin1EEEE4rowsEv, symObjAddr: 0x17F70, symBinAddr: 0x10001B760, symSize: 0x24 }
  - { offsetInCU: 0xD2AA2, offset: 0xD2AA2, size: 0x8, addend: 0x0, symName: __ZNK5Eigen14CwiseNullaryOpINS_8internal16scalar_random_opIdEENS_6MatrixIdLin1ELin1ELi0ELin1ELin1EEEE4colsEv, symObjAddr: 0x17F94, symBinAddr: 0x10001B784, symSize: 0x28 }
  - { offsetInCU: 0xD2AC8, offset: 0xD2AC8, size: 0x8, addend: 0x0, symName: __ZN5Eigen15PlainObjectBaseINS_6MatrixIdLin1ELin1ELi0ELin1ELin1EEEE6resizeEll, symObjAddr: 0x17FBC, symBinAddr: 0x10001B7AC, symSize: 0x150 }
  - { offsetInCU: 0xD2B44, offset: 0xD2B44, size: 0x8, addend: 0x0, symName: __ZNK5Eigen8internal19variable_if_dynamicIlLin1EE5valueEv, symObjAddr: 0x18144, symBinAddr: 0x10001B934, symSize: 0x60 }
  - { offsetInCU: 0xD2B6A, offset: 0xD2B6A, size: 0x8, addend: 0x0, symName: __ZN5Eigen12DenseStorageIdLin1ELin1ELin1ELi0EE6resizeElll, symObjAddr: 0x181A4, symBinAddr: 0x10001B994, symSize: 0x2C0 }
  - { offsetInCU: 0xD2BBD, offset: 0xD2BBD, size: 0x8, addend: 0x0, symName: __ZN5Eigen9EigenBaseINS_6MatrixIdLin1ELin1ELi0ELin1ELin1EEEE7derivedEv, symObjAddr: 0x1862C, symBinAddr: 0x10001BE1C, symSize: 0x14 }
  - { offsetInCU: 0xD2BE3, offset: 0xD2BE3, size: 0x8, addend: 0x0, symName: __ZN5Eigen8internal9assign_opIddEC1Ev, symObjAddr: 0x18640, symBinAddr: 0x10001BE30, symSize: 0x2C }
  - { offsetInCU: 0xD2C0D, offset: 0xD2C0D, size: 0x8, addend: 0x0, symName: __ZN5Eigen8internal10AssignmentINS_6MatrixIdLin1ELin1ELi0ELin1ELin1EEENS_14CwiseNullaryOpINS0_16scalar_random_opIdEES3_EENS0_9assign_opIddEENS0_11Dense2DenseEvE3runERS3_RKS7_RKS9_, symObjAddr: 0x1866C, symBinAddr: 0x10001BE5C, symSize: 0x40 }
  - { offsetInCU: 0xD2C4F, offset: 0xD2C4F, size: 0x8, addend: 0x0, symName: __ZN5Eigen8internal27checkTransposeAliasing_implINS_6MatrixIdLin1ELin1ELi0ELin1ELin1EEENS_14CwiseNullaryOpINS0_16scalar_random_opIdEES3_EELb0EE3runERKS3_RKS7_, symObjAddr: 0x18B04, symBinAddr: 0x10001C2F4, symSize: 0x14 }
  - { offsetInCU: 0xD2C9D, offset: 0xD2C9D, size: 0x8, addend: 0x0, symName: __ZN5Eigen8internal9evaluatorINS_14CwiseNullaryOpINS0_16scalar_random_opIdEENS_6MatrixIdLin1ELin1ELi0ELin1ELin1EEEEEEC1ERKS7_, symObjAddr: 0x18B18, symBinAddr: 0x10001C308, symSize: 0x34 }
  - { offsetInCU: 0xD2CD6, offset: 0xD2CD6, size: 0x8, addend: 0x0, symName: __ZN5Eigen8internal9evaluatorINS_6MatrixIdLin1ELin1ELi0ELin1ELin1EEEEC1ERKS3_, symObjAddr: 0x18C48, symBinAddr: 0x10001C438, symSize: 0x34 }
  - { offsetInCU: 0xD2D0F, offset: 0xD2D0F, size: 0x8, addend: 0x0, symName: __ZNK5Eigen9EigenBaseINS_6MatrixIdLin1ELin1ELi0ELin1ELin1EEEE18const_cast_derivedEv, symObjAddr: 0x18C7C, symBinAddr: 0x10001C46C, symSize: 0x14 }
  - { offsetInCU: 0xD2D62, offset: 0xD2D62, size: 0x8, addend: 0x0, symName: __ZN5Eigen8internal31generic_dense_assignment_kernelINS0_9evaluatorINS_6MatrixIdLin1ELin1ELi0ELin1ELin1EEEEENS2_INS_14CwiseNullaryOpINS0_16scalar_random_opIdEES4_EEEENS0_9assign_opIddEELi0EEC1ERS5_RKSA_RKSC_RS4_, symObjAddr: 0x18C90, symBinAddr: 0x10001C480, symSize: 0x4C }
  - { offsetInCU: 0xD2DCD, offset: 0xD2DCD, size: 0x8, addend: 0x0, symName: __ZN5Eigen8internal21dense_assignment_loopINS0_31generic_dense_assignment_kernelINS0_9evaluatorINS_6MatrixIdLin1ELin1ELi0ELin1ELin1EEEEENS3_INS_14CwiseNullaryOpINS0_16scalar_random_opIdEES5_EEEENS0_9assign_opIddEELi0EEELi1ELi0EE3runERSE_, symObjAddr: 0x18CDC, symBinAddr: 0x10001C4CC, symSize: 0x6C }
  - { offsetInCU: 0xD2E1D, offset: 0xD2E1D, size: 0x8, addend: 0x0, symName: __ZN5Eigen8internal9evaluatorINS_6MatrixIdLin1ELin1ELi0ELin1ELin1EEEED1Ev, symObjAddr: 0x18D48, symBinAddr: 0x10001C538, symSize: 0x2C }
  - { offsetInCU: 0xD2E4A, offset: 0xD2E4A, size: 0x8, addend: 0x0, symName: __ZN5Eigen8internal9evaluatorINS_14CwiseNullaryOpINS0_16scalar_random_opIdEENS_6MatrixIdLin1ELin1ELi0ELin1ELin1EEEEEED1Ev, symObjAddr: 0x18D74, symBinAddr: 0x10001C564, symSize: 0x2C }
  - { offsetInCU: 0xD2E76, offset: 0xD2E76, size: 0x8, addend: 0x0, symName: __ZN5Eigen8internal9evaluatorINS_14CwiseNullaryOpINS0_16scalar_random_opIdEENS_6MatrixIdLin1ELin1ELi0ELin1ELin1EEEEEEC2ERKS7_, symObjAddr: 0x18DA0, symBinAddr: 0x10001C590, symSize: 0x74 }
  - { offsetInCU: 0xD2EAF, offset: 0xD2EAF, size: 0x8, addend: 0x0, symName: __ZN5Eigen8internal14evaluator_baseINS_14CwiseNullaryOpINS0_16scalar_random_opIdEENS_6MatrixIdLin1ELin1ELi0ELin1ELin1EEEEEEC2Ev, symObjAddr: 0x18E14, symBinAddr: 0x10001C604, symSize: 0x14 }
  - { offsetInCU: 0xD2ED9, offset: 0xD2ED9, size: 0x8, addend: 0x0, symName: __ZNK5Eigen14CwiseNullaryOpINS_8internal16scalar_random_opIdEENS_6MatrixIdLin1ELin1ELi0ELin1ELin1EEEE7functorEv, symObjAddr: 0x18E28, symBinAddr: 0x10001C618, symSize: 0x18 }
  - { offsetInCU: 0xD2EFF, offset: 0xD2EFF, size: 0x8, addend: 0x0, symName: __ZN5Eigen8internal16scalar_random_opIdEC1ERKS2_, symObjAddr: 0x18E40, symBinAddr: 0x10001C630, symSize: 0x34 }
  - { offsetInCU: 0xD2F33, offset: 0xD2F33, size: 0x8, addend: 0x0, symName: __ZN5Eigen8internal14evaluator_baseINS_14CwiseNullaryOpINS0_16scalar_random_opIdEENS_6MatrixIdLin1ELin1ELi0ELin1ELin1EEEEEED2Ev, symObjAddr: 0x18E74, symBinAddr: 0x10001C664, symSize: 0x14 }
  - { offsetInCU: 0xD2F5D, offset: 0xD2F5D, size: 0x8, addend: 0x0, symName: __ZN5Eigen8internal16scalar_random_opIdEC2ERKS2_, symObjAddr: 0x18E88, symBinAddr: 0x10001C678, symSize: 0x18 }
  - { offsetInCU: 0xD2F91, offset: 0xD2F91, size: 0x8, addend: 0x0, symName: __ZN5Eigen8internal9evaluatorINS_6MatrixIdLin1ELin1ELi0ELin1ELin1EEEEC2ERKS3_, symObjAddr: 0x18EA0, symBinAddr: 0x10001C690, symSize: 0x34 }
  - { offsetInCU: 0xD2FCA, offset: 0xD2FCA, size: 0x8, addend: 0x0, symName: __ZN5Eigen8internal9evaluatorINS_15PlainObjectBaseINS_6MatrixIdLin1ELin1ELi0ELin1ELin1EEEEEEC2ERKS5_, symObjAddr: 0x18ED4, symBinAddr: 0x10001C6C4, symSize: 0x80 }
  - { offsetInCU: 0xD3002, offset: 0xD3002, size: 0x8, addend: 0x0, symName: __ZN5Eigen8internal14evaluator_baseINS_6MatrixIdLin1ELin1ELi0ELin1ELin1EEEEC2Ev, symObjAddr: 0x18F54, symBinAddr: 0x10001C744, symSize: 0x14 }
  - { offsetInCU: 0xD302C, offset: 0xD302C, size: 0x8, addend: 0x0, symName: __ZNK5Eigen15PlainObjectBaseINS_6MatrixIdLin1ELin1ELi0ELin1ELin1EEEE4dataEv, symObjAddr: 0x18F68, symBinAddr: 0x10001C758, symSize: 0x24 }
  - { offsetInCU: 0xD3052, offset: 0xD3052, size: 0x8, addend: 0x0, symName: __ZNK5Eigen15DenseCoeffsBaseINS_6MatrixIdLin1ELin1ELi0ELin1ELin1EEELi3EE11outerStrideEv, symObjAddr: 0x18F8C, symBinAddr: 0x10001C77C, symSize: 0x44 }
  - { offsetInCU: 0xD3078, offset: 0xD3078, size: 0x8, addend: 0x0, symName: __ZN5Eigen8internal30plainobjectbase_evaluator_dataIdLin1EEC1EPKdl, symObjAddr: 0x18FD0, symBinAddr: 0x10001C7C0, symSize: 0x3C }
  - { offsetInCU: 0xD30BE, offset: 0xD30BE, size: 0x8, addend: 0x0, symName: __ZN5Eigen8internal14evaluator_baseINS_6MatrixIdLin1ELin1ELi0ELin1ELin1EEEED2Ev, symObjAddr: 0x1900C, symBinAddr: 0x10001C7FC, symSize: 0x14 }
  - { offsetInCU: 0xD30E8, offset: 0xD30E8, size: 0x8, addend: 0x0, symName: __ZNK5Eigen12DenseStorageIdLin1ELin1ELin1ELi0EE4dataEv, symObjAddr: 0x19020, symBinAddr: 0x10001C810, symSize: 0x60 }
  - { offsetInCU: 0xD310E, offset: 0xD310E, size: 0x8, addend: 0x0, symName: __ZNK5Eigen9EigenBaseINS_6MatrixIdLin1ELin1ELi0ELin1ELin1EEEE7derivedEv, symObjAddr: 0x19080, symBinAddr: 0x10001C870, symSize: 0x14 }
  - { offsetInCU: 0xD3134, offset: 0xD3134, size: 0x8, addend: 0x0, symName: __ZNK5Eigen6MatrixIdLin1ELin1ELi0ELin1ELin1EE11outerStrideEv, symObjAddr: 0x19094, symBinAddr: 0x10001C884, symSize: 0x40 }
  - { offsetInCU: 0xD315A, offset: 0xD315A, size: 0x8, addend: 0x0, symName: __ZNK5Eigen9DenseBaseINS_6MatrixIdLin1ELin1ELi0ELin1ELin1EEEE9innerSizeEv, symObjAddr: 0x190D4, symBinAddr: 0x10001C8C4, symSize: 0x24 }
  - { offsetInCU: 0xD3180, offset: 0xD3180, size: 0x8, addend: 0x0, symName: __ZNK5Eigen9EigenBaseINS_6MatrixIdLin1ELin1ELi0ELin1ELin1EEEE4rowsEv, symObjAddr: 0x190F8, symBinAddr: 0x10001C8E8, symSize: 0x28 }
  - { offsetInCU: 0xD31A6, offset: 0xD31A6, size: 0x8, addend: 0x0, symName: __ZN5Eigen8internal30plainobjectbase_evaluator_dataIdLin1EEC2EPKdl, symObjAddr: 0x19120, symBinAddr: 0x10001C910, symSize: 0xBC }
  - { offsetInCU: 0xD31EC, offset: 0xD31EC, size: 0x8, addend: 0x0, symName: __ZN5Eigen8internal31generic_dense_assignment_kernelINS0_9evaluatorINS_6MatrixIdLin1ELin1ELi0ELin1ELin1EEEEENS2_INS_14CwiseNullaryOpINS0_16scalar_random_opIdEES4_EEEENS0_9assign_opIddEELi0EEC2ERS5_RKSA_RKSC_RS4_, symObjAddr: 0x191DC, symBinAddr: 0x10001C9CC, symSize: 0x14C }
  - { offsetInCU: 0xD3252, offset: 0xD3252, size: 0x8, addend: 0x0, symName: __ZNK5Eigen8internal31generic_dense_assignment_kernelINS0_9evaluatorINS_6MatrixIdLin1ELin1ELi0ELin1ELin1EEEEENS2_INS_14CwiseNullaryOpINS0_16scalar_random_opIdEES4_EEEENS0_9assign_opIddEELi0EE4sizeEv, symObjAddr: 0x19328, symBinAddr: 0x10001CB18, symSize: 0x68 }
  - { offsetInCU: 0xD3278, offset: 0xD3278, size: 0x8, addend: 0x0, symName: __ZN5Eigen8internal31generic_dense_assignment_kernelINS0_9evaluatorINS_6MatrixIdLin1ELin1ELi0ELin1ELin1EEEEENS2_INS_14CwiseNullaryOpINS0_16scalar_random_opIdEES4_EEEENS0_9assign_opIddEELi0EE11assignCoeffEl, symObjAddr: 0x19390, symBinAddr: 0x10001CB80, symSize: 0x2E0 }
  - { offsetInCU: 0xD32AF, offset: 0xD32AF, size: 0x8, addend: 0x0, symName: __ZNK5Eigen9EigenBaseINS_6MatrixIdLin1ELin1ELi0ELin1ELin1EEEE4sizeEv, symObjAddr: 0x19670, symBinAddr: 0x10001CE60, symSize: 0x44 }
  - { offsetInCU: 0xD32D5, offset: 0xD32D5, size: 0x8, addend: 0x0, symName: __ZNK5Eigen9EigenBaseINS_6MatrixIdLin1ELin1ELi0ELin1ELin1EEEE4colsEv, symObjAddr: 0x196B4, symBinAddr: 0x10001CEA4, symSize: 0x28 }
  - { offsetInCU: 0xD32FB, offset: 0xD32FB, size: 0x8, addend: 0x0, symName: __ZNK5Eigen8internal9assign_opIddE11assignCoeffERdRKd, symObjAddr: 0x196DC, symBinAddr: 0x10001CECC, symSize: 0xB0 }
  - { offsetInCU: 0xD333D, offset: 0xD333D, size: 0x8, addend: 0x0, symName: __ZN5Eigen8internal9evaluatorINS_15PlainObjectBaseINS_6MatrixIdLin1ELin1ELi0ELin1ELin1EEEEEE8coeffRefEl, symObjAddr: 0x1978C, symBinAddr: 0x10001CF7C, symSize: 0x6C }
  - { offsetInCU: 0xD337B, offset: 0xD337B, size: 0x8, addend: 0x0, symName: __ZNK5Eigen8internal9evaluatorINS_14CwiseNullaryOpINS0_16scalar_random_opIdEENS_6MatrixIdLin1ELin1ELi0ELin1ELin1EEEEEE5coeffIlEEdT_, symObjAddr: 0x197F8, symBinAddr: 0x10001CFE8, symSize: 0x38 }
  - { offsetInCU: 0xD33BE, offset: 0xD33BE, size: 0x8, addend: 0x0, symName: __ZNK5Eigen8internal15nullary_wrapperIdNS0_16scalar_random_opIdEELb1ELb0ELb0EEclIlEEdRKS3_T_S8_, symObjAddr: 0x19830, symBinAddr: 0x10001D020, symSize: 0x30 }
  - { offsetInCU: 0xD3412, offset: 0xD3412, size: 0x8, addend: 0x0, symName: __ZNK5Eigen8internal16scalar_random_opIdEclEv, symObjAddr: 0x19860, symBinAddr: 0x10001D050, symSize: 0x20 }
  - { offsetInCU: 0xD3438, offset: 0xD3438, size: 0x8, addend: 0x0, symName: __ZN5Eigen8internal19random_default_implIdLb0ELb0EE3runEv, symObjAddr: 0x19894, symBinAddr: 0x10001D084, symSize: 0x288 }
  - { offsetInCU: 0xD344C, offset: 0xD344C, size: 0x8, addend: 0x0, symName: __ZN5Eigen8internal19random_default_implIdLb0ELb0EE3runERKdS4_, symObjAddr: 0x19B1C, symBinAddr: 0x10001D30C, symSize: 0x118 }
  - { offsetInCU: 0xD347F, offset: 0xD347F, size: 0x8, addend: 0x0, symName: __ZN5Eigen8internal9evaluatorINS_6MatrixIdLin1ELin1ELi0ELin1ELin1EEEED2Ev, symObjAddr: 0x19C34, symBinAddr: 0x10001D424, symSize: 0x2C }
  - { offsetInCU: 0xD34AC, offset: 0xD34AC, size: 0x8, addend: 0x0, symName: __ZN5Eigen8internal9evaluatorINS_15PlainObjectBaseINS_6MatrixIdLin1ELin1ELi0ELin1ELin1EEEEEED2Ev, symObjAddr: 0x19C60, symBinAddr: 0x10001D450, symSize: 0x2C }
  - { offsetInCU: 0xD34D8, offset: 0xD34D8, size: 0x8, addend: 0x0, symName: __ZN5Eigen8internal9evaluatorINS_14CwiseNullaryOpINS0_16scalar_random_opIdEENS_6MatrixIdLin1ELin1ELi0ELin1ELin1EEEEEED2Ev, symObjAddr: 0x19C8C, symBinAddr: 0x10001D47C, symSize: 0x2C }
  - { offsetInCU: 0xD3504, offset: 0xD3504, size: 0x8, addend: 0x0, symName: __ZN5Eigen8internal9assign_opIddEC2Ev, symObjAddr: 0x19CB8, symBinAddr: 0x10001D4A8, symSize: 0x14 }
  - { offsetInCU: 0xD352E, offset: 0xD352E, size: 0x8, addend: 0x0, symName: __ZN5Eigen15PlainObjectBaseINS_6MatrixIdLin1ELin1ELi0ELin1ELin1EEEE4_setINS_14CwiseNullaryOpINS_8internal16scalar_random_opIdEES2_EEEERS2_RKNS_9DenseBaseIT_EE, symObjAddr: 0x19CCC, symBinAddr: 0x10001D4BC, symSize: 0x4C }
  - { offsetInCU: 0xD356C, offset: 0xD356C, size: 0x8, addend: 0x0, symName: __ZNSt3__16vectorIN5Eigen6MatrixIdLin1ELin1ELi0ELin1ELin1EEENS_9allocatorIS3_EEED2B8ue170006Ev, symObjAddr: 0x19F48, symBinAddr: 0x10001D738, symSize: 0x1F8 }
  - { offsetInCU: 0xD3597, offset: 0xD3597, size: 0x8, addend: 0x0, symName: __ZNSt3__16vectorIN5Eigen6MatrixIdLin1ELin1ELi0ELin1ELin1EEENS_9allocatorIS3_EEE16__destroy_vectorC1B8ue170006ERS6_, symObjAddr: 0x1A140, symBinAddr: 0x10001D930, symSize: 0x34 }
  - { offsetInCU: 0xD35D0, offset: 0xD35D0, size: 0x8, addend: 0x0, symName: __ZNSt3__16vectorIN5Eigen6MatrixIdLin1ELin1ELi0ELin1ELin1EEENS_9allocatorIS3_EEE16__destroy_vectorclB8ue170006Ev, symObjAddr: 0x1A174, symBinAddr: 0x10001D964, symSize: 0x228 }
  - { offsetInCU: 0xD35F6, offset: 0xD35F6, size: 0x8, addend: 0x0, symName: __ZNSt3__16vectorIN5Eigen6MatrixIdLin1ELin1ELi0ELin1ELin1EEENS_9allocatorIS3_EEE16__destroy_vectorC2B8ue170006ERS6_, symObjAddr: 0x1A39C, symBinAddr: 0x10001DB8C, symSize: 0x70 }
  - { offsetInCU: 0xD362F, offset: 0xD362F, size: 0x8, addend: 0x0, symName: __ZNSt3__16vectorIN5Eigen6MatrixIdLin1ELin1ELi0ELin1ELin1EEENS_9allocatorIS3_EEE7__clearB8ue170006Ev, symObjAddr: 0x1A40C, symBinAddr: 0x10001DBFC, symSize: 0x64 }
  - { offsetInCU: 0xD3655, offset: 0xD3655, size: 0x8, addend: 0x0, symName: __ZNSt3__16vectorIN5Eigen6MatrixIdLin1ELin1ELi0ELin1ELin1EEENS_9allocatorIS3_EEE22__base_destruct_at_endB8ue170006EPS3_, symObjAddr: 0x1A470, symBinAddr: 0x10001DC60, symSize: 0x114 }
  - { offsetInCU: 0xD3699, offset: 0xD3699, size: 0x8, addend: 0x0, symName: __ZN5Eigen9DenseBaseINS_6MatrixIdLin1ELin1ELi0ELin1ELin1EEEE11NullaryExprINS_8internal16scalar_random_opIdEEEEKNS_14CwiseNullaryOpIT_S2_EEllRKS9_, symObjAddr: 0x1A584, symBinAddr: 0x10001DD74, symSize: 0x48 }
  - { offsetInCU: 0xD36E6, offset: 0xD36E6, size: 0x8, addend: 0x0, symName: __ZN5Eigen8internal16scalar_random_opIdEC1Ev, symObjAddr: 0x1A5CC, symBinAddr: 0x10001DDBC, symSize: 0x2C }
  - { offsetInCU: 0xD3710, offset: 0xD3710, size: 0x8, addend: 0x0, symName: __ZN5Eigen14CwiseNullaryOpINS_8internal16scalar_random_opIdEENS_6MatrixIdLin1ELin1ELi0ELin1ELin1EEEEC1EllRKS3_, symObjAddr: 0x1A5F8, symBinAddr: 0x10001DDE8, symSize: 0x44 }
  - { offsetInCU: 0xD3764, offset: 0xD3764, size: 0x8, addend: 0x0, symName: __ZN5Eigen14CwiseNullaryOpINS_8internal16scalar_random_opIdEENS_6MatrixIdLin1ELin1ELi0ELin1ELin1EEEEC2EllRKS3_, symObjAddr: 0x1A63C, symBinAddr: 0x10001DE2C, symSize: 0xE0 }
  - { offsetInCU: 0xD37B8, offset: 0xD37B8, size: 0x8, addend: 0x0, symName: __ZN5Eigen10MatrixBaseINS_14CwiseNullaryOpINS_8internal16scalar_random_opIdEENS_6MatrixIdLin1ELin1ELi0ELin1ELin1EEEEEEC2Ev, symObjAddr: 0x1A71C, symBinAddr: 0x10001DF0C, symSize: 0x2C }
  - { offsetInCU: 0xD37E2, offset: 0xD37E2, size: 0x8, addend: 0x0, symName: __ZN5Eigen8internal19variable_if_dynamicIlLin1EEC1El, symObjAddr: 0x1A748, symBinAddr: 0x10001DF38, symSize: 0x34 }
  - { offsetInCU: 0xD381A, offset: 0xD381A, size: 0x8, addend: 0x0, symName: __ZN5Eigen9DenseBaseINS_14CwiseNullaryOpINS_8internal16scalar_random_opIdEENS_6MatrixIdLin1ELin1ELi0ELin1ELin1EEEEEEC2Ev, symObjAddr: 0x1A77C, symBinAddr: 0x10001DF6C, symSize: 0x14 }
  - { offsetInCU: 0xD3844, offset: 0xD3844, size: 0x8, addend: 0x0, symName: __ZN5Eigen8internal19variable_if_dynamicIlLin1EEC2El, symObjAddr: 0x1A790, symBinAddr: 0x10001DF80, symSize: 0x70 }
  - { offsetInCU: 0xD387C, offset: 0xD387C, size: 0x8, addend: 0x0, symName: __ZN5Eigen8internal16scalar_random_opIdEC2Ev, symObjAddr: 0x1A800, symBinAddr: 0x10001DFF0, symSize: 0x14 }
  - { offsetInCU: 0xD38A6, offset: 0xD38A6, size: 0x8, addend: 0x0, symName: __ZN5Eigen6MatrixIdLin1ELin1ELi0ELin1ELin1EEC2INS_14CwiseNullaryOpINS_8internal16scalar_random_opIdEES1_EEEERKT_, symObjAddr: 0x1A814, symBinAddr: 0x10001E004, symSize: 0x68 }
  - { offsetInCU: 0xD38E8, offset: 0xD38E8, size: 0x8, addend: 0x0, symName: __ZN5Eigen15PlainObjectBaseINS_6MatrixIdLin1ELin1ELi0ELin1ELin1EEEE6_init1INS_14CwiseNullaryOpINS_8internal16scalar_random_opIdEES2_EES9_EEvRKNS_9DenseBaseIT0_EE, symObjAddr: 0x1A87C, symBinAddr: 0x10001E06C, symSize: 0x2C }
  - { offsetInCU: 0xD392F, offset: 0xD392F, size: 0x8, addend: 0x0, symName: __ZN5Eigen9DenseBaseINS_6MatrixIdLin1ELi1ELi0ELin1ELi1EEEE11NullaryExprINS_8internal16scalar_random_opIdEEEEKNS_14CwiseNullaryOpIT_S2_EElRKS9_, symObjAddr: 0x1A8A8, symBinAddr: 0x10001E098, symSize: 0x44 }
  - { offsetInCU: 0xD396D, offset: 0xD396D, size: 0x8, addend: 0x0, symName: __ZN5Eigen14CwiseNullaryOpINS_8internal16scalar_random_opIdEENS_6MatrixIdLin1ELi1ELi0ELin1ELi1EEEEC1EllRKS3_, symObjAddr: 0x1A8EC, symBinAddr: 0x10001E0DC, symSize: 0x44 }
  - { offsetInCU: 0xD39C1, offset: 0xD39C1, size: 0x8, addend: 0x0, symName: __ZN5Eigen14CwiseNullaryOpINS_8internal16scalar_random_opIdEENS_6MatrixIdLin1ELi1ELi0ELin1ELi1EEEEC2EllRKS3_, symObjAddr: 0x1A930, symBinAddr: 0x10001E120, symSize: 0xEC }
  - { offsetInCU: 0xD3A15, offset: 0xD3A15, size: 0x8, addend: 0x0, symName: __ZN5Eigen10MatrixBaseINS_14CwiseNullaryOpINS_8internal16scalar_random_opIdEENS_6MatrixIdLin1ELi1ELi0ELin1ELi1EEEEEEC2Ev, symObjAddr: 0x1AA1C, symBinAddr: 0x10001E20C, symSize: 0x2C }
  - { offsetInCU: 0xD3A3F, offset: 0xD3A3F, size: 0x8, addend: 0x0, symName: __ZN5Eigen8internal19variable_if_dynamicIlLi1EEC1El, symObjAddr: 0x1AA48, symBinAddr: 0x10001E238, symSize: 0x34 }
  - { offsetInCU: 0xD3A77, offset: 0xD3A77, size: 0x8, addend: 0x0, symName: __ZN5Eigen9DenseBaseINS_14CwiseNullaryOpINS_8internal16scalar_random_opIdEENS_6MatrixIdLin1ELi1ELi0ELin1ELi1EEEEEEC2Ev, symObjAddr: 0x1AA7C, symBinAddr: 0x10001E26C, symSize: 0x14 }
  - { offsetInCU: 0xD3AA1, offset: 0xD3AA1, size: 0x8, addend: 0x0, symName: __ZN5Eigen8internal19variable_if_dynamicIlLi1EEC2El, symObjAddr: 0x1AA90, symBinAddr: 0x10001E280, symSize: 0x68 }
  - { offsetInCU: 0xD3AD9, offset: 0xD3AD9, size: 0x8, addend: 0x0, symName: __ZN5Eigen6MatrixIdLin1ELi1ELi0ELin1ELi1EEC2INS_14CwiseNullaryOpINS_8internal16scalar_random_opIdEES1_EEEERKT_, symObjAddr: 0x1AAF8, symBinAddr: 0x10001E2E8, symSize: 0x68 }
  - { offsetInCU: 0xD3B1B, offset: 0xD3B1B, size: 0x8, addend: 0x0, symName: __ZN5Eigen15PlainObjectBaseINS_6MatrixIdLin1ELi1ELi0ELin1ELi1EEEEC2Ev, symObjAddr: 0x1AB60, symBinAddr: 0x10001E350, symSize: 0x34 }
  - { offsetInCU: 0xD3B45, offset: 0xD3B45, size: 0x8, addend: 0x0, symName: __ZN5Eigen15PlainObjectBaseINS_6MatrixIdLin1ELi1ELi0ELin1ELi1EEEE6_init1INS_14CwiseNullaryOpINS_8internal16scalar_random_opIdEES2_EES9_EEvRKNS_9DenseBaseIT0_EE, symObjAddr: 0x1AB94, symBinAddr: 0x10001E384, symSize: 0x2C }
  - { offsetInCU: 0xD3B8C, offset: 0xD3B8C, size: 0x8, addend: 0x0, symName: __ZN5Eigen12DenseStorageIdLin1ELin1ELi1ELi0EEC1Ev, symObjAddr: 0x1ABC0, symBinAddr: 0x10001E3B0, symSize: 0x2C }
  - { offsetInCU: 0xD3BB6, offset: 0xD3BB6, size: 0x8, addend: 0x0, symName: __ZN5Eigen12DenseStorageIdLin1ELin1ELi1ELi0EEC2Ev, symObjAddr: 0x1ABEC, symBinAddr: 0x10001E3DC, symSize: 0x9C }
  - { offsetInCU: 0xD3BE0, offset: 0xD3BE0, size: 0x8, addend: 0x0, symName: __ZN5Eigen15PlainObjectBaseINS_6MatrixIdLin1ELi1ELi0ELin1ELi1EEEE12_set_noaliasINS_14CwiseNullaryOpINS_8internal16scalar_random_opIdEES2_EEEERS2_RKNS_9DenseBaseIT_EE, symObjAddr: 0x1AC88, symBinAddr: 0x10001E478, symSize: 0x21C }
  - { offsetInCU: 0xD3C20, offset: 0xD3C20, size: 0x8, addend: 0x0, symName: __ZN5Eigen9EigenBaseINS_6MatrixIdLin1ELi1ELi0ELin1ELi1EEEE7derivedEv, symObjAddr: 0x1AEE0, symBinAddr: 0x10001E6D0, symSize: 0x14 }
  - { offsetInCU: 0xD3C46, offset: 0xD3C46, size: 0x8, addend: 0x0, symName: __ZNK5Eigen9EigenBaseINS_14CwiseNullaryOpINS_8internal16scalar_random_opIdEENS_6MatrixIdLin1ELi1ELi0ELin1ELi1EEEEEE7derivedEv, symObjAddr: 0x1AEF4, symBinAddr: 0x10001E6E4, symSize: 0x14 }
  - { offsetInCU: 0xD3C6C, offset: 0xD3C6C, size: 0x8, addend: 0x0, symName: __ZN5Eigen8internal10AssignmentINS_6MatrixIdLin1ELi1ELi0ELin1ELi1EEENS_14CwiseNullaryOpINS0_16scalar_random_opIdEES3_EENS0_9assign_opIddEENS0_11Dense2DenseEvE3runERS3_RKS7_RKS9_, symObjAddr: 0x1AF08, symBinAddr: 0x10001E6F8, symSize: 0x40 }
  - { offsetInCU: 0xD3CCC, offset: 0xD3CCC, size: 0x8, addend: 0x0, symName: __ZN5Eigen8internal9evaluatorINS_14CwiseNullaryOpINS0_16scalar_random_opIdEENS_6MatrixIdLin1ELi1ELi0ELin1ELi1EEEEEEC1ERKS7_, symObjAddr: 0x1B358, symBinAddr: 0x10001EB48, symSize: 0x34 }
  - { offsetInCU: 0xD3D05, offset: 0xD3D05, size: 0x8, addend: 0x0, symName: __ZN5Eigen8internal9evaluatorINS_6MatrixIdLin1ELi1ELi0ELin1ELi1EEEEC1ERKS3_, symObjAddr: 0x1B488, symBinAddr: 0x10001EC78, symSize: 0x34 }
  - { offsetInCU: 0xD3D3E, offset: 0xD3D3E, size: 0x8, addend: 0x0, symName: __ZNK5Eigen9EigenBaseINS_6MatrixIdLin1ELi1ELi0ELin1ELi1EEEE18const_cast_derivedEv, symObjAddr: 0x1B4BC, symBinAddr: 0x10001ECAC, symSize: 0x14 }
  - { offsetInCU: 0xD3D91, offset: 0xD3D91, size: 0x8, addend: 0x0, symName: __ZN5Eigen8internal31generic_dense_assignment_kernelINS0_9evaluatorINS_6MatrixIdLin1ELi1ELi0ELin1ELi1EEEEENS2_INS_14CwiseNullaryOpINS0_16scalar_random_opIdEES4_EEEENS0_9assign_opIddEELi0EEC1ERS5_RKSA_RKSC_RS4_, symObjAddr: 0x1B4D0, symBinAddr: 0x10001ECC0, symSize: 0x4C }
  - { offsetInCU: 0xD3DFC, offset: 0xD3DFC, size: 0x8, addend: 0x0, symName: __ZN5Eigen8internal21dense_assignment_loopINS0_31generic_dense_assignment_kernelINS0_9evaluatorINS_6MatrixIdLin1ELi1ELi0ELin1ELi1EEEEENS3_INS_14CwiseNullaryOpINS0_16scalar_random_opIdEES5_EEEENS0_9assign_opIddEELi0EEELi1ELi0EE3runERSE_, symObjAddr: 0x1B51C, symBinAddr: 0x10001ED0C, symSize: 0x6C }
  - { offsetInCU: 0xD3E4C, offset: 0xD3E4C, size: 0x8, addend: 0x0, symName: __ZN5Eigen8internal9evaluatorINS_6MatrixIdLin1ELi1ELi0ELin1ELi1EEEED1Ev, symObjAddr: 0x1B588, symBinAddr: 0x10001ED78, symSize: 0x2C }
  - { offsetInCU: 0xD3E79, offset: 0xD3E79, size: 0x8, addend: 0x0, symName: __ZN5Eigen8internal9evaluatorINS_14CwiseNullaryOpINS0_16scalar_random_opIdEENS_6MatrixIdLin1ELi1ELi0ELin1ELi1EEEEEED1Ev, symObjAddr: 0x1B5B4, symBinAddr: 0x10001EDA4, symSize: 0x2C }
  - { offsetInCU: 0xD3EA5, offset: 0xD3EA5, size: 0x8, addend: 0x0, symName: __ZN5Eigen8internal9evaluatorINS_14CwiseNullaryOpINS0_16scalar_random_opIdEENS_6MatrixIdLin1ELi1ELi0ELin1ELi1EEEEEEC2ERKS7_, symObjAddr: 0x1B5E0, symBinAddr: 0x10001EDD0, symSize: 0x74 }
  - { offsetInCU: 0xD3EDE, offset: 0xD3EDE, size: 0x8, addend: 0x0, symName: __ZN5Eigen8internal14evaluator_baseINS_14CwiseNullaryOpINS0_16scalar_random_opIdEENS_6MatrixIdLin1ELi1ELi0ELin1ELi1EEEEEEC2Ev, symObjAddr: 0x1B654, symBinAddr: 0x10001EE44, symSize: 0x14 }
  - { offsetInCU: 0xD3F08, offset: 0xD3F08, size: 0x8, addend: 0x0, symName: __ZNK5Eigen14CwiseNullaryOpINS_8internal16scalar_random_opIdEENS_6MatrixIdLin1ELi1ELi0ELin1ELi1EEEE7functorEv, symObjAddr: 0x1B668, symBinAddr: 0x10001EE58, symSize: 0x18 }
  - { offsetInCU: 0xD3F2E, offset: 0xD3F2E, size: 0x8, addend: 0x0, symName: __ZN5Eigen8internal14evaluator_baseINS_14CwiseNullaryOpINS0_16scalar_random_opIdEENS_6MatrixIdLin1ELi1ELi0ELin1ELi1EEEEEED2Ev, symObjAddr: 0x1B680, symBinAddr: 0x10001EE70, symSize: 0x14 }
  - { offsetInCU: 0xD3F58, offset: 0xD3F58, size: 0x8, addend: 0x0, symName: __ZNK5Eigen14CwiseNullaryOpINS_8internal16scalar_random_opIdEENS_6MatrixIdLin1ELi1ELi0ELin1ELi1EEEE4rowsEv, symObjAddr: 0x1B694, symBinAddr: 0x10001EE84, symSize: 0x24 }
  - { offsetInCU: 0xD3F7E, offset: 0xD3F7E, size: 0x8, addend: 0x0, symName: __ZNK5Eigen14CwiseNullaryOpINS_8internal16scalar_random_opIdEENS_6MatrixIdLin1ELi1ELi0ELin1ELi1EEEE4colsEv, symObjAddr: 0x1B6B8, symBinAddr: 0x10001EEA8, symSize: 0x20 }
  - { offsetInCU: 0xD3FA4, offset: 0xD3FA4, size: 0x8, addend: 0x0, symName: __ZN5Eigen15PlainObjectBaseINS_6MatrixIdLin1ELi1ELi0ELin1ELi1EEEE6resizeEll, symObjAddr: 0x1B6D8, symBinAddr: 0x10001EEC8, symSize: 0x16C }
  - { offsetInCU: 0xD4020, offset: 0xD4020, size: 0x8, addend: 0x0, symName: __ZN5Eigen8internal19variable_if_dynamicIlLi1EE5valueEv, symObjAddr: 0x1B844, symBinAddr: 0x10001F034, symSize: 0x8 }
  - { offsetInCU: 0xD4034, offset: 0xD4034, size: 0x8, addend: 0x0, symName: __ZN5Eigen12DenseStorageIdLin1ELin1ELi1ELi0EE6resizeElll, symObjAddr: 0x1B84C, symBinAddr: 0x10001F03C, symSize: 0x1FC }
  - { offsetInCU: 0xD4083, offset: 0xD4083, size: 0x8, addend: 0x0, symName: __ZN5Eigen8internal9evaluatorINS_6MatrixIdLin1ELi1ELi0ELin1ELi1EEEEC2ERKS3_, symObjAddr: 0x1BA48, symBinAddr: 0x10001F238, symSize: 0x34 }
  - { offsetInCU: 0xD40BC, offset: 0xD40BC, size: 0x8, addend: 0x0, symName: __ZN5Eigen8internal9evaluatorINS_15PlainObjectBaseINS_6MatrixIdLin1ELi1ELi0ELin1ELi1EEEEEEC2ERKS5_, symObjAddr: 0x1BA7C, symBinAddr: 0x10001F26C, symSize: 0x78 }
  - { offsetInCU: 0xD40F4, offset: 0xD40F4, size: 0x8, addend: 0x0, symName: __ZN5Eigen8internal14evaluator_baseINS_6MatrixIdLin1ELi1ELi0ELin1ELi1EEEEC2Ev, symObjAddr: 0x1BAF4, symBinAddr: 0x10001F2E4, symSize: 0x14 }
  - { offsetInCU: 0xD411E, offset: 0xD411E, size: 0x8, addend: 0x0, symName: __ZNK5Eigen15PlainObjectBaseINS_6MatrixIdLin1ELi1ELi0ELin1ELi1EEEE4dataEv, symObjAddr: 0x1BB08, symBinAddr: 0x10001F2F8, symSize: 0x24 }
  - { offsetInCU: 0xD4144, offset: 0xD4144, size: 0x8, addend: 0x0, symName: __ZN5Eigen8internal30plainobjectbase_evaluator_dataIdLi0EEC1EPKdl, symObjAddr: 0x1BB2C, symBinAddr: 0x10001F31C, symSize: 0x3C }
  - { offsetInCU: 0xD418A, offset: 0xD418A, size: 0x8, addend: 0x0, symName: __ZN5Eigen8internal14evaluator_baseINS_6MatrixIdLin1ELi1ELi0ELin1ELi1EEEED2Ev, symObjAddr: 0x1BB68, symBinAddr: 0x10001F358, symSize: 0x14 }
  - { offsetInCU: 0xD41B4, offset: 0xD41B4, size: 0x8, addend: 0x0, symName: __ZNK5Eigen12DenseStorageIdLin1ELin1ELi1ELi0EE4dataEv, symObjAddr: 0x1BB7C, symBinAddr: 0x10001F36C, symSize: 0x60 }
  - { offsetInCU: 0xD41DA, offset: 0xD41DA, size: 0x8, addend: 0x0, symName: __ZN5Eigen8internal30plainobjectbase_evaluator_dataIdLi0EEC2EPKdl, symObjAddr: 0x1BBDC, symBinAddr: 0x10001F3CC, symSize: 0x240 }
  - { offsetInCU: 0xD4226, offset: 0xD4226, size: 0x8, addend: 0x0, symName: __ZN5Eigen8internal31generic_dense_assignment_kernelINS0_9evaluatorINS_6MatrixIdLin1ELi1ELi0ELin1ELi1EEEEENS2_INS_14CwiseNullaryOpINS0_16scalar_random_opIdEES4_EEEENS0_9assign_opIddEELi0EEC2ERS5_RKSA_RKSC_RS4_, symObjAddr: 0x1BE2C, symBinAddr: 0x10001F61C, symSize: 0x14C }
  - { offsetInCU: 0xD428C, offset: 0xD428C, size: 0x8, addend: 0x0, symName: __ZNK5Eigen8internal31generic_dense_assignment_kernelINS0_9evaluatorINS_6MatrixIdLin1ELi1ELi0ELin1ELi1EEEEENS2_INS_14CwiseNullaryOpINS0_16scalar_random_opIdEES4_EEEENS0_9assign_opIddEELi0EE4sizeEv, symObjAddr: 0x1BF78, symBinAddr: 0x10001F768, symSize: 0x68 }
  - { offsetInCU: 0xD42B2, offset: 0xD42B2, size: 0x8, addend: 0x0, symName: __ZN5Eigen8internal31generic_dense_assignment_kernelINS0_9evaluatorINS_6MatrixIdLin1ELi1ELi0ELin1ELi1EEEEENS2_INS_14CwiseNullaryOpINS0_16scalar_random_opIdEES4_EEEENS0_9assign_opIddEELi0EE11assignCoeffEl, symObjAddr: 0x1BFE0, symBinAddr: 0x10001F7D0, symSize: 0x2E0 }
  - { offsetInCU: 0xD42E9, offset: 0xD42E9, size: 0x8, addend: 0x0, symName: __ZN5Eigen8internal9evaluatorINS_15PlainObjectBaseINS_6MatrixIdLin1ELi1ELi0ELin1ELi1EEEEEE8coeffRefEl, symObjAddr: 0x1C2C0, symBinAddr: 0x10001FAB0, symSize: 0x6C }
  - { offsetInCU: 0xD4327, offset: 0xD4327, size: 0x8, addend: 0x0, symName: __ZNK5Eigen8internal9evaluatorINS_14CwiseNullaryOpINS0_16scalar_random_opIdEENS_6MatrixIdLin1ELi1ELi0ELin1ELi1EEEEEE5coeffIlEEdT_, symObjAddr: 0x1C32C, symBinAddr: 0x10001FB1C, symSize: 0x38 }
  - { offsetInCU: 0xD4365, offset: 0xD4365, size: 0x8, addend: 0x0, symName: __ZN5Eigen8internal9evaluatorINS_6MatrixIdLin1ELi1ELi0ELin1ELi1EEEED2Ev, symObjAddr: 0x1C364, symBinAddr: 0x10001FB54, symSize: 0x2C }
  - { offsetInCU: 0xD4392, offset: 0xD4392, size: 0x8, addend: 0x0, symName: __ZN5Eigen8internal9evaluatorINS_15PlainObjectBaseINS_6MatrixIdLin1ELi1ELi0ELin1ELi1EEEEEED2Ev, symObjAddr: 0x1C390, symBinAddr: 0x10001FB80, symSize: 0x2C }
  - { offsetInCU: 0xD43BE, offset: 0xD43BE, size: 0x8, addend: 0x0, symName: __ZN5Eigen8internal9evaluatorINS_14CwiseNullaryOpINS0_16scalar_random_opIdEENS_6MatrixIdLin1ELi1ELi0ELin1ELi1EEEEEED2Ev, symObjAddr: 0x1C3BC, symBinAddr: 0x10001FBAC, symSize: 0x2C }
  - { offsetInCU: 0xD43EA, offset: 0xD43EA, size: 0x8, addend: 0x0, symName: __ZN18MultiHeadAttentionD2Ev, symObjAddr: 0x1C3E8, symBinAddr: 0x10001FBD8, symSize: 0x54 }
  - { offsetInCU: 0xD4416, offset: 0xD4416, size: 0x8, addend: 0x0, symName: __ZN23TransformerEncoderLayerD2Ev, symObjAddr: 0x1C43C, symBinAddr: 0x10001FC2C, symSize: 0x78 }
  - { offsetInCU: 0xD4442, offset: 0xD4442, size: 0x8, addend: 0x0, symName: __ZNSt3__16vectorI23TransformerDecoderLayerNS_9allocatorIS1_EEE9__end_capB8ue170006Ev, symObjAddr: 0x1C4B4, symBinAddr: 0x10001FCA4, symSize: 0x28 }
  - { offsetInCU: 0xD446E, offset: 0xD446E, size: 0x8, addend: 0x0, symName: __ZNSt3__16vectorI23TransformerDecoderLayerNS_9allocatorIS1_EEE22__construct_one_at_endB8ue170006IJS1_EEEvDpOT_, symObjAddr: 0x1C4DC, symBinAddr: 0x10001FCCC, symSize: 0x36C }
  - { offsetInCU: 0xD44C3, offset: 0xD44C3, size: 0x8, addend: 0x0, symName: __ZNSt3__16vectorI23TransformerDecoderLayerNS_9allocatorIS1_EEE21__push_back_slow_pathIS1_EEvOT_, symObjAddr: 0x1C848, symBinAddr: 0x100020038, symSize: 0x3C0 }
  - { offsetInCU: 0xD4528, offset: 0xD4528, size: 0x8, addend: 0x0, symName: __ZNSt3__117__compressed_pairIP23TransformerDecoderLayerNS_9allocatorIS1_EEE5firstB8ue170006Ev, symObjAddr: 0x1CC08, symBinAddr: 0x1000203F8, symSize: 0x24 }
  - { offsetInCU: 0xD454E, offset: 0xD454E, size: 0x8, addend: 0x0, symName: __ZNSt3__122__compressed_pair_elemIP23TransformerDecoderLayerLi0ELb0EE5__getB8ue170006Ev, symObjAddr: 0x1CC2C, symBinAddr: 0x10002041C, symSize: 0x14 }
  - { offsetInCU: 0xD458D, offset: 0xD458D, size: 0x8, addend: 0x0, symName: __ZNSt3__16vectorI23TransformerDecoderLayerNS_9allocatorIS1_EEE21_ConstructTransactionC1B8ue170006ERS4_m, symObjAddr: 0x1CC40, symBinAddr: 0x100020430, symSize: 0x3C }
  - { offsetInCU: 0xD45D5, offset: 0xD45D5, size: 0x8, addend: 0x0, symName: __ZNSt3__116allocator_traitsINS_9allocatorI23TransformerDecoderLayerEEE9constructB8ue170006IS2_JS2_EvEEvRS3_PT_DpOT0_, symObjAddr: 0x1CC7C, symBinAddr: 0x10002046C, symSize: 0x34 }
  - { offsetInCU: 0xD462C, offset: 0xD462C, size: 0x8, addend: 0x0, symName: __ZNSt3__16vectorI23TransformerDecoderLayerNS_9allocatorIS1_EEE7__allocB8ue170006Ev, symObjAddr: 0x1CCB0, symBinAddr: 0x1000204A0, symSize: 0x28 }
  - { offsetInCU: 0xD4652, offset: 0xD4652, size: 0x8, addend: 0x0, symName: __ZNSt3__16vectorI23TransformerDecoderLayerNS_9allocatorIS1_EEE21_ConstructTransactionD1B8ue170006Ev, symObjAddr: 0x1CCEC, symBinAddr: 0x1000204DC, symSize: 0x2C }
  - { offsetInCU: 0xD467C, offset: 0xD467C, size: 0x8, addend: 0x0, symName: __ZNSt3__16vectorI23TransformerDecoderLayerNS_9allocatorIS1_EEE21_ConstructTransactionC2B8ue170006ERS4_m, symObjAddr: 0x1CD18, symBinAddr: 0x100020508, symSize: 0x1D8 }
  - { offsetInCU: 0xD46C4, offset: 0xD46C4, size: 0x8, addend: 0x0, symName: __ZNKSt3__16vectorI23TransformerDecoderLayerNS_9allocatorIS1_EEE19__annotate_increaseB8ue170006Em, symObjAddr: 0x1CEF0, symBinAddr: 0x1000206E0, symSize: 0xF8 }
  - { offsetInCU: 0xD46F9, offset: 0xD46F9, size: 0x8, addend: 0x0, symName: __ZNKSt3__16vectorI23TransformerDecoderLayerNS_9allocatorIS1_EEE31__annotate_contiguous_containerEPKvS6_S6_S6_, symObjAddr: 0x1CFE8, symBinAddr: 0x1000207D8, symSize: 0x58 }
  - { offsetInCU: 0xD475B, offset: 0xD475B, size: 0x8, addend: 0x0, symName: __ZNKSt3__16vectorI23TransformerDecoderLayerNS_9allocatorIS1_EEE4dataB8ue170006Ev, symObjAddr: 0x1D040, symBinAddr: 0x100020830, symSize: 0x64 }
  - { offsetInCU: 0xD4781, offset: 0xD4781, size: 0x8, addend: 0x0, symName: __ZNKSt3__16vectorI23TransformerDecoderLayerNS_9allocatorIS1_EEE8capacityB8ue170006Ev, symObjAddr: 0x1D0A4, symBinAddr: 0x100020894, symSize: 0xBC }
  - { offsetInCU: 0xD47A7, offset: 0xD47A7, size: 0x8, addend: 0x0, symName: __ZNKSt3__16vectorI23TransformerDecoderLayerNS_9allocatorIS1_EEE4sizeB8ue170006Ev, symObjAddr: 0x1D160, symBinAddr: 0x100020950, symSize: 0xB0 }
  - { offsetInCU: 0xD47CD, offset: 0xD47CD, size: 0x8, addend: 0x0, symName: __ZNKSt3__16vectorI23TransformerDecoderLayerNS_9allocatorIS1_EEE9__end_capB8ue170006Ev, symObjAddr: 0x1D210, symBinAddr: 0x100020A00, symSize: 0x28 }
  - { offsetInCU: 0xD47F3, offset: 0xD47F3, size: 0x8, addend: 0x0, symName: __ZNKSt3__117__compressed_pairIP23TransformerDecoderLayerNS_9allocatorIS1_EEE5firstB8ue170006Ev, symObjAddr: 0x1D238, symBinAddr: 0x100020A28, symSize: 0x24 }
  - { offsetInCU: 0xD4819, offset: 0xD4819, size: 0x8, addend: 0x0, symName: __ZNKSt3__122__compressed_pair_elemIP23TransformerDecoderLayerLi0ELb0EE5__getB8ue170006Ev, symObjAddr: 0x1D25C, symBinAddr: 0x100020A4C, symSize: 0x14 }
  - { offsetInCU: 0xD483F, offset: 0xD483F, size: 0x8, addend: 0x0, symName: __ZNSt3__19allocatorI23TransformerDecoderLayerE9constructB8ue170006IS1_JS1_EEEvPT_DpOT0_, symObjAddr: 0x1D270, symBinAddr: 0x100020A60, symSize: 0x30 }
  - { offsetInCU: 0xD4895, offset: 0xD4895, size: 0x8, addend: 0x0, symName: __ZN23TransformerDecoderLayerC1EOS_, symObjAddr: 0x1D2A0, symBinAddr: 0x100020A90, symSize: 0x34 }
  - { offsetInCU: 0xD48CA, offset: 0xD48CA, size: 0x8, addend: 0x0, symName: __ZN23TransformerDecoderLayerC2EOS_, symObjAddr: 0x1D2D4, symBinAddr: 0x100020AC4, symSize: 0x100 }
  - { offsetInCU: 0xD48FF, offset: 0xD48FF, size: 0x8, addend: 0x0, symName: __ZNSt3__117__compressed_pairIP23TransformerDecoderLayerNS_9allocatorIS1_EEE6secondB8ue170006Ev, symObjAddr: 0x1D3D4, symBinAddr: 0x100020BC4, symSize: 0x24 }
  - { offsetInCU: 0xD4925, offset: 0xD4925, size: 0x8, addend: 0x0, symName: __ZNSt3__122__compressed_pair_elemINS_9allocatorI23TransformerDecoderLayerEELi1ELb1EE5__getB8ue170006Ev, symObjAddr: 0x1D3F8, symBinAddr: 0x100020BE8, symSize: 0x14 }
  - { offsetInCU: 0xD494B, offset: 0xD494B, size: 0x8, addend: 0x0, symName: __ZNSt3__16vectorI23TransformerDecoderLayerNS_9allocatorIS1_EEE21_ConstructTransactionD2B8ue170006Ev, symObjAddr: 0x1D40C, symBinAddr: 0x100020BFC, symSize: 0x278 }
  - { offsetInCU: 0xD4975, offset: 0xD4975, size: 0x8, addend: 0x0, symName: __ZNKSt3__16vectorI23TransformerDecoderLayerNS_9allocatorIS1_EEE17__annotate_shrinkB8ue170006Em, symObjAddr: 0x1D684, symBinAddr: 0x100020E74, symSize: 0xE4 }
  - { offsetInCU: 0xD49AA, offset: 0xD49AA, size: 0x8, addend: 0x0, symName: __ZNKSt3__16vectorI23TransformerDecoderLayerNS_9allocatorIS1_EEE11__recommendB8ue170006Em, symObjAddr: 0x1D768, symBinAddr: 0x100020F58, symSize: 0x384 }
  - { offsetInCU: 0xD4A06, offset: 0xD4A06, size: 0x8, addend: 0x0, symName: __ZNSt3__114__split_bufferI23TransformerDecoderLayerRNS_9allocatorIS1_EEEC1EmmS4_, symObjAddr: 0x1DAEC, symBinAddr: 0x1000212DC, symSize: 0x44 }
  - { offsetInCU: 0xD4A5C, offset: 0xD4A5C, size: 0x8, addend: 0x0, symName: __ZNSt3__114__split_bufferI23TransformerDecoderLayerRNS_9allocatorIS1_EEED1Ev, symObjAddr: 0x1E09C, symBinAddr: 0x10002188C, symSize: 0x2C }
  - { offsetInCU: 0xD4A88, offset: 0xD4A88, size: 0x8, addend: 0x0, symName: __ZNKSt3__16vectorI23TransformerDecoderLayerNS_9allocatorIS1_EEE8max_sizeEv, symObjAddr: 0x1E0C8, symBinAddr: 0x1000218B8, symSize: 0x2FC }
  - { offsetInCU: 0xD4AB1, offset: 0xD4AB1, size: 0x8, addend: 0x0, symName: __ZNKSt3__16vectorI23TransformerDecoderLayerNS_9allocatorIS1_EEE20__throw_length_errorB8ue170006Ev, symObjAddr: 0x1E3C4, symBinAddr: 0x100021BB4, symSize: 0x20 }
  - { offsetInCU: 0xD4AE1, offset: 0xD4AE1, size: 0x8, addend: 0x0, symName: __ZNSt3__116allocator_traitsINS_9allocatorI23TransformerDecoderLayerEEE8max_sizeB8ue170006IS3_vEEmRKS3_, symObjAddr: 0x1E3E4, symBinAddr: 0x100021BD4, symSize: 0x24 }
  - { offsetInCU: 0xD4B0F, offset: 0xD4B0F, size: 0x8, addend: 0x0, symName: __ZNKSt3__16vectorI23TransformerDecoderLayerNS_9allocatorIS1_EEE7__allocB8ue170006Ev, symObjAddr: 0x1E408, symBinAddr: 0x100021BF8, symSize: 0x28 }
  - { offsetInCU: 0xD4B35, offset: 0xD4B35, size: 0x8, addend: 0x0, symName: __ZNKSt3__19allocatorI23TransformerDecoderLayerE8max_sizeB8ue170006Ev, symObjAddr: 0x1E430, symBinAddr: 0x100021C20, symSize: 0x18 }
  - { offsetInCU: 0xD4B5B, offset: 0xD4B5B, size: 0x8, addend: 0x0, symName: __ZNKSt3__117__compressed_pairIP23TransformerDecoderLayerNS_9allocatorIS1_EEE6secondB8ue170006Ev, symObjAddr: 0x1E448, symBinAddr: 0x100021C38, symSize: 0x24 }
  - { offsetInCU: 0xD4B81, offset: 0xD4B81, size: 0x8, addend: 0x0, symName: __ZNKSt3__122__compressed_pair_elemINS_9allocatorI23TransformerDecoderLayerEELi1ELb1EE5__getB8ue170006Ev, symObjAddr: 0x1E46C, symBinAddr: 0x100021C5C, symSize: 0x14 }
  - { offsetInCU: 0xD4BA7, offset: 0xD4BA7, size: 0x8, addend: 0x0, symName: __ZNSt3__114__split_bufferI23TransformerDecoderLayerRNS_9allocatorIS1_EEEC2EmmS4_, symObjAddr: 0x1E480, symBinAddr: 0x100021C70, symSize: 0x530 }
  - { offsetInCU: 0xD4C22, offset: 0xD4C22, size: 0x8, addend: 0x0, symName: __ZNSt3__117__compressed_pairIP23TransformerDecoderLayerRNS_9allocatorIS1_EEEC1B8ue170006IDnS5_EEOT_OT0_, symObjAddr: 0x1E9B0, symBinAddr: 0x1000221A0, symSize: 0x3C }
  - { offsetInCU: 0xD4C7A, offset: 0xD4C7A, size: 0x8, addend: 0x0, symName: __ZNSt3__114__split_bufferI23TransformerDecoderLayerRNS_9allocatorIS1_EEE7__allocB8ue170006Ev, symObjAddr: 0x1EC78, symBinAddr: 0x100022468, symSize: 0x28 }
  - { offsetInCU: 0xD4CA0, offset: 0xD4CA0, size: 0x8, addend: 0x0, symName: __ZNSt3__114__split_bufferI23TransformerDecoderLayerRNS_9allocatorIS1_EEE9__end_capB8ue170006Ev, symObjAddr: 0x1ECA0, symBinAddr: 0x100022490, symSize: 0x28 }
  - { offsetInCU: 0xD4CC6, offset: 0xD4CC6, size: 0x8, addend: 0x0, symName: __ZNSt3__117__compressed_pairIP23TransformerDecoderLayerRNS_9allocatorIS1_EEEC2B8ue170006IDnS5_EEOT_OT0_, symObjAddr: 0x1ECC8, symBinAddr: 0x1000224B8, symSize: 0x48 }
  - { offsetInCU: 0xD4D1E, offset: 0xD4D1E, size: 0x8, addend: 0x0, symName: __ZNSt3__122__compressed_pair_elemIRNS_9allocatorI23TransformerDecoderLayerEELi1ELb0EEC2B8ue170006IS4_vEEOT_, symObjAddr: 0x1ED10, symBinAddr: 0x100022500, symSize: 0x70 }
  - { offsetInCU: 0xD4D60, offset: 0xD4D60, size: 0x8, addend: 0x0, symName: __ZNSt3__19allocatorI23TransformerDecoderLayerE8allocateB8ue170006Em, symObjAddr: 0x1ED80, symBinAddr: 0x100022570, symSize: 0x60 }
  - { offsetInCU: 0xD4D94, offset: 0xD4D94, size: 0x8, addend: 0x0, symName: __ZNSt3__117__compressed_pairIP23TransformerDecoderLayerRNS_9allocatorIS1_EEE6secondB8ue170006Ev, symObjAddr: 0x1EDE0, symBinAddr: 0x1000225D0, symSize: 0x28 }
  - { offsetInCU: 0xD4DBA, offset: 0xD4DBA, size: 0x8, addend: 0x0, symName: __ZNSt3__122__compressed_pair_elemIRNS_9allocatorI23TransformerDecoderLayerEELi1ELb0EE5__getB8ue170006Ev, symObjAddr: 0x1EE08, symBinAddr: 0x1000225F8, symSize: 0x60 }
  - { offsetInCU: 0xD4DE0, offset: 0xD4DE0, size: 0x8, addend: 0x0, symName: __ZNSt3__117__compressed_pairIP23TransformerDecoderLayerRNS_9allocatorIS1_EEE5firstB8ue170006Ev, symObjAddr: 0x1EE68, symBinAddr: 0x100022658, symSize: 0x24 }
  - { offsetInCU: 0xD4E06, offset: 0xD4E06, size: 0x8, addend: 0x0, symName: __ZNKSt3__16vectorI23TransformerDecoderLayerNS_9allocatorIS1_EEE17__annotate_deleteB8ue170006Ev, symObjAddr: 0x1EE8C, symBinAddr: 0x10002267C, symSize: 0xE8 }
  - { offsetInCU: 0xD4E2C, offset: 0xD4E2C, size: 0x8, addend: 0x0, symName: __ZNSt3__116reverse_iteratorIP23TransformerDecoderLayerEC1B8ue170006ES2_, symObjAddr: 0x1F4B8, symBinAddr: 0x100022CA8, symSize: 0x34 }
  - { offsetInCU: 0xD4E64, offset: 0xD4E64, size: 0x8, addend: 0x0, symName: __ZNKSt3__116reverse_iteratorIP23TransformerDecoderLayerE4baseB8ue170006Ev, symObjAddr: 0x1F4EC, symBinAddr: 0x100022CDC, symSize: 0x64 }
  - { offsetInCU: 0xD4E8A, offset: 0xD4E8A, size: 0x8, addend: 0x0, symName: __ZNKSt3__16vectorI23TransformerDecoderLayerNS_9allocatorIS1_EEE14__annotate_newB8ue170006Em, symObjAddr: 0x1F684, symBinAddr: 0x100022E74, symSize: 0xDC }
  - { offsetInCU: 0xD4EBF, offset: 0xD4EBF, size: 0x8, addend: 0x0, symName: __ZNSt3__129_AllocatorDestroyRangeReverseINS_9allocatorI23TransformerDecoderLayerEENS_16reverse_iteratorIPS2_EEEC1B8ue170006ERS3_RS6_S9_, symObjAddr: 0x1F958, symBinAddr: 0x100023148, symSize: 0x44 }
  - { offsetInCU: 0xD4F16, offset: 0xD4F16, size: 0x8, addend: 0x0, symName: __ZNKSt3__116reverse_iteratorIP23TransformerDecoderLayerEdeB8ue170006Ev, symObjAddr: 0x1FA08, symBinAddr: 0x1000231F8, symSize: 0x74 }
  - { offsetInCU: 0xD4F4A, offset: 0xD4F4A, size: 0x8, addend: 0x0, symName: __ZNSt3__116reverse_iteratorIP23TransformerDecoderLayerEppB8ue170006Ev, symObjAddr: 0x1FA7C, symBinAddr: 0x10002326C, symSize: 0x6C }
  - { offsetInCU: 0xD4F70, offset: 0xD4F70, size: 0x8, addend: 0x0, symName: __ZNSt3__128__exception_guard_exceptionsINS_29_AllocatorDestroyRangeReverseINS_9allocatorI23TransformerDecoderLayerEENS_16reverse_iteratorIPS3_EEEEE10__completeB8ue170006Ev, symObjAddr: 0x1FAE8, symBinAddr: 0x1000232D8, symSize: 0x8C }
  - { offsetInCU: 0xD4F96, offset: 0xD4F96, size: 0x8, addend: 0x0, symName: __ZNSt3__128__exception_guard_exceptionsINS_29_AllocatorDestroyRangeReverseINS_9allocatorI23TransformerDecoderLayerEENS_16reverse_iteratorIPS3_EEEEED1B8ue170006Ev, symObjAddr: 0x1FB74, symBinAddr: 0x100023364, symSize: 0x2C }
  - { offsetInCU: 0xD4FC0, offset: 0xD4FC0, size: 0x8, addend: 0x0, symName: __ZNSt3__128__exception_guard_exceptionsINS_29_AllocatorDestroyRangeReverseINS_9allocatorI23TransformerDecoderLayerEENS_16reverse_iteratorIPS3_EEEEEC1B8ue170006ES8_, symObjAddr: 0x1FBA0, symBinAddr: 0x100023390, symSize: 0x34 }
  - { offsetInCU: 0xD4FF9, offset: 0xD4FF9, size: 0x8, addend: 0x0, symName: __ZNSt3__128__exception_guard_exceptionsINS_29_AllocatorDestroyRangeReverseINS_9allocatorI23TransformerDecoderLayerEENS_16reverse_iteratorIPS3_EEEEEC2B8ue170006ES8_, symObjAddr: 0x1FBD4, symBinAddr: 0x1000233C4, symSize: 0xA4 }
  - { offsetInCU: 0xD5032, offset: 0xD5032, size: 0x8, addend: 0x0, symName: __ZNSt3__129_AllocatorDestroyRangeReverseINS_9allocatorI23TransformerDecoderLayerEENS_16reverse_iteratorIPS2_EEEC2B8ue170006ERS3_RS6_S9_, symObjAddr: 0x1FC78, symBinAddr: 0x100023468, symSize: 0x104 }
  - { offsetInCU: 0xD508E, offset: 0xD508E, size: 0x8, addend: 0x0, symName: __ZNSt3__119__to_address_helperINS_16reverse_iteratorIP23TransformerDecoderLayerEEvE6__callB8ue170006ERKS4_, symObjAddr: 0x1FD7C, symBinAddr: 0x10002356C, symSize: 0x44 }
  - { offsetInCU: 0xD50B1, offset: 0xD50B1, size: 0x8, addend: 0x0, symName: __ZNKSt3__116reverse_iteratorIP23TransformerDecoderLayerEptB8ue170006Ev, symObjAddr: 0x1FDC0, symBinAddr: 0x1000235B0, symSize: 0x24 }
  - { offsetInCU: 0xD50D7, offset: 0xD50D7, size: 0x8, addend: 0x0, symName: __ZNSt3__128__exception_guard_exceptionsINS_29_AllocatorDestroyRangeReverseINS_9allocatorI23TransformerDecoderLayerEENS_16reverse_iteratorIPS3_EEEEED2B8ue170006Ev, symObjAddr: 0x1FDE4, symBinAddr: 0x1000235D4, symSize: 0xBC }
  - { offsetInCU: 0xD5101, offset: 0xD5101, size: 0x8, addend: 0x0, symName: __ZNKSt3__129_AllocatorDestroyRangeReverseINS_9allocatorI23TransformerDecoderLayerEENS_16reverse_iteratorIPS2_EEEclB8ue170006Ev, symObjAddr: 0x1FEA0, symBinAddr: 0x100023690, symSize: 0x3A8 }
  - { offsetInCU: 0xD5128, offset: 0xD5128, size: 0x8, addend: 0x0, symName: __ZNSt3__116reverse_iteratorINS0_IP23TransformerDecoderLayerEEEC1B8ue170006ES3_, symObjAddr: 0x202B8, symBinAddr: 0x100023AA8, symSize: 0x248 }
  - { offsetInCU: 0xD5165, offset: 0xD5165, size: 0x8, addend: 0x0, symName: __ZNSt3__116allocator_traitsINS_9allocatorI23TransformerDecoderLayerEEE7destroyB8ue170006IS2_vEEvRS3_PT_, symObjAddr: 0x207CC, symBinAddr: 0x100023FBC, symSize: 0x2C }
  - { offsetInCU: 0xD51A2, offset: 0xD51A2, size: 0x8, addend: 0x0, symName: __ZNSt3__116reverse_iteratorINS0_IP23TransformerDecoderLayerEEEppB8ue170006Ev, symObjAddr: 0x2081C, symBinAddr: 0x10002400C, symSize: 0x30 }
  - { offsetInCU: 0xD51C8, offset: 0xD51C8, size: 0x8, addend: 0x0, symName: __ZNKSt3__116reverse_iteratorINS0_IP23TransformerDecoderLayerEEE4baseB8ue170006Ev, symObjAddr: 0x2084C, symBinAddr: 0x10002403C, symSize: 0x20C }
  - { offsetInCU: 0xD51EF, offset: 0xD51EF, size: 0x8, addend: 0x0, symName: __ZNSt3__19allocatorI23TransformerDecoderLayerE7destroyB8ue170006EPS1_, symObjAddr: 0x20A58, symBinAddr: 0x100024248, symSize: 0x28 }
  - { offsetInCU: 0xD5228, offset: 0xD5228, size: 0x8, addend: 0x0, symName: __ZNSt3__119__to_address_helperINS_16reverse_iteratorINS1_IP23TransformerDecoderLayerEEEEvE6__callB8ue170006ERKS5_, symObjAddr: 0x20A80, symBinAddr: 0x100024270, symSize: 0x44 }
  - { offsetInCU: 0xD524B, offset: 0xD524B, size: 0x8, addend: 0x0, symName: __ZNKSt3__116reverse_iteratorINS0_IP23TransformerDecoderLayerEEEptB8ue170006Ev, symObjAddr: 0x20AC4, symBinAddr: 0x1000242B4, symSize: 0x24 }
  - { offsetInCU: 0xD5271, offset: 0xD5271, size: 0x8, addend: 0x0, symName: __ZNKSt3__116reverse_iteratorINS0_IP23TransformerDecoderLayerEEEdeB8ue170006Ev, symObjAddr: 0x20AE8, symBinAddr: 0x1000242D8, symSize: 0x1EC }
  - { offsetInCU: 0xD52AA, offset: 0xD52AA, size: 0x8, addend: 0x0, symName: __ZNSt3__116reverse_iteratorIP23TransformerDecoderLayerEmmB8ue170006Ev, symObjAddr: 0x20CD4, symBinAddr: 0x1000244C4, symSize: 0x6C }
  - { offsetInCU: 0xD52D0, offset: 0xD52D0, size: 0x8, addend: 0x0, symName: __ZNSt3__116reverse_iteratorINS0_IP23TransformerDecoderLayerEEEC2B8ue170006ES3_, symObjAddr: 0x20D40, symBinAddr: 0x100024530, symSize: 0x22C }
  - { offsetInCU: 0xD530D, offset: 0xD530D, size: 0x8, addend: 0x0, symName: __ZNSt3__116reverse_iteratorIP23TransformerDecoderLayerEC2B8ue170006ES2_, symObjAddr: 0x20F6C, symBinAddr: 0x10002475C, symSize: 0xB8 }
  - { offsetInCU: 0xD5345, offset: 0xD5345, size: 0x8, addend: 0x0, symName: __ZNSt3__114__split_bufferI23TransformerDecoderLayerRNS_9allocatorIS1_EEED2Ev, symObjAddr: 0x21024, symBinAddr: 0x100024814, symSize: 0x104 }
  - { offsetInCU: 0xD5371, offset: 0xD5371, size: 0x8, addend: 0x0, symName: __ZNSt3__114__split_bufferI23TransformerDecoderLayerRNS_9allocatorIS1_EEE5clearB8ue170006Ev, symObjAddr: 0x21128, symBinAddr: 0x100024918, symSize: 0x68 }
  - { offsetInCU: 0xD5397, offset: 0xD5397, size: 0x8, addend: 0x0, symName: __ZNSt3__116allocator_traitsINS_9allocatorI23TransformerDecoderLayerEEE10deallocateB8ue170006ERS3_PS2_m, symObjAddr: 0x21190, symBinAddr: 0x100024980, symSize: 0x34 }
  - { offsetInCU: 0xD53D9, offset: 0xD53D9, size: 0x8, addend: 0x0, symName: __ZNKSt3__114__split_bufferI23TransformerDecoderLayerRNS_9allocatorIS1_EEE8capacityB8ue170006Ev, symObjAddr: 0x211C4, symBinAddr: 0x1000249B4, symSize: 0xBC }
  - { offsetInCU: 0xD53FF, offset: 0xD53FF, size: 0x8, addend: 0x0, symName: __ZNSt3__114__split_bufferI23TransformerDecoderLayerRNS_9allocatorIS1_EEE17__destruct_at_endB8ue170006EPS1_, symObjAddr: 0x21280, symBinAddr: 0x100024A70, symSize: 0x2C }
  - { offsetInCU: 0xD5433, offset: 0xD5433, size: 0x8, addend: 0x0, symName: __ZNSt3__114__split_bufferI23TransformerDecoderLayerRNS_9allocatorIS1_EEE17__destruct_at_endB8ue170006EPS1_NS_17integral_constantIbLb0EEE, symObjAddr: 0x212AC, symBinAddr: 0x100024A9C, symSize: 0x10C }
  - { offsetInCU: 0xD5473, offset: 0xD5473, size: 0x8, addend: 0x0, symName: __ZNSt3__19allocatorI23TransformerDecoderLayerE10deallocateB8ue170006EPS1_m, symObjAddr: 0x213B8, symBinAddr: 0x100024BA8, symSize: 0x50 }
  - { offsetInCU: 0xD54B5, offset: 0xD54B5, size: 0x8, addend: 0x0, symName: __ZNKSt3__114__split_bufferI23TransformerDecoderLayerRNS_9allocatorIS1_EEE9__end_capB8ue170006Ev, symObjAddr: 0x21408, symBinAddr: 0x100024BF8, symSize: 0x28 }
  - { offsetInCU: 0xD54DB, offset: 0xD54DB, size: 0x8, addend: 0x0, symName: __ZNKSt3__117__compressed_pairIP23TransformerDecoderLayerRNS_9allocatorIS1_EEE5firstB8ue170006Ev, symObjAddr: 0x21430, symBinAddr: 0x100024C20, symSize: 0x24 }
  - { offsetInCU: 0xD5501, offset: 0xD5501, size: 0x8, addend: 0x0, symName: __ZN23TransformerDecoderLayerC2Eiii, symObjAddr: 0x21454, symBinAddr: 0x100024C44, symSize: 0x868 }
  - { offsetInCU: 0xD5559, offset: 0xD5559, size: 0x8, addend: 0x0, symName: __ZN23TransformerDecoderLayerD2Ev, symObjAddr: 0x21CBC, symBinAddr: 0x1000254AC, symSize: 0x9C }
  - { offsetInCU: 0xD5585, offset: 0xD5585, size: 0x8, addend: 0x0, symName: __ZNSt3__16vectorI23TransformerDecoderLayerNS_9allocatorIS1_EEED2B8ue170006Ev, symObjAddr: 0x21D58, symBinAddr: 0x100025548, symSize: 0x1F8 }
  - { offsetInCU: 0xD55B0, offset: 0xD55B0, size: 0x8, addend: 0x0, symName: __ZNSt3__16vectorI23TransformerDecoderLayerNS_9allocatorIS1_EEE16__destroy_vectorC1B8ue170006ERS4_, symObjAddr: 0x21F50, symBinAddr: 0x100025740, symSize: 0x34 }
  - { offsetInCU: 0xD55E9, offset: 0xD55E9, size: 0x8, addend: 0x0, symName: __ZNSt3__16vectorI23TransformerDecoderLayerNS_9allocatorIS1_EEE16__destroy_vectorclB8ue170006Ev, symObjAddr: 0x21F84, symBinAddr: 0x100025774, symSize: 0x228 }
  - { offsetInCU: 0xD560F, offset: 0xD560F, size: 0x8, addend: 0x0, symName: __ZNSt3__16vectorI23TransformerDecoderLayerNS_9allocatorIS1_EEE16__destroy_vectorC2B8ue170006ERS4_, symObjAddr: 0x221AC, symBinAddr: 0x10002599C, symSize: 0x70 }
  - { offsetInCU: 0xD5648, offset: 0xD5648, size: 0x8, addend: 0x0, symName: __ZNSt3__16vectorI23TransformerDecoderLayerNS_9allocatorIS1_EEE7__clearB8ue170006Ev, symObjAddr: 0x2221C, symBinAddr: 0x100025A0C, symSize: 0x64 }
  - { offsetInCU: 0xD566E, offset: 0xD566E, size: 0x8, addend: 0x0, symName: __ZNSt3__16vectorI23TransformerDecoderLayerNS_9allocatorIS1_EEE22__base_destruct_at_endB8ue170006EPS1_, symObjAddr: 0x22280, symBinAddr: 0x100025A70, symSize: 0x114 }
  - { offsetInCU: 0xD56B2, offset: 0xD56B2, size: 0x8, addend: 0x0, symName: __ZNSt3__16vectorI23TransformerEncoderLayerNS_9allocatorIS1_EEED2B8ue170006Ev, symObjAddr: 0x22394, symBinAddr: 0x100025B84, symSize: 0x1F8 }
  - { offsetInCU: 0xD56DD, offset: 0xD56DD, size: 0x8, addend: 0x0, symName: __ZNSt3__16vectorI23TransformerEncoderLayerNS_9allocatorIS1_EEE16__destroy_vectorC1B8ue170006ERS4_, symObjAddr: 0x2258C, symBinAddr: 0x100025D7C, symSize: 0x34 }
  - { offsetInCU: 0xD5716, offset: 0xD5716, size: 0x8, addend: 0x0, symName: __ZNSt3__16vectorI23TransformerEncoderLayerNS_9allocatorIS1_EEE16__destroy_vectorclB8ue170006Ev, symObjAddr: 0x225C0, symBinAddr: 0x100025DB0, symSize: 0x228 }
  - { offsetInCU: 0xD573C, offset: 0xD573C, size: 0x8, addend: 0x0, symName: __ZNSt3__16vectorI23TransformerEncoderLayerNS_9allocatorIS1_EEE16__destroy_vectorC2B8ue170006ERS4_, symObjAddr: 0x227E8, symBinAddr: 0x100025FD8, symSize: 0x70 }
  - { offsetInCU: 0xD5775, offset: 0xD5775, size: 0x8, addend: 0x0, symName: __ZNSt3__16vectorI23TransformerEncoderLayerNS_9allocatorIS1_EEE7__clearB8ue170006Ev, symObjAddr: 0x22858, symBinAddr: 0x100026048, symSize: 0x64 }
  - { offsetInCU: 0xD579B, offset: 0xD579B, size: 0x8, addend: 0x0, symName: __ZNSt3__16vectorI23TransformerEncoderLayerNS_9allocatorIS1_EEE22__base_destruct_at_endB8ue170006EPS1_, symObjAddr: 0x228BC, symBinAddr: 0x1000260AC, symSize: 0x114 }
  - { offsetInCU: 0xD57DF, offset: 0xD57DF, size: 0x8, addend: 0x0, symName: __ZN5Eigen6MatrixIdLin1ELin1ELi0ELin1ELin1EEC1ERKS1_, symObjAddr: 0x229D0, symBinAddr: 0x1000261C0, symSize: 0x34 }
  - { offsetInCU: 0xD5818, offset: 0xD5818, size: 0x8, addend: 0x0, symName: __ZNSt3__16vectorI23TransformerEncoderLayerNS_9allocatorIS1_EEEixB8ue170006Em, symObjAddr: 0x22A04, symBinAddr: 0x1000261F4, symSize: 0x74 }
  - { offsetInCU: 0xD584F, offset: 0xD584F, size: 0x8, addend: 0x0, symName: __ZN23TransformerEncoderLayerclERKN5Eigen6MatrixIdLin1ELin1ELi0ELin1ELin1EEE, symObjAddr: 0x22A78, symBinAddr: 0x100026268, symSize: 0x6C4 }
  - { offsetInCU: 0xD58CC, offset: 0xD58CC, size: 0x8, addend: 0x0, symName: __ZN5Eigen6MatrixIdLin1ELin1ELi0ELin1ELin1EEaSEOS1_, symObjAddr: 0x2313C, symBinAddr: 0x10002692C, symSize: 0x34 }
  - { offsetInCU: 0xD5901, offset: 0xD5901, size: 0x8, addend: 0x0, symName: __ZNSt3__16vectorI23TransformerDecoderLayerNS_9allocatorIS1_EEEixB8ue170006Em, symObjAddr: 0x23170, symBinAddr: 0x100026960, symSize: 0x74 }
  - { offsetInCU: 0xD5938, offset: 0xD5938, size: 0x8, addend: 0x0, symName: __ZN23TransformerDecoderLayerclERKN5Eigen6MatrixIdLin1ELin1ELi0ELin1ELin1EEES4_, symObjAddr: 0x231E4, symBinAddr: 0x1000269D4, symSize: 0x880 }
  - { offsetInCU: 0xD59EA, offset: 0xD59EA, size: 0x8, addend: 0x0, symName: __ZN5Eigen6MatrixIdLin1ELin1ELi0ELin1ELin1EEC2ERKS1_, symObjAddr: 0x23A64, symBinAddr: 0x100027254, symSize: 0x34 }
  - { offsetInCU: 0xD5A23, offset: 0xD5A23, size: 0x8, addend: 0x0, symName: __ZN5Eigen15PlainObjectBaseINS_6MatrixIdLin1ELin1ELi0ELin1ELin1EEEEC2ERKS3_, symObjAddr: 0x23A98, symBinAddr: 0x100027288, symSize: 0x3C }
  - { offsetInCU: 0xD5A5C, offset: 0xD5A5C, size: 0x8, addend: 0x0, symName: __ZN5Eigen12DenseStorageIdLin1ELin1ELin1ELi0EEC1ERKS1_, symObjAddr: 0x23AD4, symBinAddr: 0x1000272C4, symSize: 0x34 }
  - { offsetInCU: 0xD5A95, offset: 0xD5A95, size: 0x8, addend: 0x0, symName: __ZN5Eigen12DenseStorageIdLin1ELin1ELin1ELi0EEC2ERKS1_, symObjAddr: 0x23B08, symBinAddr: 0x1000272F8, symSize: 0x37C }
  - { offsetInCU: 0xD5ACE, offset: 0xD5ACE, size: 0x8, addend: 0x0, symName: __ZN5Eigen8internal17smart_copy_helperIdLb1EE3runEPKdS4_Pd, symObjAddr: 0x23EB8, symBinAddr: 0x1000276A8, symSize: 0x6C }
  - { offsetInCU: 0xD5B27, offset: 0xD5B27, size: 0x8, addend: 0x0, symName: __ZN18MultiHeadAttentionclERKN5Eigen6MatrixIdLin1ELin1ELi0ELin1ELin1EEES4_S4_, symObjAddr: 0x23F24, symBinAddr: 0x100027714, symSize: 0xFE8 }
  - { offsetInCU: 0xD5BFB, offset: 0xD5BFB, size: 0x8, addend: 0x0, symName: __ZNK5Eigen10MatrixBaseINS_6MatrixIdLin1ELin1ELi0ELin1ELin1EEEEplIS2_EEKNS_13CwiseBinaryOpINS_8internal13scalar_sum_opIdNS6_6traitsIT_E6ScalarEEEKS2_KS9_EERKNS0_IS9_EE, symObjAddr: 0x24F0C, symBinAddr: 0x1000286FC, symSize: 0x214 }
  - { offsetInCU: 0xD5C3F, offset: 0xD5C3F, size: 0x8, addend: 0x0, symName: __ZN5Eigen6MatrixIdLin1ELin1ELi0ELin1ELin1EEC1INS_13CwiseBinaryOpINS_8internal13scalar_sum_opIddEEKS1_S7_EEEERKNS_9EigenBaseIT_EE, symObjAddr: 0x25120, symBinAddr: 0x100028910, symSize: 0x34 }
  - { offsetInCU: 0xD5C81, offset: 0xD5C81, size: 0x8, addend: 0x0, symName: __ZNSt3__16vectorIN5Eigen6MatrixIdLin1ELin1ELi0ELin1ELin1EEENS_9allocatorIS3_EEEC1Em, symObjAddr: 0x25154, symBinAddr: 0x100028944, symSize: 0x34 }
  - { offsetInCU: 0xD5CBC, offset: 0xD5CBC, size: 0x8, addend: 0x0, symName: __ZNSt3__16vectorIP17_opaque_pthread_tNS_9allocatorIS2_EEEC1Em, symObjAddr: 0x25188, symBinAddr: 0x100028978, symSize: 0x34 }
  - { offsetInCU: 0xD5CF7, offset: 0xD5CF7, size: 0x8, addend: 0x0, symName: __ZNSt3__16vectorINS_10unique_ptrIN18MultiHeadAttention10ThreadDataENS_14default_deleteIS3_EEEENS_9allocatorIS6_EEEC1B8ue170006Ev, symObjAddr: 0x251BC, symBinAddr: 0x1000289AC, symSize: 0x2C }
  - { offsetInCU: 0xD5D21, offset: 0xD5D21, size: 0x8, addend: 0x0, symName: __ZNSt3__16vectorINS_10unique_ptrIN18MultiHeadAttention10ThreadDataENS_14default_deleteIS3_EEEENS_9allocatorIS6_EEE9push_backB8ue170006EOS6_, symObjAddr: 0x251E8, symBinAddr: 0x1000289D8, symSize: 0xE0 }
  - { offsetInCU: 0xD5D58, offset: 0xD5D58, size: 0x8, addend: 0x0, symName: __ZNSt3__16vectorIN5Eigen6MatrixIdLin1ELin1ELi0ELin1ELin1EEENS_9allocatorIS3_EEEixB8ue170006Em, symObjAddr: 0x25634, symBinAddr: 0x100028E24, symSize: 0x74 }
  - { offsetInCU: 0xD5D8F, offset: 0xD5D8F, size: 0x8, addend: 0x0, symName: __ZNSt3__110unique_ptrIN18MultiHeadAttention10ThreadDataENS_14default_deleteIS2_EEED1B8ue170006Ev, symObjAddr: 0x256A8, symBinAddr: 0x100028E98, symSize: 0x2C }
  - { offsetInCU: 0xD5DB9, offset: 0xD5DB9, size: 0x8, addend: 0x0, symName: __ZNSt3__16vectorIP17_opaque_pthread_tNS_9allocatorIS2_EEEixB8ue170006Em, symObjAddr: 0x256D4, symBinAddr: 0x100028EC4, symSize: 0x6C }
  - { offsetInCU: 0xD5DF0, offset: 0xD5DF0, size: 0x8, addend: 0x0, symName: __ZN18MultiHeadAttention11thread_funcEPv, symObjAddr: 0x25740, symBinAddr: 0x100028F30, symSize: 0x12EC }
  - { offsetInCU: 0xD5E5B, offset: 0xD5E5B, size: 0x8, addend: 0x0, symName: __ZNSt3__16vectorINS_10unique_ptrIN18MultiHeadAttention10ThreadDataENS_14default_deleteIS3_EEEENS_9allocatorIS6_EEEixB8ue170006Em, symObjAddr: 0x26A2C, symBinAddr: 0x10002A21C, symSize: 0x6C }
  - { offsetInCU: 0xD5E92, offset: 0xD5E92, size: 0x8, addend: 0x0, symName: __ZNKSt3__110unique_ptrIN18MultiHeadAttention10ThreadDataENS_14default_deleteIS2_EEE3getB8ue170006Ev, symObjAddr: 0x26A98, symBinAddr: 0x10002A288, symSize: 0x6C }
  - { offsetInCU: 0xD5EB8, offset: 0xD5EB8, size: 0x8, addend: 0x0, symName: __ZN18MultiHeadAttention17concatenate_headsERKNSt3__16vectorIN5Eigen6MatrixIdLin1ELin1ELi0ELin1ELin1EEENS0_9allocatorIS4_EEEE, symObjAddr: 0x26B04, symBinAddr: 0x10002A2F4, symSize: 0x538 }
  - { offsetInCU: 0xD5F1B, offset: 0xD5F1B, size: 0x8, addend: 0x0, symName: __ZNSt3__16vectorINS_10unique_ptrIN18MultiHeadAttention10ThreadDataENS_14default_deleteIS3_EEEENS_9allocatorIS6_EEED1B8ue170006Ev, symObjAddr: 0x2703C, symBinAddr: 0x10002A82C, symSize: 0x2C }
  - { offsetInCU: 0xD5F45, offset: 0xD5F45, size: 0x8, addend: 0x0, symName: __ZNSt3__16vectorIP17_opaque_pthread_tNS_9allocatorIS2_EEED1B8ue170006Ev, symObjAddr: 0x27068, symBinAddr: 0x10002A858, symSize: 0x2C }
  - { offsetInCU: 0xD5F6F, offset: 0xD5F6F, size: 0x8, addend: 0x0, symName: __ZNSt3__16vectorIN5Eigen6MatrixIdLin1ELin1ELi0ELin1ELin1EEENS_9allocatorIS3_EEEC2Em, symObjAddr: 0x27094, symBinAddr: 0x10002A884, symSize: 0x490 }
  - { offsetInCU: 0xD5FC5, offset: 0xD5FC5, size: 0x8, addend: 0x0, symName: __ZNSt3__16vectorIN5Eigen6MatrixIdLin1ELin1ELi0ELin1ELin1EEENS_9allocatorIS3_EEE11__vallocateB8ue170006Em, symObjAddr: 0x2779C, symBinAddr: 0x10002AF8C, symSize: 0x428 }
  - { offsetInCU: 0xD600F, offset: 0xD600F, size: 0x8, addend: 0x0, symName: __ZNSt3__16vectorIN5Eigen6MatrixIdLin1ELin1ELi0ELin1ELin1EEENS_9allocatorIS3_EEE18__construct_at_endEm, symObjAddr: 0x27BC4, symBinAddr: 0x10002B3B4, symSize: 0x3E4 }
  - { offsetInCU: 0xD6089, offset: 0xD6089, size: 0x8, addend: 0x0, symName: __ZNSt3__128__exception_guard_exceptionsINS_6vectorIN5Eigen6MatrixIdLin1ELin1ELi0ELin1ELin1EEENS_9allocatorIS4_EEE16__destroy_vectorEE10__completeB8ue170006Ev, symObjAddr: 0x27FA8, symBinAddr: 0x10002B798, symSize: 0x8C }
  - { offsetInCU: 0xD60AF, offset: 0xD60AF, size: 0x8, addend: 0x0, symName: __ZNSt3__128__exception_guard_exceptionsINS_6vectorIN5Eigen6MatrixIdLin1ELin1ELi0ELin1ELin1EEENS_9allocatorIS4_EEE16__destroy_vectorEED1B8ue170006Ev, symObjAddr: 0x28034, symBinAddr: 0x10002B824, symSize: 0x2C }
  - { offsetInCU: 0xD60D9, offset: 0xD60D9, size: 0x8, addend: 0x0, symName: __ZNSt3__128__exception_guard_exceptionsINS_6vectorIN5Eigen6MatrixIdLin1ELin1ELi0ELin1ELin1EEENS_9allocatorIS4_EEE16__destroy_vectorEEC1B8ue170006ES8_, symObjAddr: 0x28060, symBinAddr: 0x10002B850, symSize: 0x238 }
  - { offsetInCU: 0xD6116, offset: 0xD6116, size: 0x8, addend: 0x0, symName: __ZNSt3__128__exception_guard_exceptionsINS_6vectorIN5Eigen6MatrixIdLin1ELin1ELi0ELin1ELin1EEENS_9allocatorIS4_EEE16__destroy_vectorEEC2B8ue170006ES8_, symObjAddr: 0x28298, symBinAddr: 0x10002BA88, symSize: 0x264 }
  - { offsetInCU: 0xD6153, offset: 0xD6153, size: 0x8, addend: 0x0, symName: __ZNSt3__116allocator_traitsINS_9allocatorIN5Eigen6MatrixIdLin1ELin1ELi0ELin1ELin1EEEEEE9constructB8ue170006IS4_JEvEEvRS5_PT_DpOT0_, symObjAddr: 0x284FC, symBinAddr: 0x10002BCEC, symSize: 0x2C }
  - { offsetInCU: 0xD6195, offset: 0xD6195, size: 0x8, addend: 0x0, symName: __ZNSt3__19allocatorIN5Eigen6MatrixIdLin1ELin1ELi0ELin1ELin1EEEE9constructB8ue170006IS3_JEEEvPT_DpOT0_, symObjAddr: 0x28528, symBinAddr: 0x10002BD18, symSize: 0x28 }
  - { offsetInCU: 0xD61D7, offset: 0xD61D7, size: 0x8, addend: 0x0, symName: __ZNSt3__128__exception_guard_exceptionsINS_6vectorIN5Eigen6MatrixIdLin1ELin1ELi0ELin1ELin1EEENS_9allocatorIS4_EEE16__destroy_vectorEED2B8ue170006Ev, symObjAddr: 0x28550, symBinAddr: 0x10002BD40, symSize: 0xA8 }
  - { offsetInCU: 0xD6201, offset: 0xD6201, size: 0x8, addend: 0x0, symName: __ZNSt3__16vectorIP17_opaque_pthread_tNS_9allocatorIS2_EEEC2Em, symObjAddr: 0x285F8, symBinAddr: 0x10002BDE8, symSize: 0x490 }
  - { offsetInCU: 0xD6257, offset: 0xD6257, size: 0x8, addend: 0x0, symName: __ZNSt3__117__compressed_pairIPP17_opaque_pthread_tNS_9allocatorIS2_EEEC1B8ue170006IDnNS_18__default_init_tagEEEOT_OT0_, symObjAddr: 0x28A88, symBinAddr: 0x10002C278, symSize: 0x3C }
  - { offsetInCU: 0xD62AF, offset: 0xD62AF, size: 0x8, addend: 0x0, symName: __ZNSt3__16vectorIP17_opaque_pthread_tNS_9allocatorIS2_EEE16__destroy_vectorC1B8ue170006ERS5_, symObjAddr: 0x28D3C, symBinAddr: 0x10002C52C, symSize: 0x34 }
  - { offsetInCU: 0xD62E8, offset: 0xD62E8, size: 0x8, addend: 0x0, symName: __ZNSt3__16vectorIP17_opaque_pthread_tNS_9allocatorIS2_EEE11__vallocateB8ue170006Em, symObjAddr: 0x28D70, symBinAddr: 0x10002C560, symSize: 0x420 }
  - { offsetInCU: 0xD6332, offset: 0xD6332, size: 0x8, addend: 0x0, symName: __ZNSt3__16vectorIP17_opaque_pthread_tNS_9allocatorIS2_EEE18__construct_at_endEm, symObjAddr: 0x29190, symBinAddr: 0x10002C980, symSize: 0x3E4 }
  - { offsetInCU: 0xD63AC, offset: 0xD63AC, size: 0x8, addend: 0x0, symName: __ZNSt3__128__exception_guard_exceptionsINS_6vectorIP17_opaque_pthread_tNS_9allocatorIS3_EEE16__destroy_vectorEE10__completeB8ue170006Ev, symObjAddr: 0x29574, symBinAddr: 0x10002CD64, symSize: 0x8C }
  - { offsetInCU: 0xD63D2, offset: 0xD63D2, size: 0x8, addend: 0x0, symName: __ZNSt3__128__exception_guard_exceptionsINS_6vectorIP17_opaque_pthread_tNS_9allocatorIS3_EEE16__destroy_vectorEED1B8ue170006Ev, symObjAddr: 0x29600, symBinAddr: 0x10002CDF0, symSize: 0x2C }
  - { offsetInCU: 0xD63FC, offset: 0xD63FC, size: 0x8, addend: 0x0, symName: __ZNSt3__117__compressed_pairIPP17_opaque_pthread_tNS_9allocatorIS2_EEEC2B8ue170006IDnNS_18__default_init_tagEEEOT_OT0_, symObjAddr: 0x2962C, symBinAddr: 0x10002CE1C, symSize: 0x40 }
  - { offsetInCU: 0xD6454, offset: 0xD6454, size: 0x8, addend: 0x0, symName: __ZNSt3__122__compressed_pair_elemIPP17_opaque_pthread_tLi0ELb0EEC2B8ue170006IDnvEEOT_, symObjAddr: 0x2966C, symBinAddr: 0x10002CE5C, symSize: 0x64 }
  - { offsetInCU: 0xD6496, offset: 0xD6496, size: 0x8, addend: 0x0, symName: __ZNSt3__122__compressed_pair_elemINS_9allocatorIP17_opaque_pthread_tEELi1ELb1EEC2B8ue170006ENS_18__default_init_tagE, symObjAddr: 0x296D0, symBinAddr: 0x10002CEC0, symSize: 0x2C }
  - { offsetInCU: 0xD64CA, offset: 0xD64CA, size: 0x8, addend: 0x0, symName: __ZNSt3__19allocatorIP17_opaque_pthread_tEC2B8ue170006Ev, symObjAddr: 0x296FC, symBinAddr: 0x10002CEEC, symSize: 0x2C }
  - { offsetInCU: 0xD64F4, offset: 0xD64F4, size: 0x8, addend: 0x0, symName: __ZNSt3__116__non_trivial_ifILb1ENS_9allocatorIP17_opaque_pthread_tEEEC2B8ue170006Ev, symObjAddr: 0x29728, symBinAddr: 0x10002CF18, symSize: 0x14 }
  - { offsetInCU: 0xD651E, offset: 0xD651E, size: 0x8, addend: 0x0, symName: __ZNSt3__128__exception_guard_exceptionsINS_6vectorIP17_opaque_pthread_tNS_9allocatorIS3_EEE16__destroy_vectorEEC1B8ue170006ES7_, symObjAddr: 0x2973C, symBinAddr: 0x10002CF2C, symSize: 0x238 }
  - { offsetInCU: 0xD655B, offset: 0xD655B, size: 0x8, addend: 0x0, symName: __ZNSt3__128__exception_guard_exceptionsINS_6vectorIP17_opaque_pthread_tNS_9allocatorIS3_EEE16__destroy_vectorEEC2B8ue170006ES7_, symObjAddr: 0x29974, symBinAddr: 0x10002D164, symSize: 0x264 }
  - { offsetInCU: 0xD6598, offset: 0xD6598, size: 0x8, addend: 0x0, symName: __ZNSt3__16vectorIP17_opaque_pthread_tNS_9allocatorIS2_EEE16__destroy_vectorC2B8ue170006ERS5_, symObjAddr: 0x29BD8, symBinAddr: 0x10002D3C8, symSize: 0x70 }
  - { offsetInCU: 0xD65D1, offset: 0xD65D1, size: 0x8, addend: 0x0, symName: __ZNKSt3__16vectorIP17_opaque_pthread_tNS_9allocatorIS2_EEE8max_sizeEv, symObjAddr: 0x29C48, symBinAddr: 0x10002D438, symSize: 0x2FC }
  - { offsetInCU: 0xD65FA, offset: 0xD65FA, size: 0x8, addend: 0x0, symName: __ZNKSt3__16vectorIP17_opaque_pthread_tNS_9allocatorIS2_EEE20__throw_length_errorB8ue170006Ev, symObjAddr: 0x29F44, symBinAddr: 0x10002D734, symSize: 0x20 }
  - { offsetInCU: 0xD6620, offset: 0xD6620, size: 0x8, addend: 0x0, symName: __ZNSt3__16vectorIP17_opaque_pthread_tNS_9allocatorIS2_EEE7__allocB8ue170006Ev, symObjAddr: 0x2A1F0, symBinAddr: 0x10002D9E0, symSize: 0x28 }
  - { offsetInCU: 0xD6646, offset: 0xD6646, size: 0x8, addend: 0x0, symName: __ZNSt3__16vectorIP17_opaque_pthread_tNS_9allocatorIS2_EEE9__end_capB8ue170006Ev, symObjAddr: 0x2A218, symBinAddr: 0x10002DA08, symSize: 0x28 }
  - { offsetInCU: 0xD666C, offset: 0xD666C, size: 0x8, addend: 0x0, symName: __ZNKSt3__16vectorIP17_opaque_pthread_tNS_9allocatorIS2_EEE14__annotate_newB8ue170006Em, symObjAddr: 0x2A240, symBinAddr: 0x10002DA30, symSize: 0xC0 }
  - { offsetInCU: 0xD66AB, offset: 0xD66AB, size: 0x8, addend: 0x0, symName: __ZNSt3__116allocator_traitsINS_9allocatorIP17_opaque_pthread_tEEE8max_sizeB8ue170006IS4_vEEmRKS4_, symObjAddr: 0x2A300, symBinAddr: 0x10002DAF0, symSize: 0x24 }
  - { offsetInCU: 0xD66D9, offset: 0xD66D9, size: 0x8, addend: 0x0, symName: __ZNKSt3__16vectorIP17_opaque_pthread_tNS_9allocatorIS2_EEE7__allocB8ue170006Ev, symObjAddr: 0x2A324, symBinAddr: 0x10002DB14, symSize: 0x28 }
  - { offsetInCU: 0xD66FF, offset: 0xD66FF, size: 0x8, addend: 0x0, symName: __ZNKSt3__19allocatorIP17_opaque_pthread_tE8max_sizeB8ue170006Ev, symObjAddr: 0x2A34C, symBinAddr: 0x10002DB3C, symSize: 0x14 }
  - { offsetInCU: 0xD6725, offset: 0xD6725, size: 0x8, addend: 0x0, symName: __ZNKSt3__117__compressed_pairIPP17_opaque_pthread_tNS_9allocatorIS2_EEE6secondB8ue170006Ev, symObjAddr: 0x2A360, symBinAddr: 0x10002DB50, symSize: 0x24 }
  - { offsetInCU: 0xD674B, offset: 0xD674B, size: 0x8, addend: 0x0, symName: __ZNKSt3__122__compressed_pair_elemINS_9allocatorIP17_opaque_pthread_tEELi1ELb1EE5__getB8ue170006Ev, symObjAddr: 0x2A384, symBinAddr: 0x10002DB74, symSize: 0x14 }
  - { offsetInCU: 0xD6771, offset: 0xD6771, size: 0x8, addend: 0x0, symName: __ZNSt3__19allocatorIP17_opaque_pthread_tE8allocateB8ue170006Em, symObjAddr: 0x2A398, symBinAddr: 0x10002DB88, symSize: 0x5C }
  - { offsetInCU: 0xD67A5, offset: 0xD67A5, size: 0x8, addend: 0x0, symName: __ZNSt3__117__compressed_pairIPP17_opaque_pthread_tNS_9allocatorIS2_EEE6secondB8ue170006Ev, symObjAddr: 0x2A3F4, symBinAddr: 0x10002DBE4, symSize: 0x24 }
  - { offsetInCU: 0xD67CB, offset: 0xD67CB, size: 0x8, addend: 0x0, symName: __ZNSt3__122__compressed_pair_elemINS_9allocatorIP17_opaque_pthread_tEELi1ELb1EE5__getB8ue170006Ev, symObjAddr: 0x2A418, symBinAddr: 0x10002DC08, symSize: 0x14 }
  - { offsetInCU: 0xD67F1, offset: 0xD67F1, size: 0x8, addend: 0x0, symName: __ZNSt3__117__compressed_pairIPP17_opaque_pthread_tNS_9allocatorIS2_EEE5firstB8ue170006Ev, symObjAddr: 0x2A42C, symBinAddr: 0x10002DC1C, symSize: 0x24 }
  - { offsetInCU: 0xD6817, offset: 0xD6817, size: 0x8, addend: 0x0, symName: __ZNSt3__122__compressed_pair_elemIPP17_opaque_pthread_tLi0ELb0EE5__getB8ue170006Ev, symObjAddr: 0x2A450, symBinAddr: 0x10002DC40, symSize: 0x14 }
  - { offsetInCU: 0xD683D, offset: 0xD683D, size: 0x8, addend: 0x0, symName: __ZNKSt3__16vectorIP17_opaque_pthread_tNS_9allocatorIS2_EEE31__annotate_contiguous_containerEPKvS7_S7_S7_, symObjAddr: 0x2A464, symBinAddr: 0x10002DC54, symSize: 0x58 }
  - { offsetInCU: 0xD689F, offset: 0xD689F, size: 0x8, addend: 0x0, symName: __ZNKSt3__16vectorIP17_opaque_pthread_tNS_9allocatorIS2_EEE4dataB8ue170006Ev, symObjAddr: 0x2A4BC, symBinAddr: 0x10002DCAC, symSize: 0x64 }
  - { offsetInCU: 0xD68C5, offset: 0xD68C5, size: 0x8, addend: 0x0, symName: __ZNKSt3__16vectorIP17_opaque_pthread_tNS_9allocatorIS2_EEE8capacityB8ue170006Ev, symObjAddr: 0x2A520, symBinAddr: 0x10002DD10, symSize: 0xBC }
  - { offsetInCU: 0xD68EB, offset: 0xD68EB, size: 0x8, addend: 0x0, symName: __ZNKSt3__16vectorIP17_opaque_pthread_tNS_9allocatorIS2_EEE9__end_capB8ue170006Ev, symObjAddr: 0x2A5F0, symBinAddr: 0x10002DDE0, symSize: 0x28 }
  - { offsetInCU: 0xD6911, offset: 0xD6911, size: 0x8, addend: 0x0, symName: __ZNKSt3__117__compressed_pairIPP17_opaque_pthread_tNS_9allocatorIS2_EEE5firstB8ue170006Ev, symObjAddr: 0x2A618, symBinAddr: 0x10002DE08, symSize: 0x24 }
  - { offsetInCU: 0xD6937, offset: 0xD6937, size: 0x8, addend: 0x0, symName: __ZNKSt3__122__compressed_pair_elemIPP17_opaque_pthread_tLi0ELb0EE5__getB8ue170006Ev, symObjAddr: 0x2A63C, symBinAddr: 0x10002DE2C, symSize: 0x14 }
  - { offsetInCU: 0xD6976, offset: 0xD6976, size: 0x8, addend: 0x0, symName: __ZNSt3__16vectorIP17_opaque_pthread_tNS_9allocatorIS2_EEE21_ConstructTransactionC1B8ue170006ERS5_m, symObjAddr: 0x2A650, symBinAddr: 0x10002DE40, symSize: 0x3C }
  - { offsetInCU: 0xD69BE, offset: 0xD69BE, size: 0x8, addend: 0x0, symName: __ZNSt3__116allocator_traitsINS_9allocatorIP17_opaque_pthread_tEEE9constructB8ue170006IS3_JEvEEvRS4_PT_DpOT0_, symObjAddr: 0x2A68C, symBinAddr: 0x10002DE7C, symSize: 0x2C }
  - { offsetInCU: 0xD6A00, offset: 0xD6A00, size: 0x8, addend: 0x0, symName: __ZNSt3__16vectorIP17_opaque_pthread_tNS_9allocatorIS2_EEE21_ConstructTransactionD1B8ue170006Ev, symObjAddr: 0x2A6B8, symBinAddr: 0x10002DEA8, symSize: 0x2C }
  - { offsetInCU: 0xD6A2A, offset: 0xD6A2A, size: 0x8, addend: 0x0, symName: __ZNSt3__16vectorIP17_opaque_pthread_tNS_9allocatorIS2_EEE21_ConstructTransactionC2B8ue170006ERS5_m, symObjAddr: 0x2A6E4, symBinAddr: 0x10002DED4, symSize: 0x1D0 }
  - { offsetInCU: 0xD6A72, offset: 0xD6A72, size: 0x8, addend: 0x0, symName: __ZNKSt3__16vectorIP17_opaque_pthread_tNS_9allocatorIS2_EEE19__annotate_increaseB8ue170006Em, symObjAddr: 0x2A8B4, symBinAddr: 0x10002E0A4, symSize: 0xD8 }
  - { offsetInCU: 0xD6AA7, offset: 0xD6AA7, size: 0x8, addend: 0x0, symName: __ZNKSt3__16vectorIP17_opaque_pthread_tNS_9allocatorIS2_EEE4sizeB8ue170006Ev, symObjAddr: 0x2A98C, symBinAddr: 0x10002E17C, symSize: 0xB0 }
  - { offsetInCU: 0xD6ACD, offset: 0xD6ACD, size: 0x8, addend: 0x0, symName: __ZNSt3__19allocatorIP17_opaque_pthread_tE9constructB8ue170006IS2_JEEEvPT_DpOT0_, symObjAddr: 0x2AA3C, symBinAddr: 0x10002E22C, symSize: 0x64 }
  - { offsetInCU: 0xD6B0F, offset: 0xD6B0F, size: 0x8, addend: 0x0, symName: __ZNSt3__16vectorIP17_opaque_pthread_tNS_9allocatorIS2_EEE21_ConstructTransactionD2B8ue170006Ev, symObjAddr: 0x2AAA0, symBinAddr: 0x10002E290, symSize: 0x278 }
  - { offsetInCU: 0xD6B39, offset: 0xD6B39, size: 0x8, addend: 0x0, symName: __ZNKSt3__16vectorIP17_opaque_pthread_tNS_9allocatorIS2_EEE17__annotate_shrinkB8ue170006Em, symObjAddr: 0x2AD18, symBinAddr: 0x10002E508, symSize: 0xC8 }
  - { offsetInCU: 0xD6B6E, offset: 0xD6B6E, size: 0x8, addend: 0x0, symName: __ZNSt3__128__exception_guard_exceptionsINS_6vectorIP17_opaque_pthread_tNS_9allocatorIS3_EEE16__destroy_vectorEED2B8ue170006Ev, symObjAddr: 0x2ADE0, symBinAddr: 0x10002E5D0, symSize: 0xBC }
  - { offsetInCU: 0xD6B98, offset: 0xD6B98, size: 0x8, addend: 0x0, symName: __ZNSt3__16vectorIP17_opaque_pthread_tNS_9allocatorIS2_EEE16__destroy_vectorclB8ue170006Ev, symObjAddr: 0x2AE9C, symBinAddr: 0x10002E68C, symSize: 0x228 }
  - { offsetInCU: 0xD6BBE, offset: 0xD6BBE, size: 0x8, addend: 0x0, symName: __ZNSt3__16vectorIP17_opaque_pthread_tNS_9allocatorIS2_EEE7__clearB8ue170006Ev, symObjAddr: 0x2B0C4, symBinAddr: 0x10002E8B4, symSize: 0x64 }
  - { offsetInCU: 0xD6BE4, offset: 0xD6BE4, size: 0x8, addend: 0x0, symName: __ZNKSt3__16vectorIP17_opaque_pthread_tNS_9allocatorIS2_EEE17__annotate_deleteB8ue170006Ev, symObjAddr: 0x2B128, symBinAddr: 0x10002E918, symSize: 0xCC }
  - { offsetInCU: 0xD6C0A, offset: 0xD6C0A, size: 0x8, addend: 0x0, symName: __ZNSt3__116allocator_traitsINS_9allocatorIP17_opaque_pthread_tEEE10deallocateB8ue170006ERS4_PS3_m, symObjAddr: 0x2B1F4, symBinAddr: 0x10002E9E4, symSize: 0x34 }
  - { offsetInCU: 0xD6C4C, offset: 0xD6C4C, size: 0x8, addend: 0x0, symName: __ZNSt3__16vectorIP17_opaque_pthread_tNS_9allocatorIS2_EEE22__base_destruct_at_endB8ue170006EPS2_, symObjAddr: 0x2B228, symBinAddr: 0x10002EA18, symSize: 0x114 }
  - { offsetInCU: 0xD6C90, offset: 0xD6C90, size: 0x8, addend: 0x0, symName: __ZNSt3__116allocator_traitsINS_9allocatorIP17_opaque_pthread_tEEE7destroyB8ue170006IS3_vEEvRS4_PT_, symObjAddr: 0x2B33C, symBinAddr: 0x10002EB2C, symSize: 0x2C }
  - { offsetInCU: 0xD6CCD, offset: 0xD6CCD, size: 0x8, addend: 0x0, symName: __ZNSt3__19allocatorIP17_opaque_pthread_tE7destroyB8ue170006EPS2_, symObjAddr: 0x2B368, symBinAddr: 0x10002EB58, symSize: 0x14 }
  - { offsetInCU: 0xD6D01, offset: 0xD6D01, size: 0x8, addend: 0x0, symName: __ZNSt3__19allocatorIP17_opaque_pthread_tE10deallocateB8ue170006EPS2_m, symObjAddr: 0x2B37C, symBinAddr: 0x10002EB6C, symSize: 0x4C }
  - { offsetInCU: 0xD6D43, offset: 0xD6D43, size: 0x8, addend: 0x0, symName: __ZNSt3__16vectorINS_10unique_ptrIN18MultiHeadAttention10ThreadDataENS_14default_deleteIS3_EEEENS_9allocatorIS6_EEEC2B8ue170006Ev, symObjAddr: 0x2B3C8, symBinAddr: 0x10002EBB8, symSize: 0x2E8 }
  - { offsetInCU: 0xD6D6E, offset: 0xD6D6E, size: 0x8, addend: 0x0, symName: __ZNSt3__117__compressed_pairIPNS_10unique_ptrIN18MultiHeadAttention10ThreadDataENS_14default_deleteIS3_EEEENS_9allocatorIS6_EEEC1B8ue170006IDnNS_18__default_init_tagEEEOT_OT0_, symObjAddr: 0x2B6B0, symBinAddr: 0x10002EEA0, symSize: 0x3C }
  - { offsetInCU: 0xD6DC6, offset: 0xD6DC6, size: 0x8, addend: 0x0, symName: __ZNSt3__117__compressed_pairIPNS_10unique_ptrIN18MultiHeadAttention10ThreadDataENS_14default_deleteIS3_EEEENS_9allocatorIS6_EEEC2B8ue170006IDnNS_18__default_init_tagEEEOT_OT0_, symObjAddr: 0x2B6EC, symBinAddr: 0x10002EEDC, symSize: 0x40 }
  - { offsetInCU: 0xD6E1E, offset: 0xD6E1E, size: 0x8, addend: 0x0, symName: __ZNSt3__122__compressed_pair_elemIPNS_10unique_ptrIN18MultiHeadAttention10ThreadDataENS_14default_deleteIS3_EEEELi0ELb0EEC2B8ue170006IDnvEEOT_, symObjAddr: 0x2B72C, symBinAddr: 0x10002EF1C, symSize: 0x64 }
  - { offsetInCU: 0xD6E60, offset: 0xD6E60, size: 0x8, addend: 0x0, symName: __ZNSt3__122__compressed_pair_elemINS_9allocatorINS_10unique_ptrIN18MultiHeadAttention10ThreadDataENS_14default_deleteIS4_EEEEEELi1ELb1EEC2B8ue170006ENS_18__default_init_tagE, symObjAddr: 0x2B790, symBinAddr: 0x10002EF80, symSize: 0x2C }
  - { offsetInCU: 0xD6E94, offset: 0xD6E94, size: 0x8, addend: 0x0, symName: __ZNSt3__19allocatorINS_10unique_ptrIN18MultiHeadAttention10ThreadDataENS_14default_deleteIS3_EEEEEC2B8ue170006Ev, symObjAddr: 0x2B7BC, symBinAddr: 0x10002EFAC, symSize: 0x2C }
  - { offsetInCU: 0xD6EBE, offset: 0xD6EBE, size: 0x8, addend: 0x0, symName: __ZNSt3__116__non_trivial_ifILb1ENS_9allocatorINS_10unique_ptrIN18MultiHeadAttention10ThreadDataENS_14default_deleteIS4_EEEEEEEC2B8ue170006Ev, symObjAddr: 0x2B7E8, symBinAddr: 0x10002EFD8, symSize: 0x14 }
  - { offsetInCU: 0xD6EE8, offset: 0xD6EE8, size: 0x8, addend: 0x0, symName: __ZNSt3__16vectorINS_10unique_ptrIN18MultiHeadAttention10ThreadDataENS_14default_deleteIS3_EEEENS_9allocatorIS6_EEE9__end_capB8ue170006Ev, symObjAddr: 0x2B7FC, symBinAddr: 0x10002EFEC, symSize: 0x28 }
  - { offsetInCU: 0xD6F0E, offset: 0xD6F0E, size: 0x8, addend: 0x0, symName: __ZNSt3__16vectorINS_10unique_ptrIN18MultiHeadAttention10ThreadDataENS_14default_deleteIS3_EEEENS_9allocatorIS6_EEE22__construct_one_at_endB8ue170006IJS6_EEEvDpOT_, symObjAddr: 0x2B824, symBinAddr: 0x10002F014, symSize: 0x36C }
  - { offsetInCU: 0xD6F63, offset: 0xD6F63, size: 0x8, addend: 0x0, symName: __ZNSt3__16vectorINS_10unique_ptrIN18MultiHeadAttention10ThreadDataENS_14default_deleteIS3_EEEENS_9allocatorIS6_EEE21__push_back_slow_pathIS6_EEvOT_, symObjAddr: 0x2BB90, symBinAddr: 0x10002F380, symSize: 0x3C0 }
  - { offsetInCU: 0xD6FC8, offset: 0xD6FC8, size: 0x8, addend: 0x0, symName: __ZNSt3__117__compressed_pairIPNS_10unique_ptrIN18MultiHeadAttention10ThreadDataENS_14default_deleteIS3_EEEENS_9allocatorIS6_EEE5firstB8ue170006Ev, symObjAddr: 0x2BF50, symBinAddr: 0x10002F740, symSize: 0x24 }
  - { offsetInCU: 0xD6FEE, offset: 0xD6FEE, size: 0x8, addend: 0x0, symName: __ZNSt3__122__compressed_pair_elemIPNS_10unique_ptrIN18MultiHeadAttention10ThreadDataENS_14default_deleteIS3_EEEELi0ELb0EE5__getB8ue170006Ev, symObjAddr: 0x2BF74, symBinAddr: 0x10002F764, symSize: 0x14 }
  - { offsetInCU: 0xD702D, offset: 0xD702D, size: 0x8, addend: 0x0, symName: __ZNSt3__16vectorINS_10unique_ptrIN18MultiHeadAttention10ThreadDataENS_14default_deleteIS3_EEEENS_9allocatorIS6_EEE21_ConstructTransactionC1B8ue170006ERS9_m, symObjAddr: 0x2BF88, symBinAddr: 0x10002F778, symSize: 0x3C }
  - { offsetInCU: 0xD7075, offset: 0xD7075, size: 0x8, addend: 0x0, symName: __ZNSt3__116allocator_traitsINS_9allocatorINS_10unique_ptrIN18MultiHeadAttention10ThreadDataENS_14default_deleteIS4_EEEEEEE9constructB8ue170006IS7_JS7_EvEEvRS8_PT_DpOT0_, symObjAddr: 0x2BFC4, symBinAddr: 0x10002F7B4, symSize: 0x34 }
  - { offsetInCU: 0xD70CC, offset: 0xD70CC, size: 0x8, addend: 0x0, symName: __ZNSt3__16vectorINS_10unique_ptrIN18MultiHeadAttention10ThreadDataENS_14default_deleteIS3_EEEENS_9allocatorIS6_EEE7__allocB8ue170006Ev, symObjAddr: 0x2BFF8, symBinAddr: 0x10002F7E8, symSize: 0x28 }
  - { offsetInCU: 0xD70F2, offset: 0xD70F2, size: 0x8, addend: 0x0, symName: __ZNSt3__16vectorINS_10unique_ptrIN18MultiHeadAttention10ThreadDataENS_14default_deleteIS3_EEEENS_9allocatorIS6_EEE21_ConstructTransactionD1B8ue170006Ev, symObjAddr: 0x2C034, symBinAddr: 0x10002F824, symSize: 0x2C }
  - { offsetInCU: 0xD711C, offset: 0xD711C, size: 0x8, addend: 0x0, symName: __ZNSt3__16vectorINS_10unique_ptrIN18MultiHeadAttention10ThreadDataENS_14default_deleteIS3_EEEENS_9allocatorIS6_EEE21_ConstructTransactionC2B8ue170006ERS9_m, symObjAddr: 0x2C060, symBinAddr: 0x10002F850, symSize: 0x1D0 }
  - { offsetInCU: 0xD7164, offset: 0xD7164, size: 0x8, addend: 0x0, symName: __ZNKSt3__16vectorINS_10unique_ptrIN18MultiHeadAttention10ThreadDataENS_14default_deleteIS3_EEEENS_9allocatorIS6_EEE19__annotate_increaseB8ue170006Em, symObjAddr: 0x2C230, symBinAddr: 0x10002FA20, symSize: 0xD8 }
  - { offsetInCU: 0xD7199, offset: 0xD7199, size: 0x8, addend: 0x0, symName: __ZNKSt3__16vectorINS_10unique_ptrIN18MultiHeadAttention10ThreadDataENS_14default_deleteIS3_EEEENS_9allocatorIS6_EEE31__annotate_contiguous_containerEPKvSB_SB_SB_, symObjAddr: 0x2C308, symBinAddr: 0x10002FAF8, symSize: 0x58 }
  - { offsetInCU: 0xD71FB, offset: 0xD71FB, size: 0x8, addend: 0x0, symName: __ZNKSt3__16vectorINS_10unique_ptrIN18MultiHeadAttention10ThreadDataENS_14default_deleteIS3_EEEENS_9allocatorIS6_EEE4dataB8ue170006Ev, symObjAddr: 0x2C360, symBinAddr: 0x10002FB50, symSize: 0x64 }
  - { offsetInCU: 0xD7221, offset: 0xD7221, size: 0x8, addend: 0x0, symName: __ZNKSt3__16vectorINS_10unique_ptrIN18MultiHeadAttention10ThreadDataENS_14default_deleteIS3_EEEENS_9allocatorIS6_EEE8capacityB8ue170006Ev, symObjAddr: 0x2C3C4, symBinAddr: 0x10002FBB4, symSize: 0xBC }
  - { offsetInCU: 0xD7247, offset: 0xD7247, size: 0x8, addend: 0x0, symName: __ZNKSt3__16vectorINS_10unique_ptrIN18MultiHeadAttention10ThreadDataENS_14default_deleteIS3_EEEENS_9allocatorIS6_EEE4sizeB8ue170006Ev, symObjAddr: 0x2C480, symBinAddr: 0x10002FC70, symSize: 0xB0 }
  - { offsetInCU: 0xD726D, offset: 0xD726D, size: 0x8, addend: 0x0, symName: __ZNKSt3__16vectorINS_10unique_ptrIN18MultiHeadAttention10ThreadDataENS_14default_deleteIS3_EEEENS_9allocatorIS6_EEE9__end_capB8ue170006Ev, symObjAddr: 0x2C530, symBinAddr: 0x10002FD20, symSize: 0x28 }
  - { offsetInCU: 0xD7293, offset: 0xD7293, size: 0x8, addend: 0x0, symName: __ZNKSt3__117__compressed_pairIPNS_10unique_ptrIN18MultiHeadAttention10ThreadDataENS_14default_deleteIS3_EEEENS_9allocatorIS6_EEE5firstB8ue170006Ev, symObjAddr: 0x2C558, symBinAddr: 0x10002FD48, symSize: 0x24 }
  - { offsetInCU: 0xD72B9, offset: 0xD72B9, size: 0x8, addend: 0x0, symName: __ZNKSt3__122__compressed_pair_elemIPNS_10unique_ptrIN18MultiHeadAttention10ThreadDataENS_14default_deleteIS3_EEEELi0ELb0EE5__getB8ue170006Ev, symObjAddr: 0x2C57C, symBinAddr: 0x10002FD6C, symSize: 0x14 }
  - { offsetInCU: 0xD72DF, offset: 0xD72DF, size: 0x8, addend: 0x0, symName: __ZNSt3__19allocatorINS_10unique_ptrIN18MultiHeadAttention10ThreadDataENS_14default_deleteIS3_EEEEE9constructB8ue170006IS6_JS6_EEEvPT_DpOT0_, symObjAddr: 0x2C590, symBinAddr: 0x10002FD80, symSize: 0x30 }
  - { offsetInCU: 0xD7335, offset: 0xD7335, size: 0x8, addend: 0x0, symName: __ZNSt3__110unique_ptrIN18MultiHeadAttention10ThreadDataENS_14default_deleteIS2_EEEC1B8ue170006EOS5_, symObjAddr: 0x2C5C0, symBinAddr: 0x10002FDB0, symSize: 0x34 }
  - { offsetInCU: 0xD736D, offset: 0xD736D, size: 0x8, addend: 0x0, symName: __ZNSt3__110unique_ptrIN18MultiHeadAttention10ThreadDataENS_14default_deleteIS2_EEEC2B8ue170006EOS5_, symObjAddr: 0x2C5F4, symBinAddr: 0x10002FDE4, symSize: 0x24C }
  - { offsetInCU: 0xD73A7, offset: 0xD73A7, size: 0x8, addend: 0x0, symName: __ZNSt3__110unique_ptrIN18MultiHeadAttention10ThreadDataENS_14default_deleteIS2_EEE7releaseB8ue170006Ev, symObjAddr: 0x2C840, symBinAddr: 0x100030030, symSize: 0xB8 }
  - { offsetInCU: 0xD73DC, offset: 0xD73DC, size: 0x8, addend: 0x0, symName: __ZNSt3__110unique_ptrIN18MultiHeadAttention10ThreadDataENS_14default_deleteIS2_EEE11get_deleterB8ue170006Ev, symObjAddr: 0x2C8F8, symBinAddr: 0x1000300E8, symSize: 0x24 }
  - { offsetInCU: 0xD740E, offset: 0xD740E, size: 0x8, addend: 0x0, symName: __ZNSt3__117__compressed_pairIPN18MultiHeadAttention10ThreadDataENS_14default_deleteIS2_EEEC1B8ue170006IS3_S5_EEOT_OT0_, symObjAddr: 0x2C91C, symBinAddr: 0x10003010C, symSize: 0x3C }
  - { offsetInCU: 0xD7466, offset: 0xD7466, size: 0x8, addend: 0x0, symName: __ZNSt3__117__compressed_pairIPN18MultiHeadAttention10ThreadDataENS_14default_deleteIS2_EEE5firstB8ue170006Ev, symObjAddr: 0x2C958, symBinAddr: 0x100030148, symSize: 0x24 }
  - { offsetInCU: 0xD748C, offset: 0xD748C, size: 0x8, addend: 0x0, symName: __ZNSt3__122__compressed_pair_elemIPN18MultiHeadAttention10ThreadDataELi0ELb0EE5__getB8ue170006Ev, symObjAddr: 0x2C97C, symBinAddr: 0x10003016C, symSize: 0x14 }
  - { offsetInCU: 0xD74B2, offset: 0xD74B2, size: 0x8, addend: 0x0, symName: __ZNSt3__117__compressed_pairIPN18MultiHeadAttention10ThreadDataENS_14default_deleteIS2_EEE6secondB8ue170006Ev, symObjAddr: 0x2C990, symBinAddr: 0x100030180, symSize: 0x24 }
  - { offsetInCU: 0xD74D8, offset: 0xD74D8, size: 0x8, addend: 0x0, symName: __ZNSt3__122__compressed_pair_elemINS_14default_deleteIN18MultiHeadAttention10ThreadDataEEELi1ELb1EE5__getB8ue170006Ev, symObjAddr: 0x2C9B4, symBinAddr: 0x1000301A4, symSize: 0x14 }
  - { offsetInCU: 0xD74FE, offset: 0xD74FE, size: 0x8, addend: 0x0, symName: __ZNSt3__117__compressed_pairIPN18MultiHeadAttention10ThreadDataENS_14default_deleteIS2_EEEC2B8ue170006IS3_S5_EEOT_OT0_, symObjAddr: 0x2C9C8, symBinAddr: 0x1000301B8, symSize: 0x44 }
  - { offsetInCU: 0xD7556, offset: 0xD7556, size: 0x8, addend: 0x0, symName: __ZNSt3__122__compressed_pair_elemIPN18MultiHeadAttention10ThreadDataELi0ELb0EEC2B8ue170006IS3_vEEOT_, symObjAddr: 0x2CA0C, symBinAddr: 0x1000301FC, symSize: 0xB0 }
  - { offsetInCU: 0xD7598, offset: 0xD7598, size: 0x8, addend: 0x0, symName: __ZNSt3__122__compressed_pair_elemINS_14default_deleteIN18MultiHeadAttention10ThreadDataEEELi1ELb1EEC2B8ue170006IS4_vEEOT_, symObjAddr: 0x2CABC, symBinAddr: 0x1000302AC, symSize: 0x18 }
  - { offsetInCU: 0xD75DA, offset: 0xD75DA, size: 0x8, addend: 0x0, symName: __ZNSt3__117__compressed_pairIPNS_10unique_ptrIN18MultiHeadAttention10ThreadDataENS_14default_deleteIS3_EEEENS_9allocatorIS6_EEE6secondB8ue170006Ev, symObjAddr: 0x2CAD4, symBinAddr: 0x1000302C4, symSize: 0x24 }
  - { offsetInCU: 0xD7600, offset: 0xD7600, size: 0x8, addend: 0x0, symName: __ZNSt3__122__compressed_pair_elemINS_9allocatorINS_10unique_ptrIN18MultiHeadAttention10ThreadDataENS_14default_deleteIS4_EEEEEELi1ELb1EE5__getB8ue170006Ev, symObjAddr: 0x2CAF8, symBinAddr: 0x1000302E8, symSize: 0x14 }
  - { offsetInCU: 0xD7626, offset: 0xD7626, size: 0x8, addend: 0x0, symName: __ZNSt3__16vectorINS_10unique_ptrIN18MultiHeadAttention10ThreadDataENS_14default_deleteIS3_EEEENS_9allocatorIS6_EEE21_ConstructTransactionD2B8ue170006Ev, symObjAddr: 0x2CB0C, symBinAddr: 0x1000302FC, symSize: 0x278 }
  - { offsetInCU: 0xD7650, offset: 0xD7650, size: 0x8, addend: 0x0, symName: __ZNKSt3__16vectorINS_10unique_ptrIN18MultiHeadAttention10ThreadDataENS_14default_deleteIS3_EEEENS_9allocatorIS6_EEE17__annotate_shrinkB8ue170006Em, symObjAddr: 0x2CD84, symBinAddr: 0x100030574, symSize: 0xC8 }
  - { offsetInCU: 0xD7685, offset: 0xD7685, size: 0x8, addend: 0x0, symName: __ZNKSt3__16vectorINS_10unique_ptrIN18MultiHeadAttention10ThreadDataENS_14default_deleteIS3_EEEENS_9allocatorIS6_EEE11__recommendB8ue170006Em, symObjAddr: 0x2CE4C, symBinAddr: 0x10003063C, symSize: 0x384 }
  - { offsetInCU: 0xD76E1, offset: 0xD76E1, size: 0x8, addend: 0x0, symName: __ZNSt3__114__split_bufferINS_10unique_ptrIN18MultiHeadAttention10ThreadDataENS_14default_deleteIS3_EEEERNS_9allocatorIS6_EEEC1EmmS9_, symObjAddr: 0x2D1D0, symBinAddr: 0x1000309C0, symSize: 0x44 }
  - { offsetInCU: 0xD7737, offset: 0xD7737, size: 0x8, addend: 0x0, symName: __ZNSt3__114__split_bufferINS_10unique_ptrIN18MultiHeadAttention10ThreadDataENS_14default_deleteIS3_EEEERNS_9allocatorIS6_EEED1Ev, symObjAddr: 0x2D780, symBinAddr: 0x100030F70, symSize: 0x2C }
  - { offsetInCU: 0xD7763, offset: 0xD7763, size: 0x8, addend: 0x0, symName: __ZNKSt3__16vectorINS_10unique_ptrIN18MultiHeadAttention10ThreadDataENS_14default_deleteIS3_EEEENS_9allocatorIS6_EEE8max_sizeEv, symObjAddr: 0x2D7AC, symBinAddr: 0x100030F9C, symSize: 0x2FC }
  - { offsetInCU: 0xD778C, offset: 0xD778C, size: 0x8, addend: 0x0, symName: __ZNKSt3__16vectorINS_10unique_ptrIN18MultiHeadAttention10ThreadDataENS_14default_deleteIS3_EEEENS_9allocatorIS6_EEE20__throw_length_errorB8ue170006Ev, symObjAddr: 0x2DAA8, symBinAddr: 0x100031298, symSize: 0x20 }
  - { offsetInCU: 0xD77BC, offset: 0xD77BC, size: 0x8, addend: 0x0, symName: __ZNSt3__116allocator_traitsINS_9allocatorINS_10unique_ptrIN18MultiHeadAttention10ThreadDataENS_14default_deleteIS4_EEEEEEE8max_sizeB8ue170006IS8_vEEmRKS8_, symObjAddr: 0x2DAC8, symBinAddr: 0x1000312B8, symSize: 0x24 }
  - { offsetInCU: 0xD77EA, offset: 0xD77EA, size: 0x8, addend: 0x0, symName: __ZNKSt3__16vectorINS_10unique_ptrIN18MultiHeadAttention10ThreadDataENS_14default_deleteIS3_EEEENS_9allocatorIS6_EEE7__allocB8ue170006Ev, symObjAddr: 0x2DAEC, symBinAddr: 0x1000312DC, symSize: 0x28 }
  - { offsetInCU: 0xD7810, offset: 0xD7810, size: 0x8, addend: 0x0, symName: __ZNKSt3__19allocatorINS_10unique_ptrIN18MultiHeadAttention10ThreadDataENS_14default_deleteIS3_EEEEE8max_sizeB8ue170006Ev, symObjAddr: 0x2DB14, symBinAddr: 0x100031304, symSize: 0x14 }
  - { offsetInCU: 0xD7836, offset: 0xD7836, size: 0x8, addend: 0x0, symName: __ZNKSt3__117__compressed_pairIPNS_10unique_ptrIN18MultiHeadAttention10ThreadDataENS_14default_deleteIS3_EEEENS_9allocatorIS6_EEE6secondB8ue170006Ev, symObjAddr: 0x2DB28, symBinAddr: 0x100031318, symSize: 0x24 }
  - { offsetInCU: 0xD785C, offset: 0xD785C, size: 0x8, addend: 0x0, symName: __ZNKSt3__122__compressed_pair_elemINS_9allocatorINS_10unique_ptrIN18MultiHeadAttention10ThreadDataENS_14default_deleteIS4_EEEEEELi1ELb1EE5__getB8ue170006Ev, symObjAddr: 0x2DB4C, symBinAddr: 0x10003133C, symSize: 0x14 }
  - { offsetInCU: 0xD7882, offset: 0xD7882, size: 0x8, addend: 0x0, symName: __ZNSt3__114__split_bufferINS_10unique_ptrIN18MultiHeadAttention10ThreadDataENS_14default_deleteIS3_EEEERNS_9allocatorIS6_EEEC2EmmS9_, symObjAddr: 0x2DB60, symBinAddr: 0x100031350, symSize: 0x520 }
  - { offsetInCU: 0xD78FD, offset: 0xD78FD, size: 0x8, addend: 0x0, symName: __ZNSt3__117__compressed_pairIPNS_10unique_ptrIN18MultiHeadAttention10ThreadDataENS_14default_deleteIS3_EEEERNS_9allocatorIS6_EEEC1B8ue170006IDnSA_EEOT_OT0_, symObjAddr: 0x2E080, symBinAddr: 0x100031870, symSize: 0x3C }
  - { offsetInCU: 0xD7955, offset: 0xD7955, size: 0x8, addend: 0x0, symName: __ZNSt3__114__split_bufferINS_10unique_ptrIN18MultiHeadAttention10ThreadDataENS_14default_deleteIS3_EEEERNS_9allocatorIS6_EEE7__allocB8ue170006Ev, symObjAddr: 0x2E348, symBinAddr: 0x100031B38, symSize: 0x28 }
  - { offsetInCU: 0xD797B, offset: 0xD797B, size: 0x8, addend: 0x0, symName: __ZNSt3__114__split_bufferINS_10unique_ptrIN18MultiHeadAttention10ThreadDataENS_14default_deleteIS3_EEEERNS_9allocatorIS6_EEE9__end_capB8ue170006Ev, symObjAddr: 0x2E370, symBinAddr: 0x100031B60, symSize: 0x28 }
  - { offsetInCU: 0xD79A1, offset: 0xD79A1, size: 0x8, addend: 0x0, symName: __ZNSt3__117__compressed_pairIPNS_10unique_ptrIN18MultiHeadAttention10ThreadDataENS_14default_deleteIS3_EEEERNS_9allocatorIS6_EEEC2B8ue170006IDnSA_EEOT_OT0_, symObjAddr: 0x2E398, symBinAddr: 0x100031B88, symSize: 0x48 }
  - { offsetInCU: 0xD79F9, offset: 0xD79F9, size: 0x8, addend: 0x0, symName: __ZNSt3__122__compressed_pair_elemIRNS_9allocatorINS_10unique_ptrIN18MultiHeadAttention10ThreadDataENS_14default_deleteIS4_EEEEEELi1ELb0EEC2B8ue170006IS9_vEEOT_, symObjAddr: 0x2E3E0, symBinAddr: 0x100031BD0, symSize: 0x70 }
  - { offsetInCU: 0xD7A3B, offset: 0xD7A3B, size: 0x8, addend: 0x0, symName: __ZNSt3__19allocatorINS_10unique_ptrIN18MultiHeadAttention10ThreadDataENS_14default_deleteIS3_EEEEE8allocateB8ue170006Em, symObjAddr: 0x2E450, symBinAddr: 0x100031C40, symSize: 0x5C }
  - { offsetInCU: 0xD7A6F, offset: 0xD7A6F, size: 0x8, addend: 0x0, symName: __ZNSt3__117__compressed_pairIPNS_10unique_ptrIN18MultiHeadAttention10ThreadDataENS_14default_deleteIS3_EEEERNS_9allocatorIS6_EEE6secondB8ue170006Ev, symObjAddr: 0x2E4AC, symBinAddr: 0x100031C9C, symSize: 0x28 }
  - { offsetInCU: 0xD7A95, offset: 0xD7A95, size: 0x8, addend: 0x0, symName: __ZNSt3__122__compressed_pair_elemIRNS_9allocatorINS_10unique_ptrIN18MultiHeadAttention10ThreadDataENS_14default_deleteIS4_EEEEEELi1ELb0EE5__getB8ue170006Ev, symObjAddr: 0x2E4D4, symBinAddr: 0x100031CC4, symSize: 0x60 }
  - { offsetInCU: 0xD7ABB, offset: 0xD7ABB, size: 0x8, addend: 0x0, symName: __ZNSt3__117__compressed_pairIPNS_10unique_ptrIN18MultiHeadAttention10ThreadDataENS_14default_deleteIS3_EEEERNS_9allocatorIS6_EEE5firstB8ue170006Ev, symObjAddr: 0x2E534, symBinAddr: 0x100031D24, symSize: 0x24 }
  - { offsetInCU: 0xD7AE1, offset: 0xD7AE1, size: 0x8, addend: 0x0, symName: __ZNKSt3__16vectorINS_10unique_ptrIN18MultiHeadAttention10ThreadDataENS_14default_deleteIS3_EEEENS_9allocatorIS6_EEE17__annotate_deleteB8ue170006Ev, symObjAddr: 0x2E558, symBinAddr: 0x100031D48, symSize: 0xCC }
  - { offsetInCU: 0xD7B07, offset: 0xD7B07, size: 0x8, addend: 0x0, symName: __ZNSt3__116reverse_iteratorIPNS_10unique_ptrIN18MultiHeadAttention10ThreadDataENS_14default_deleteIS3_EEEEEC1B8ue170006ES7_, symObjAddr: 0x2EB68, symBinAddr: 0x100032358, symSize: 0x34 }
  - { offsetInCU: 0xD7B3F, offset: 0xD7B3F, size: 0x8, addend: 0x0, symName: __ZNKSt3__116reverse_iteratorIPNS_10unique_ptrIN18MultiHeadAttention10ThreadDataENS_14default_deleteIS3_EEEEE4baseB8ue170006Ev, symObjAddr: 0x2EB9C, symBinAddr: 0x10003238C, symSize: 0x64 }
  - { offsetInCU: 0xD7B65, offset: 0xD7B65, size: 0x8, addend: 0x0, symName: __ZNKSt3__16vectorINS_10unique_ptrIN18MultiHeadAttention10ThreadDataENS_14default_deleteIS3_EEEENS_9allocatorIS6_EEE14__annotate_newB8ue170006Em, symObjAddr: 0x2ED34, symBinAddr: 0x100032524, symSize: 0xC0 }
  - { offsetInCU: 0xD7B9A, offset: 0xD7B9A, size: 0x8, addend: 0x0, symName: __ZNSt3__129_AllocatorDestroyRangeReverseINS_9allocatorINS_10unique_ptrIN18MultiHeadAttention10ThreadDataENS_14default_deleteIS4_EEEEEENS_16reverse_iteratorIPS7_EEEC1B8ue170006ERS8_RSB_SE_, symObjAddr: 0x2EFEC, symBinAddr: 0x1000327DC, symSize: 0x44 }
  - { offsetInCU: 0xD7BF1, offset: 0xD7BF1, size: 0x8, addend: 0x0, symName: __ZNKSt3__116reverse_iteratorIPNS_10unique_ptrIN18MultiHeadAttention10ThreadDataENS_14default_deleteIS3_EEEEEdeB8ue170006Ev, symObjAddr: 0x2F09C, symBinAddr: 0x10003288C, symSize: 0x74 }
  - { offsetInCU: 0xD7C25, offset: 0xD7C25, size: 0x8, addend: 0x0, symName: __ZNSt3__116reverse_iteratorIPNS_10unique_ptrIN18MultiHeadAttention10ThreadDataENS_14default_deleteIS3_EEEEEppB8ue170006Ev, symObjAddr: 0x2F110, symBinAddr: 0x100032900, symSize: 0x6C }
  - { offsetInCU: 0xD7C4B, offset: 0xD7C4B, size: 0x8, addend: 0x0, symName: __ZNSt3__128__exception_guard_exceptionsINS_29_AllocatorDestroyRangeReverseINS_9allocatorINS_10unique_ptrIN18MultiHeadAttention10ThreadDataENS_14default_deleteIS5_EEEEEENS_16reverse_iteratorIPS8_EEEEE10__completeB8ue170006Ev, symObjAddr: 0x2F17C, symBinAddr: 0x10003296C, symSize: 0x8C }
  - { offsetInCU: 0xD7C71, offset: 0xD7C71, size: 0x8, addend: 0x0, symName: __ZNSt3__128__exception_guard_exceptionsINS_29_AllocatorDestroyRangeReverseINS_9allocatorINS_10unique_ptrIN18MultiHeadAttention10ThreadDataENS_14default_deleteIS5_EEEEEENS_16reverse_iteratorIPS8_EEEEED1B8ue170006Ev, symObjAddr: 0x2F208, symBinAddr: 0x1000329F8, symSize: 0x2C }
  - { offsetInCU: 0xD7C9B, offset: 0xD7C9B, size: 0x8, addend: 0x0, symName: __ZNSt3__128__exception_guard_exceptionsINS_29_AllocatorDestroyRangeReverseINS_9allocatorINS_10unique_ptrIN18MultiHeadAttention10ThreadDataENS_14default_deleteIS5_EEEEEENS_16reverse_iteratorIPS8_EEEEEC1B8ue170006ESD_, symObjAddr: 0x2F234, symBinAddr: 0x100032A24, symSize: 0x34 }
  - { offsetInCU: 0xD7CD4, offset: 0xD7CD4, size: 0x8, addend: 0x0, symName: __ZNSt3__128__exception_guard_exceptionsINS_29_AllocatorDestroyRangeReverseINS_9allocatorINS_10unique_ptrIN18MultiHeadAttention10ThreadDataENS_14default_deleteIS5_EEEEEENS_16reverse_iteratorIPS8_EEEEEC2B8ue170006ESD_, symObjAddr: 0x2F268, symBinAddr: 0x100032A58, symSize: 0xA4 }
  - { offsetInCU: 0xD7D0D, offset: 0xD7D0D, size: 0x8, addend: 0x0, symName: __ZNSt3__129_AllocatorDestroyRangeReverseINS_9allocatorINS_10unique_ptrIN18MultiHeadAttention10ThreadDataENS_14default_deleteIS4_EEEEEENS_16reverse_iteratorIPS7_EEEC2B8ue170006ERS8_RSB_SE_, symObjAddr: 0x2F30C, symBinAddr: 0x100032AFC, symSize: 0x104 }
  - { offsetInCU: 0xD7D69, offset: 0xD7D69, size: 0x8, addend: 0x0, symName: __ZNSt3__119__to_address_helperINS_16reverse_iteratorIPNS_10unique_ptrIN18MultiHeadAttention10ThreadDataENS_14default_deleteIS4_EEEEEEvE6__callB8ue170006ERKS9_, symObjAddr: 0x2F410, symBinAddr: 0x100032C00, symSize: 0x44 }
  - { offsetInCU: 0xD7D8C, offset: 0xD7D8C, size: 0x8, addend: 0x0, symName: __ZNKSt3__116reverse_iteratorIPNS_10unique_ptrIN18MultiHeadAttention10ThreadDataENS_14default_deleteIS3_EEEEEptB8ue170006Ev, symObjAddr: 0x2F454, symBinAddr: 0x100032C44, symSize: 0x24 }
  - { offsetInCU: 0xD7DB2, offset: 0xD7DB2, size: 0x8, addend: 0x0, symName: __ZNSt3__128__exception_guard_exceptionsINS_29_AllocatorDestroyRangeReverseINS_9allocatorINS_10unique_ptrIN18MultiHeadAttention10ThreadDataENS_14default_deleteIS5_EEEEEENS_16reverse_iteratorIPS8_EEEEED2B8ue170006Ev, symObjAddr: 0x2F478, symBinAddr: 0x100032C68, symSize: 0xBC }
  - { offsetInCU: 0xD7DDC, offset: 0xD7DDC, size: 0x8, addend: 0x0, symName: __ZNKSt3__129_AllocatorDestroyRangeReverseINS_9allocatorINS_10unique_ptrIN18MultiHeadAttention10ThreadDataENS_14default_deleteIS4_EEEEEENS_16reverse_iteratorIPS7_EEEclB8ue170006Ev, symObjAddr: 0x2F534, symBinAddr: 0x100032D24, symSize: 0x3A8 }
  - { offsetInCU: 0xD7E03, offset: 0xD7E03, size: 0x8, addend: 0x0, symName: __ZNSt3__116reverse_iteratorINS0_IPNS_10unique_ptrIN18MultiHeadAttention10ThreadDataENS_14default_deleteIS3_EEEEEEEC1B8ue170006ES8_, symObjAddr: 0x2F94C, symBinAddr: 0x10003313C, symSize: 0x248 }
  - { offsetInCU: 0xD7E40, offset: 0xD7E40, size: 0x8, addend: 0x0, symName: __ZNSt3__116allocator_traitsINS_9allocatorINS_10unique_ptrIN18MultiHeadAttention10ThreadDataENS_14default_deleteIS4_EEEEEEE7destroyB8ue170006IS7_vEEvRS8_PT_, symObjAddr: 0x2FE60, symBinAddr: 0x100033650, symSize: 0x2C }
  - { offsetInCU: 0xD7E7D, offset: 0xD7E7D, size: 0x8, addend: 0x0, symName: __ZNSt3__116reverse_iteratorINS0_IPNS_10unique_ptrIN18MultiHeadAttention10ThreadDataENS_14default_deleteIS3_EEEEEEEppB8ue170006Ev, symObjAddr: 0x2FEB0, symBinAddr: 0x1000336A0, symSize: 0x30 }
  - { offsetInCU: 0xD7EA3, offset: 0xD7EA3, size: 0x8, addend: 0x0, symName: __ZNKSt3__116reverse_iteratorINS0_IPNS_10unique_ptrIN18MultiHeadAttention10ThreadDataENS_14default_deleteIS3_EEEEEEE4baseB8ue170006Ev, symObjAddr: 0x2FEE0, symBinAddr: 0x1000336D0, symSize: 0x20C }
  - { offsetInCU: 0xD7ECA, offset: 0xD7ECA, size: 0x8, addend: 0x0, symName: __ZNSt3__19allocatorINS_10unique_ptrIN18MultiHeadAttention10ThreadDataENS_14default_deleteIS3_EEEEE7destroyB8ue170006EPS6_, symObjAddr: 0x300EC, symBinAddr: 0x1000338DC, symSize: 0x28 }
  - { offsetInCU: 0xD7F03, offset: 0xD7F03, size: 0x8, addend: 0x0, symName: __ZNSt3__119__to_address_helperINS_16reverse_iteratorINS1_IPNS_10unique_ptrIN18MultiHeadAttention10ThreadDataENS_14default_deleteIS4_EEEEEEEEvE6__callB8ue170006ERKSA_, symObjAddr: 0x30114, symBinAddr: 0x100033904, symSize: 0x44 }
  - { offsetInCU: 0xD7F26, offset: 0xD7F26, size: 0x8, addend: 0x0, symName: __ZNKSt3__116reverse_iteratorINS0_IPNS_10unique_ptrIN18MultiHeadAttention10ThreadDataENS_14default_deleteIS3_EEEEEEEptB8ue170006Ev, symObjAddr: 0x30158, symBinAddr: 0x100033948, symSize: 0x24 }
  - { offsetInCU: 0xD7F4C, offset: 0xD7F4C, size: 0x8, addend: 0x0, symName: __ZNKSt3__116reverse_iteratorINS0_IPNS_10unique_ptrIN18MultiHeadAttention10ThreadDataENS_14default_deleteIS3_EEEEEEEdeB8ue170006Ev, symObjAddr: 0x3017C, symBinAddr: 0x10003396C, symSize: 0x1EC }
  - { offsetInCU: 0xD7F85, offset: 0xD7F85, size: 0x8, addend: 0x0, symName: __ZNSt3__116reverse_iteratorIPNS_10unique_ptrIN18MultiHeadAttention10ThreadDataENS_14default_deleteIS3_EEEEEmmB8ue170006Ev, symObjAddr: 0x30368, symBinAddr: 0x100033B58, symSize: 0x6C }
  - { offsetInCU: 0xD7FAB, offset: 0xD7FAB, size: 0x8, addend: 0x0, symName: __ZNSt3__116reverse_iteratorINS0_IPNS_10unique_ptrIN18MultiHeadAttention10ThreadDataENS_14default_deleteIS3_EEEEEEEC2B8ue170006ES8_, symObjAddr: 0x303D4, symBinAddr: 0x100033BC4, symSize: 0x22C }
  - { offsetInCU: 0xD7FE8, offset: 0xD7FE8, size: 0x8, addend: 0x0, symName: __ZNSt3__116reverse_iteratorIPNS_10unique_ptrIN18MultiHeadAttention10ThreadDataENS_14default_deleteIS3_EEEEEC2B8ue170006ES7_, symObjAddr: 0x30600, symBinAddr: 0x100033DF0, symSize: 0xB8 }
  - { offsetInCU: 0xD8020, offset: 0xD8020, size: 0x8, addend: 0x0, symName: __ZNSt3__114__split_bufferINS_10unique_ptrIN18MultiHeadAttention10ThreadDataENS_14default_deleteIS3_EEEERNS_9allocatorIS6_EEED2Ev, symObjAddr: 0x306B8, symBinAddr: 0x100033EA8, symSize: 0x104 }
  - { offsetInCU: 0xD804C, offset: 0xD804C, size: 0x8, addend: 0x0, symName: __ZNSt3__114__split_bufferINS_10unique_ptrIN18MultiHeadAttention10ThreadDataENS_14default_deleteIS3_EEEERNS_9allocatorIS6_EEE5clearB8ue170006Ev, symObjAddr: 0x307BC, symBinAddr: 0x100033FAC, symSize: 0x68 }
  - { offsetInCU: 0xD8072, offset: 0xD8072, size: 0x8, addend: 0x0, symName: __ZNSt3__116allocator_traitsINS_9allocatorINS_10unique_ptrIN18MultiHeadAttention10ThreadDataENS_14default_deleteIS4_EEEEEEE10deallocateB8ue170006ERS8_PS7_m, symObjAddr: 0x30824, symBinAddr: 0x100034014, symSize: 0x34 }
  - { offsetInCU: 0xD80B4, offset: 0xD80B4, size: 0x8, addend: 0x0, symName: __ZNKSt3__114__split_bufferINS_10unique_ptrIN18MultiHeadAttention10ThreadDataENS_14default_deleteIS3_EEEERNS_9allocatorIS6_EEE8capacityB8ue170006Ev, symObjAddr: 0x30858, symBinAddr: 0x100034048, symSize: 0xBC }
  - { offsetInCU: 0xD80DA, offset: 0xD80DA, size: 0x8, addend: 0x0, symName: __ZNSt3__114__split_bufferINS_10unique_ptrIN18MultiHeadAttention10ThreadDataENS_14default_deleteIS3_EEEERNS_9allocatorIS6_EEE17__destruct_at_endB8ue170006EPS6_, symObjAddr: 0x30914, symBinAddr: 0x100034104, symSize: 0x2C }
  - { offsetInCU: 0xD810E, offset: 0xD810E, size: 0x8, addend: 0x0, symName: __ZNSt3__114__split_bufferINS_10unique_ptrIN18MultiHeadAttention10ThreadDataENS_14default_deleteIS3_EEEERNS_9allocatorIS6_EEE17__destruct_at_endB8ue170006EPS6_NS_17integral_constantIbLb0EEE, symObjAddr: 0x30940, symBinAddr: 0x100034130, symSize: 0x10C }
  - { offsetInCU: 0xD814E, offset: 0xD814E, size: 0x8, addend: 0x0, symName: __ZNSt3__19allocatorINS_10unique_ptrIN18MultiHeadAttention10ThreadDataENS_14default_deleteIS3_EEEEE10deallocateB8ue170006EPS6_m, symObjAddr: 0x30A4C, symBinAddr: 0x10003423C, symSize: 0x4C }
  - { offsetInCU: 0xD8190, offset: 0xD8190, size: 0x8, addend: 0x0, symName: __ZNKSt3__114__split_bufferINS_10unique_ptrIN18MultiHeadAttention10ThreadDataENS_14default_deleteIS3_EEEERNS_9allocatorIS6_EEE9__end_capB8ue170006Ev, symObjAddr: 0x30A98, symBinAddr: 0x100034288, symSize: 0x28 }
  - { offsetInCU: 0xD81B6, offset: 0xD81B6, size: 0x8, addend: 0x0, symName: __ZNKSt3__117__compressed_pairIPNS_10unique_ptrIN18MultiHeadAttention10ThreadDataENS_14default_deleteIS3_EEEERNS_9allocatorIS6_EEE5firstB8ue170006Ev, symObjAddr: 0x30AC0, symBinAddr: 0x1000342B0, symSize: 0x24 }
  - { offsetInCU: 0xD81DC, offset: 0xD81DC, size: 0x8, addend: 0x0, symName: __ZN18MultiHeadAttention10ThreadDataC1EiPKN5Eigen6MatrixIdLin1ELin1ELi0ELin1ELin1EEES5_S5_S5_S5_S5_dPS3_, symObjAddr: 0x30AE4, symBinAddr: 0x1000342D4, symSize: 0x80 }
  - { offsetInCU: 0xD8284, offset: 0xD8284, size: 0x8, addend: 0x0, symName: __ZNSt3__110unique_ptrIN18MultiHeadAttention10ThreadDataENS_14default_deleteIS2_EEEC1B8ue170006ILb1EvEEPS2_, symObjAddr: 0x30B64, symBinAddr: 0x100034354, symSize: 0x34 }
  - { offsetInCU: 0xD82C7, offset: 0xD82C7, size: 0x8, addend: 0x0, symName: __ZN18MultiHeadAttention10ThreadDataC2EiPKN5Eigen6MatrixIdLin1ELin1ELi0ELin1ELin1EEES5_S5_S5_S5_S5_dPS3_, symObjAddr: 0x30B98, symBinAddr: 0x100034388, symSize: 0x2E8 }
  - { offsetInCU: 0xD8373, offset: 0xD8373, size: 0x8, addend: 0x0, symName: __ZNSt3__110unique_ptrIN18MultiHeadAttention10ThreadDataENS_14default_deleteIS2_EEEC2B8ue170006ILb1EvEEPS2_, symObjAddr: 0x30E80, symBinAddr: 0x100034670, symSize: 0x260 }
  - { offsetInCU: 0xD83C1, offset: 0xD83C1, size: 0x8, addend: 0x0, symName: __ZNSt3__117__compressed_pairIPN18MultiHeadAttention10ThreadDataENS_14default_deleteIS2_EEEC1B8ue170006IRS3_NS_16__value_init_tagEEEOT_OT0_, symObjAddr: 0x310E0, symBinAddr: 0x1000348D0, symSize: 0x3C }
  - { offsetInCU: 0xD8419, offset: 0xD8419, size: 0x8, addend: 0x0, symName: __ZNSt3__117__compressed_pairIPN18MultiHeadAttention10ThreadDataENS_14default_deleteIS2_EEEC2B8ue170006IRS3_NS_16__value_init_tagEEEOT_OT0_, symObjAddr: 0x3111C, symBinAddr: 0x10003490C, symSize: 0x40 }
  - { offsetInCU: 0xD8471, offset: 0xD8471, size: 0x8, addend: 0x0, symName: __ZNSt3__122__compressed_pair_elemIPN18MultiHeadAttention10ThreadDataELi0ELb0EEC2B8ue170006IRS3_vEEOT_, symObjAddr: 0x3115C, symBinAddr: 0x10003494C, symSize: 0xB0 }
  - { offsetInCU: 0xD84B3, offset: 0xD84B3, size: 0x8, addend: 0x0, symName: __ZNSt3__122__compressed_pair_elemINS_14default_deleteIN18MultiHeadAttention10ThreadDataEEELi1ELb1EEC2B8ue170006ENS_16__value_init_tagE, symObjAddr: 0x3120C, symBinAddr: 0x1000349FC, symSize: 0x14 }
  - { offsetInCU: 0xD84E7, offset: 0xD84E7, size: 0x8, addend: 0x0, symName: __ZNSt3__110unique_ptrIN18MultiHeadAttention10ThreadDataENS_14default_deleteIS2_EEED2B8ue170006Ev, symObjAddr: 0x31220, symBinAddr: 0x100034A10, symSize: 0x30 }
  - { offsetInCU: 0xD8511, offset: 0xD8511, size: 0x8, addend: 0x0, symName: __ZNSt3__110unique_ptrIN18MultiHeadAttention10ThreadDataENS_14default_deleteIS2_EEE5resetB8ue170006EPS2_, symObjAddr: 0x31250, symBinAddr: 0x100034A40, symSize: 0xEC }
  - { offsetInCU: 0xD8555, offset: 0xD8555, size: 0x8, addend: 0x0, symName: __ZNKSt3__114default_deleteIN18MultiHeadAttention10ThreadDataEEclB8ue170006EPS2_, symObjAddr: 0x3133C, symBinAddr: 0x100034B2C, symSize: 0x44 }
  - { offsetInCU: 0xD8589, offset: 0xD8589, size: 0x8, addend: 0x0, symName: __ZNKSt3__117__compressed_pairIPN18MultiHeadAttention10ThreadDataENS_14default_deleteIS2_EEE5firstB8ue170006Ev, symObjAddr: 0x31380, symBinAddr: 0x100034B70, symSize: 0x24 }
  - { offsetInCU: 0xD85AF, offset: 0xD85AF, size: 0x8, addend: 0x0, symName: __ZNKSt3__122__compressed_pair_elemIPN18MultiHeadAttention10ThreadDataELi0ELb0EE5__getB8ue170006Ev, symObjAddr: 0x313A4, symBinAddr: 0x100034B94, symSize: 0x14 }
  - { offsetInCU: 0xD85D5, offset: 0xD85D5, size: 0x8, addend: 0x0, symName: __ZNKSt3__16vectorIN5Eigen6MatrixIdLin1ELin1ELi0ELin1ELin1EEENS_9allocatorIS3_EEEixB8ue170006Em, symObjAddr: 0x313B8, symBinAddr: 0x100034BA8, symSize: 0x74 }
  - { offsetInCU: 0xD8611, offset: 0xD8611, size: 0x8, addend: 0x0, symName: __ZN5Eigen6MatrixIdLin1ELin1ELi0ELin1ELin1EEC1IlmEERKT_RKT0_, symObjAddr: 0x3142C, symBinAddr: 0x100034C1C, symSize: 0x3C }
  - { offsetInCU: 0xD866B, offset: 0xD866B, size: 0x8, addend: 0x0, symName: __ZN5Eigen9DenseBaseINS_6MatrixIdLin1ELin1ELi0ELin1ELin1EEEE5blockIllEENS3_13FixedBlockXprIXsr8internal15get_fixed_valueIT_EE5valueEXsr8internal15get_fixed_valueIT0_EE5valueEE4TypeEllS6_S7_, symObjAddr: 0x31468, symBinAddr: 0x100034C58, symSize: 0x2C8 }
  - { offsetInCU: 0xD86E6, offset: 0xD86E6, size: 0x8, addend: 0x0, symName: __ZN5Eigen5BlockINS_6MatrixIdLin1ELin1ELi0ELin1ELin1EEELin1ELin1ELb0EEaSIS2_EERS3_RKNS_9DenseBaseIT_EE, symObjAddr: 0x31730, symBinAddr: 0x100034F20, symSize: 0x40 }
  - { offsetInCU: 0xD8723, offset: 0xD8723, size: 0x8, addend: 0x0, symName: __ZN5Eigen6MatrixIdLin1ELin1ELi0ELin1ELin1EEC2IlmEERKT_RKT0_, symObjAddr: 0x31770, symBinAddr: 0x100034F60, symSize: 0xFC }
  - { offsetInCU: 0xD8782, offset: 0xD8782, size: 0x8, addend: 0x0, symName: __ZN5Eigen15PlainObjectBaseINS_6MatrixIdLin1ELin1ELi0ELin1ELin1EEEE6_init2IlmEEvllPNS_8internal9enable_ifILb1ET_E4typeE, symObjAddr: 0x3186C, symBinAddr: 0x10003505C, symSize: 0x44 }
  - { offsetInCU: 0xD8801, offset: 0xD8801, size: 0x8, addend: 0x0, symName: __ZN5Eigen5BlockINS_6MatrixIdLin1ELin1ELi0ELin1ELin1EEELin1ELin1ELb0EEC1ERS2_llll, symObjAddr: 0x31910, symBinAddr: 0x100035100, symSize: 0x54 }
  - { offsetInCU: 0xD8871, offset: 0xD8871, size: 0x8, addend: 0x0, symName: __ZN5Eigen5BlockINS_6MatrixIdLin1ELin1ELi0ELin1ELin1EEELin1ELin1ELb0EEC2ERS2_llll, symObjAddr: 0x31964, symBinAddr: 0x100035154, symSize: 0x158 }
  - { offsetInCU: 0xD88E1, offset: 0xD88E1, size: 0x8, addend: 0x0, symName: __ZN5Eigen9BlockImplINS_6MatrixIdLin1ELin1ELi0ELin1ELin1EEELin1ELin1ELb0ENS_5DenseEEC2ERS2_llll, symObjAddr: 0x31ABC, symBinAddr: 0x1000352AC, symSize: 0x54 }
  - { offsetInCU: 0xD8951, offset: 0xD8951, size: 0x8, addend: 0x0, symName: __ZN5Eigen8internal15BlockImpl_denseINS_6MatrixIdLin1ELin1ELi0ELin1ELin1EEELin1ELin1ELb0ELb1EEC2ERS3_llll, symObjAddr: 0x31B10, symBinAddr: 0x100035300, symSize: 0x110 }
  - { offsetInCU: 0xD89C6, offset: 0xD89C6, size: 0x8, addend: 0x0, symName: __ZN5Eigen15PlainObjectBaseINS_6MatrixIdLin1ELin1ELi0ELin1ELin1EEEE4dataEv, symObjAddr: 0x31C20, symBinAddr: 0x100035410, symSize: 0x24 }
  - { offsetInCU: 0xD89EC, offset: 0xD89EC, size: 0x8, addend: 0x0, symName: __ZNK5Eigen6MatrixIdLin1ELin1ELi0ELin1ELin1EE11innerStrideEv, symObjAddr: 0x31C44, symBinAddr: 0x100035434, symSize: 0x14 }
  - { offsetInCU: 0xD8A12, offset: 0xD8A12, size: 0x8, addend: 0x0, symName: __ZN5Eigen7MapBaseINS_5BlockINS_6MatrixIdLin1ELin1ELi0ELin1ELin1EEELin1ELin1ELb0EEELi1EEC2EPdll, symObjAddr: 0x31C58, symBinAddr: 0x100035448, symSize: 0x44 }
  - { offsetInCU: 0xD8A69, offset: 0xD8A69, size: 0x8, addend: 0x0, symName: __ZN5Eigen8internal15BlockImpl_denseINS_6MatrixIdLin1ELin1ELi0ELin1ELin1EEELin1ELin1ELb0ELb1EE4initEv, symObjAddr: 0x31C9C, symBinAddr: 0x10003548C, symSize: 0xB0 }
  - { offsetInCU: 0xD8A8F, offset: 0xD8A8F, size: 0x8, addend: 0x0, symName: __ZN5Eigen12DenseStorageIdLin1ELin1ELin1ELi0EE4dataEv, symObjAddr: 0x31D4C, symBinAddr: 0x10003553C, symSize: 0x60 }
  - { offsetInCU: 0xD8AB5, offset: 0xD8AB5, size: 0x8, addend: 0x0, symName: __ZN5Eigen7MapBaseINS_5BlockINS_6MatrixIdLin1ELin1ELi0ELin1ELin1EEELin1ELin1ELb0EEELi0EEC2EPdll, symObjAddr: 0x31DAC, symBinAddr: 0x10003559C, symSize: 0x15C }
  - { offsetInCU: 0xD8B09, offset: 0xD8B09, size: 0x8, addend: 0x0, symName: __ZN5Eigen10MatrixBaseINS_5BlockINS_6MatrixIdLin1ELin1ELi0ELin1ELin1EEELin1ELin1ELb0EEEEC2Ev, symObjAddr: 0x31F08, symBinAddr: 0x1000356F8, symSize: 0x2C }
  - { offsetInCU: 0xD8B33, offset: 0xD8B33, size: 0x8, addend: 0x0, symName: __ZNK5Eigen7MapBaseINS_5BlockINS_6MatrixIdLin1ELin1ELi0ELin1ELin1EEELin1ELin1ELb0EEELi0EE11checkSanityIS4_EEvNS_8internal9enable_ifIXeqsr8internal6traitsIT_EE9AlignmentLi0EEPvE4typeE, symObjAddr: 0x31F34, symBinAddr: 0x100035724, symSize: 0x14 }
  - { offsetInCU: 0xD8B6C, offset: 0xD8B6C, size: 0x8, addend: 0x0, symName: __ZN5Eigen9DenseBaseINS_5BlockINS_6MatrixIdLin1ELin1ELi0ELin1ELin1EEELin1ELin1ELb0EEEEC2Ev, symObjAddr: 0x31F48, symBinAddr: 0x100035738, symSize: 0x14 }
  - { offsetInCU: 0xD8B96, offset: 0xD8B96, size: 0x8, addend: 0x0, symName: __ZN5Eigen9BlockImplINS_6MatrixIdLin1ELin1ELi0ELin1ELin1EEELin1ELin1ELb0ENS_5DenseEEaSIS2_EERS4_RKNS_9DenseBaseIT_EE, symObjAddr: 0x31F5C, symBinAddr: 0x10003574C, symSize: 0x40 }
  - { offsetInCU: 0xD8BD3, offset: 0xD8BD3, size: 0x8, addend: 0x0, symName: __ZN5Eigen8internal15BlockImpl_denseINS_6MatrixIdLin1ELin1ELi0ELin1ELin1EEELin1ELin1ELb0ELb1EEaSIS3_EERS4_RKNS_9DenseBaseIT_EE, symObjAddr: 0x31F9C, symBinAddr: 0x10003578C, symSize: 0x40 }
  - { offsetInCU: 0xD8C11, offset: 0xD8C11, size: 0x8, addend: 0x0, symName: __ZN5Eigen10MatrixBaseINS_5BlockINS_6MatrixIdLin1ELin1ELi0ELin1ELin1EEELin1ELin1ELb0EEEEaSIS3_EERS4_RKNS_9DenseBaseIT_EE, symObjAddr: 0x31FDC, symBinAddr: 0x1000357CC, symSize: 0x4C }
  - { offsetInCU: 0xD8C50, offset: 0xD8C50, size: 0x8, addend: 0x0, symName: __ZN5Eigen9EigenBaseINS_5BlockINS_6MatrixIdLin1ELin1ELi0ELin1ELin1EEELin1ELin1ELb0EEEE7derivedEv, symObjAddr: 0x32220, symBinAddr: 0x100035A10, symSize: 0x14 }
  - { offsetInCU: 0xD8C76, offset: 0xD8C76, size: 0x8, addend: 0x0, symName: __ZN5Eigen8internal10AssignmentINS_5BlockINS_6MatrixIdLin1ELin1ELi0ELin1ELin1EEELin1ELin1ELb0EEES4_NS0_9assign_opIddEENS0_11Dense2DenseEvE3runERS5_RKS4_RKS7_, symObjAddr: 0x322A8, symBinAddr: 0x100035A98, symSize: 0x40 }
  - { offsetInCU: 0xD8CB8, offset: 0xD8CB8, size: 0x8, addend: 0x0, symName: __ZNK5Eigen7MapBaseINS_5BlockINS_6MatrixIdLin1ELin1ELi0ELin1ELin1EEELin1ELin1ELb0EEELi0EE4rowsEv, symObjAddr: 0x3276C, symBinAddr: 0x100035F5C, symSize: 0x28 }
  - { offsetInCU: 0xD8CDE, offset: 0xD8CDE, size: 0x8, addend: 0x0, symName: __ZNK5Eigen7MapBaseINS_5BlockINS_6MatrixIdLin1ELin1ELi0ELin1ELin1EEELin1ELin1ELb0EEELi0EE4colsEv, symObjAddr: 0x32794, symBinAddr: 0x100035F84, symSize: 0x28 }
  - { offsetInCU: 0xD8D04, offset: 0xD8D04, size: 0x8, addend: 0x0, symName: __ZN5Eigen8internal27checkTransposeAliasing_implINS_5BlockINS_6MatrixIdLin1ELin1ELi0ELin1ELin1EEELin1ELin1ELb0EEES4_Lb0EE3runERKS5_RKS4_, symObjAddr: 0x327BC, symBinAddr: 0x100035FAC, symSize: 0x14 }
  - { offsetInCU: 0xD8D2F, offset: 0xD8D2F, size: 0x8, addend: 0x0, symName: __ZN5Eigen8internal9evaluatorINS_5BlockINS_6MatrixIdLin1ELin1ELi0ELin1ELin1EEELin1ELin1ELb0EEEEC1ERKS5_, symObjAddr: 0x328CC, symBinAddr: 0x1000360BC, symSize: 0x34 }
  - { offsetInCU: 0xD8D68, offset: 0xD8D68, size: 0x8, addend: 0x0, symName: __ZNK5Eigen9EigenBaseINS_5BlockINS_6MatrixIdLin1ELin1ELi0ELin1ELin1EEELin1ELin1ELb0EEEE18const_cast_derivedEv, symObjAddr: 0x32900, symBinAddr: 0x1000360F0, symSize: 0x14 }
  - { offsetInCU: 0xD8D8E, offset: 0xD8D8E, size: 0x8, addend: 0x0, symName: __ZN5Eigen8internal31generic_dense_assignment_kernelINS0_9evaluatorINS_5BlockINS_6MatrixIdLin1ELin1ELi0ELin1ELin1EEELin1ELin1ELb0EEEEENS2_IS5_EENS0_9assign_opIddEELi0EEC1ERS7_RKS8_RKSA_RS6_, symObjAddr: 0x32914, symBinAddr: 0x100036104, symSize: 0x4C }
  - { offsetInCU: 0xD8DF4, offset: 0xD8DF4, size: 0x8, addend: 0x0, symName: __ZN5Eigen8internal9evaluatorINS_5BlockINS_6MatrixIdLin1ELin1ELi0ELin1ELin1EEELin1ELin1ELb0EEEED1Ev, symObjAddr: 0x32F14, symBinAddr: 0x100036704, symSize: 0x2C }
  - { offsetInCU: 0xD8E21, offset: 0xD8E21, size: 0x8, addend: 0x0, symName: __ZN5Eigen9DenseBaseINS_5BlockINS_6MatrixIdLin1ELin1ELi0ELin1ELin1EEELin1ELin1ELb0EEEE6resizeEll, symObjAddr: 0x32F40, symBinAddr: 0x100036730, symSize: 0xC0 }
  - { offsetInCU: 0xD8E65, offset: 0xD8E65, size: 0x8, addend: 0x0, symName: __ZNK5Eigen9EigenBaseINS_5BlockINS_6MatrixIdLin1ELin1ELi0ELin1ELin1EEELin1ELin1ELb0EEEE4rowsEv, symObjAddr: 0x33000, symBinAddr: 0x1000367F0, symSize: 0x44 }
  - { offsetInCU: 0xD8E8B, offset: 0xD8E8B, size: 0x8, addend: 0x0, symName: __ZNK5Eigen9EigenBaseINS_5BlockINS_6MatrixIdLin1ELin1ELi0ELin1ELin1EEELin1ELin1ELb0EEEE4colsEv, symObjAddr: 0x33044, symBinAddr: 0x100036834, symSize: 0x28 }
  - { offsetInCU: 0xD8EB1, offset: 0xD8EB1, size: 0x8, addend: 0x0, symName: __ZNK5Eigen9EigenBaseINS_5BlockINS_6MatrixIdLin1ELin1ELi0ELin1ELin1EEELin1ELin1ELb0EEEE7derivedEv, symObjAddr: 0x3306C, symBinAddr: 0x10003685C, symSize: 0x14 }
  - { offsetInCU: 0xD8ED7, offset: 0xD8ED7, size: 0x8, addend: 0x0, symName: __ZN5Eigen8internal9evaluatorINS_5BlockINS_6MatrixIdLin1ELin1ELi0ELin1ELin1EEELin1ELin1ELb0EEEEC2ERKS5_, symObjAddr: 0x33080, symBinAddr: 0x100036870, symSize: 0x34 }
  - { offsetInCU: 0xD8F10, offset: 0xD8F10, size: 0x8, addend: 0x0, symName: __ZN5Eigen8internal15block_evaluatorINS_6MatrixIdLin1ELin1ELi0ELin1ELin1EEELin1ELin1ELb0ELb1EEC2ERKNS_5BlockIS3_Lin1ELin1ELb0EEE, symObjAddr: 0x330B4, symBinAddr: 0x1000368A4, symSize: 0xE0 }
  - { offsetInCU: 0xD8F49, offset: 0xD8F49, size: 0x8, addend: 0x0, symName: __ZN5Eigen8internal17mapbase_evaluatorINS_5BlockINS_6MatrixIdLin1ELin1ELi0ELin1ELin1EEELin1ELin1ELb0EEES4_EC2ERKS5_, symObjAddr: 0x33194, symBinAddr: 0x100036984, symSize: 0xF0 }
  - { offsetInCU: 0xD8F82, offset: 0xD8F82, size: 0x8, addend: 0x0, symName: __ZNK5Eigen7MapBaseINS_5BlockINS_6MatrixIdLin1ELin1ELi0ELin1ELin1EEELin1ELin1ELb0EEELi1EE4dataEv, symObjAddr: 0x33284, symBinAddr: 0x100036A74, symSize: 0x60 }
  - { offsetInCU: 0xD8FA8, offset: 0xD8FA8, size: 0x8, addend: 0x0, symName: __ZN5Eigen8internal17mapbase_evaluatorINS_5BlockINS_6MatrixIdLin1ELin1ELi0ELin1ELin1EEELin1ELin1ELb0EEES4_ED2Ev, symObjAddr: 0x332E4, symBinAddr: 0x100036AD4, symSize: 0x2C }
  - { offsetInCU: 0xD8FD5, offset: 0xD8FD5, size: 0x8, addend: 0x0, symName: __ZN5Eigen8internal14evaluator_baseINS_5BlockINS_6MatrixIdLin1ELin1ELi0ELin1ELin1EEELin1ELin1ELb0EEEEC2Ev, symObjAddr: 0x33310, symBinAddr: 0x100036B00, symSize: 0x14 }
  - { offsetInCU: 0xD8FFF, offset: 0xD8FFF, size: 0x8, addend: 0x0, symName: __ZNK5Eigen8internal15BlockImpl_denseINS_6MatrixIdLin1ELin1ELi0ELin1ELin1EEELin1ELin1ELb0ELb1EE11innerStrideEv, symObjAddr: 0x33324, symBinAddr: 0x100036B14, symSize: 0x68 }
  - { offsetInCU: 0xD9025, offset: 0xD9025, size: 0x8, addend: 0x0, symName: __ZNK5Eigen8internal15BlockImpl_denseINS_6MatrixIdLin1ELin1ELi0ELin1ELin1EEELin1ELin1ELb0ELb1EE11outerStrideEv, symObjAddr: 0x3338C, symBinAddr: 0x100036B7C, symSize: 0x68 }
  - { offsetInCU: 0xD904B, offset: 0xD904B, size: 0x8, addend: 0x0, symName: __ZN5Eigen8internal14evaluator_baseINS_5BlockINS_6MatrixIdLin1ELin1ELi0ELin1ELin1EEELin1ELin1ELb0EEEED2Ev, symObjAddr: 0x333F4, symBinAddr: 0x100036BE4, symSize: 0x14 }
  - { offsetInCU: 0xD9075, offset: 0xD9075, size: 0x8, addend: 0x0, symName: __ZN5Eigen8internal31generic_dense_assignment_kernelINS0_9evaluatorINS_5BlockINS_6MatrixIdLin1ELin1ELi0ELin1ELin1EEELin1ELin1ELb0EEEEENS2_IS5_EENS0_9assign_opIddEELi0EEC2ERS7_RKS8_RKSA_RS6_, symObjAddr: 0x33408, symBinAddr: 0x100036BF8, symSize: 0x14C }
  - { offsetInCU: 0xD90DB, offset: 0xD90DB, size: 0x8, addend: 0x0, symName: __ZNK5Eigen8internal31generic_dense_assignment_kernelINS0_9evaluatorINS_5BlockINS_6MatrixIdLin1ELin1ELi0ELin1ELin1EEELin1ELin1ELb0EEEEENS2_IS5_EENS0_9assign_opIddEELi0EE10dstDataPtrEv, symObjAddr: 0x33554, symBinAddr: 0x100036D44, symSize: 0x68 }
  - { offsetInCU: 0xD9101, offset: 0xD9101, size: 0x8, addend: 0x0, symName: __ZN5Eigen8internal21dense_assignment_loopINS0_31generic_dense_assignment_kernelINS0_9evaluatorINS_5BlockINS_6MatrixIdLin1ELin1ELi0ELin1ELin1EEELin1ELin1ELb0EEEEENS3_IS6_EENS0_9assign_opIddEELi0EEELi0ELi0EE3runERSC_, symObjAddr: 0x335BC, symBinAddr: 0x100036DAC, symSize: 0xC4 }
  - { offsetInCU: 0xD915F, offset: 0xD915F, size: 0x8, addend: 0x0, symName: __ZNK5Eigen8internal31generic_dense_assignment_kernelINS0_9evaluatorINS_5BlockINS_6MatrixIdLin1ELin1ELi0ELin1ELin1EEELin1ELin1ELb0EEEEENS2_IS5_EENS0_9assign_opIddEELi0EE9innerSizeEv, symObjAddr: 0x33680, symBinAddr: 0x100036E70, symSize: 0x84 }
  - { offsetInCU: 0xD9185, offset: 0xD9185, size: 0x8, addend: 0x0, symName: __ZNK5Eigen8internal31generic_dense_assignment_kernelINS0_9evaluatorINS_5BlockINS_6MatrixIdLin1ELin1ELi0ELin1ELin1EEELin1ELin1ELb0EEEEENS2_IS5_EENS0_9assign_opIddEELi0EE9outerSizeEv, symObjAddr: 0x33704, symBinAddr: 0x100036EF4, symSize: 0x84 }
  - { offsetInCU: 0xD91AB, offset: 0xD91AB, size: 0x8, addend: 0x0, symName: __ZNK5Eigen8internal31generic_dense_assignment_kernelINS0_9evaluatorINS_5BlockINS_6MatrixIdLin1ELin1ELi0ELin1ELin1EEELin1ELin1ELb0EEEEENS2_IS5_EENS0_9assign_opIddEELi0EE11outerStrideEv, symObjAddr: 0x33788, symBinAddr: 0x100036F78, symSize: 0x68 }
  - { offsetInCU: 0xD91D1, offset: 0xD91D1, size: 0x8, addend: 0x0, symName: __ZN5Eigen8internal31generic_dense_assignment_kernelINS0_9evaluatorINS_5BlockINS_6MatrixIdLin1ELin1ELi0ELin1ELin1EEELin1ELin1ELb0EEEEENS2_IS5_EENS0_9assign_opIddEELi0EE23assignCoeffByOuterInnerEll, symObjAddr: 0x338AC, symBinAddr: 0x10003709C, symSize: 0x60 }
  - { offsetInCU: 0xD9233, offset: 0xD9233, size: 0x8, addend: 0x0, symName: __ZN5Eigen8internal31generic_dense_assignment_kernelINS0_9evaluatorINS_5BlockINS_6MatrixIdLin1ELin1ELi0ELin1ELin1EEELin1ELin1ELb0EEEEENS2_IS5_EENS0_9assign_opIddEELi0EE24assignPacketByOuterInnerILi16ELi0E19__simd128_float64_tEEvll, symObjAddr: 0x3390C, symBinAddr: 0x1000370FC, symSize: 0x60 }
  - { offsetInCU: 0xD92B2, offset: 0xD92B2, size: 0x8, addend: 0x0, symName: __ZN5Eigen7MapBaseINS_5BlockINS_6MatrixIdLin1ELin1ELi0ELin1ELin1EEELin1ELin1ELb0EEELi1EE4dataEv, symObjAddr: 0x3396C, symBinAddr: 0x10003715C, symSize: 0x60 }
  - { offsetInCU: 0xD92D8, offset: 0xD92D8, size: 0x8, addend: 0x0, symName: __ZNK5Eigen9DenseBaseINS_5BlockINS_6MatrixIdLin1ELin1ELi0ELin1ELin1EEELin1ELin1ELb0EEEE9innerSizeEv, symObjAddr: 0x339CC, symBinAddr: 0x1000371BC, symSize: 0x24 }
  - { offsetInCU: 0xD92FE, offset: 0xD92FE, size: 0x8, addend: 0x0, symName: __ZNK5Eigen9DenseBaseINS_5BlockINS_6MatrixIdLin1ELin1ELi0ELin1ELin1EEELin1ELin1ELb0EEEE9outerSizeEv, symObjAddr: 0x339F0, symBinAddr: 0x1000371E0, symSize: 0x24 }
  - { offsetInCU: 0xD9324, offset: 0xD9324, size: 0x8, addend: 0x0, symName: __ZN5Eigen8internal31generic_dense_assignment_kernelINS0_9evaluatorINS_5BlockINS_6MatrixIdLin1ELin1ELi0ELin1ELin1EEELin1ELin1ELb0EEEEENS2_IS5_EENS0_9assign_opIddEELi0EE20rowIndexByOuterInnerEll, symObjAddr: 0x33A14, symBinAddr: 0x100037204, symSize: 0x18 }
  - { offsetInCU: 0xD9357, offset: 0xD9357, size: 0x8, addend: 0x0, symName: __ZN5Eigen8internal31generic_dense_assignment_kernelINS0_9evaluatorINS_5BlockINS_6MatrixIdLin1ELin1ELi0ELin1ELin1EEELin1ELin1ELb0EEEEENS2_IS5_EENS0_9assign_opIddEELi0EE20colIndexByOuterInnerEll, symObjAddr: 0x33A2C, symBinAddr: 0x10003721C, symSize: 0x18 }
  - { offsetInCU: 0xD938A, offset: 0xD938A, size: 0x8, addend: 0x0, symName: __ZN5Eigen8internal31generic_dense_assignment_kernelINS0_9evaluatorINS_5BlockINS_6MatrixIdLin1ELin1ELi0ELin1ELin1EEELin1ELin1ELb0EEEEENS2_IS5_EENS0_9assign_opIddEELi0EE11assignCoeffEll, symObjAddr: 0x33A44, symBinAddr: 0x100037234, symSize: 0x110 }
  - { offsetInCU: 0xD93CE, offset: 0xD93CE, size: 0x8, addend: 0x0, symName: __ZN5Eigen8internal17mapbase_evaluatorINS_5BlockINS_6MatrixIdLin1ELin1ELi0ELin1ELin1EEELin1ELin1ELb0EEES4_E8coeffRefEll, symObjAddr: 0x33B54, symBinAddr: 0x100037344, symSize: 0xB0 }
  - { offsetInCU: 0xD9412, offset: 0xD9412, size: 0x8, addend: 0x0, symName: __ZNK5Eigen8internal9evaluatorINS_15PlainObjectBaseINS_6MatrixIdLin1ELin1ELi0ELin1ELin1EEEEEE5coeffEll, symObjAddr: 0x33C04, symBinAddr: 0x1000373F4, symSize: 0x98 }
  - { offsetInCU: 0xD9454, offset: 0xD9454, size: 0x8, addend: 0x0, symName: __ZNK5Eigen8internal17mapbase_evaluatorINS_5BlockINS_6MatrixIdLin1ELin1ELi0ELin1ELin1EEELin1ELin1ELb0EEES4_E9colStrideEv, symObjAddr: 0x33C9C, symBinAddr: 0x10003748C, symSize: 0x28 }
  - { offsetInCU: 0xD947A, offset: 0xD947A, size: 0x8, addend: 0x0, symName: __ZNK5Eigen8internal17mapbase_evaluatorINS_5BlockINS_6MatrixIdLin1ELin1ELi0ELin1ELin1EEELin1ELin1ELb0EEES4_E9rowStrideEv, symObjAddr: 0x33CC4, symBinAddr: 0x1000374B4, symSize: 0x20 }
  - { offsetInCU: 0xD94A0, offset: 0xD94A0, size: 0x8, addend: 0x0, symName: __ZNK5Eigen8internal30plainobjectbase_evaluator_dataIdLin1EE11outerStrideEv, symObjAddr: 0x33CE4, symBinAddr: 0x1000374D4, symSize: 0x64 }
  - { offsetInCU: 0xD94C6, offset: 0xD94C6, size: 0x8, addend: 0x0, symName: __ZN5Eigen8internal31generic_dense_assignment_kernelINS0_9evaluatorINS_5BlockINS_6MatrixIdLin1ELin1ELi0ELin1ELin1EEELin1ELin1ELb0EEEEENS2_IS5_EENS0_9assign_opIddEELi0EE12assignPacketILi16ELi0E19__simd128_float64_tEEvll, symObjAddr: 0x33D48, symBinAddr: 0x100037538, symSize: 0x2EC }
  - { offsetInCU: 0xD952A, offset: 0xD952A, size: 0x8, addend: 0x0, symName: __ZNK5Eigen8internal9assign_opIddE12assignPacketILi16E19__simd128_float64_tEEvPdRKT0_, symObjAddr: 0x34034, symBinAddr: 0x100037824, symSize: 0x40 }
  - { offsetInCU: 0xD95AE, offset: 0xD95AE, size: 0x8, addend: 0x0, symName: __ZNK5Eigen8internal9evaluatorINS_15PlainObjectBaseINS_6MatrixIdLin1ELin1ELi0ELin1ELin1EEEEEE6packetILi0E19__simd128_float64_tEET0_ll, symObjAddr: 0x34074, symBinAddr: 0x100037864, symSize: 0x9C }
  - { offsetInCU: 0xD9620, offset: 0xD9620, size: 0x8, addend: 0x0, symName: __ZNKSt3__16__lessIvvEclB8ue170006IllEEbRKT_RKT0_, symObjAddr: 0x34448, symBinAddr: 0x100037C38, symSize: 0xBC }
  - { offsetInCU: 0xD9674, offset: 0xD9674, size: 0x8, addend: 0x0, symName: __ZN5Eigen8internal9evaluatorINS_5BlockINS_6MatrixIdLin1ELin1ELi0ELin1ELin1EEELin1ELin1ELb0EEEED2Ev, symObjAddr: 0x34504, symBinAddr: 0x100037CF4, symSize: 0x2C }
  - { offsetInCU: 0xD96A1, offset: 0xD96A1, size: 0x8, addend: 0x0, symName: __ZN5Eigen8internal15block_evaluatorINS_6MatrixIdLin1ELin1ELi0ELin1ELin1EEELin1ELin1ELb0ELb1EED2Ev, symObjAddr: 0x34530, symBinAddr: 0x100037D20, symSize: 0x2C }
  - { offsetInCU: 0xD96CE, offset: 0xD96CE, size: 0x8, addend: 0x0, symName: __ZNSt3__16vectorINS_10unique_ptrIN18MultiHeadAttention10ThreadDataENS_14default_deleteIS3_EEEENS_9allocatorIS6_EEED2B8ue170006Ev, symObjAddr: 0x3455C, symBinAddr: 0x100037D4C, symSize: 0x1F8 }
  - { offsetInCU: 0xD96F9, offset: 0xD96F9, size: 0x8, addend: 0x0, symName: __ZNSt3__16vectorINS_10unique_ptrIN18MultiHeadAttention10ThreadDataENS_14default_deleteIS3_EEEENS_9allocatorIS6_EEE16__destroy_vectorC1B8ue170006ERS9_, symObjAddr: 0x34754, symBinAddr: 0x100037F44, symSize: 0x34 }
  - { offsetInCU: 0xD9732, offset: 0xD9732, size: 0x8, addend: 0x0, symName: __ZNSt3__16vectorINS_10unique_ptrIN18MultiHeadAttention10ThreadDataENS_14default_deleteIS3_EEEENS_9allocatorIS6_EEE16__destroy_vectorclB8ue170006Ev, symObjAddr: 0x34788, symBinAddr: 0x100037F78, symSize: 0x228 }
  - { offsetInCU: 0xD9758, offset: 0xD9758, size: 0x8, addend: 0x0, symName: __ZNSt3__16vectorINS_10unique_ptrIN18MultiHeadAttention10ThreadDataENS_14default_deleteIS3_EEEENS_9allocatorIS6_EEE16__destroy_vectorC2B8ue170006ERS9_, symObjAddr: 0x349B0, symBinAddr: 0x1000381A0, symSize: 0x70 }
  - { offsetInCU: 0xD9791, offset: 0xD9791, size: 0x8, addend: 0x0, symName: __ZNSt3__16vectorINS_10unique_ptrIN18MultiHeadAttention10ThreadDataENS_14default_deleteIS3_EEEENS_9allocatorIS6_EEE7__clearB8ue170006Ev, symObjAddr: 0x34A20, symBinAddr: 0x100038210, symSize: 0x64 }
  - { offsetInCU: 0xD97B7, offset: 0xD97B7, size: 0x8, addend: 0x0, symName: __ZNSt3__16vectorINS_10unique_ptrIN18MultiHeadAttention10ThreadDataENS_14default_deleteIS3_EEEENS_9allocatorIS6_EEE22__base_destruct_at_endB8ue170006EPS6_, symObjAddr: 0x34A84, symBinAddr: 0x100038274, symSize: 0x114 }
  - { offsetInCU: 0xD97FB, offset: 0xD97FB, size: 0x8, addend: 0x0, symName: __ZNSt3__16vectorIP17_opaque_pthread_tNS_9allocatorIS2_EEED2B8ue170006Ev, symObjAddr: 0x34B98, symBinAddr: 0x100038388, symSize: 0x1F4 }
  - { offsetInCU: 0xD9826, offset: 0xD9826, size: 0x8, addend: 0x0, symName: __ZN5Eigen8internal13scalar_sum_opIddEC1Ev, symObjAddr: 0x34D8C, symBinAddr: 0x10003857C, symSize: 0x2C }
  - { offsetInCU: 0xD9850, offset: 0xD9850, size: 0x8, addend: 0x0, symName: __ZN5Eigen13CwiseBinaryOpINS_8internal13scalar_sum_opIddEEKNS_6MatrixIdLin1ELin1ELi0ELin1ELin1EEES6_EC1ERS6_S8_RKS3_, symObjAddr: 0x34DB8, symBinAddr: 0x1000385A8, symSize: 0x44 }
  - { offsetInCU: 0xD98A4, offset: 0xD98A4, size: 0x8, addend: 0x0, symName: __ZN5Eigen8internal13scalar_sum_opIddEC2Ev, symObjAddr: 0x34DFC, symBinAddr: 0x1000385EC, symSize: 0x14 }
  - { offsetInCU: 0xD98CE, offset: 0xD98CE, size: 0x8, addend: 0x0, symName: __ZN5Eigen13CwiseBinaryOpINS_8internal13scalar_sum_opIddEEKNS_6MatrixIdLin1ELin1ELi0ELin1ELin1EEES6_EC2ERS6_S8_RKS3_, symObjAddr: 0x34E10, symBinAddr: 0x100038600, symSize: 0x178 }
  - { offsetInCU: 0xD9927, offset: 0xD9927, size: 0x8, addend: 0x0, symName: __ZN5Eigen17CwiseBinaryOpImplINS_8internal13scalar_sum_opIddEEKNS_6MatrixIdLin1ELin1ELi0ELin1ELin1EEES6_NS_5DenseEEC2Ev, symObjAddr: 0x34F88, symBinAddr: 0x100038778, symSize: 0x2C }
  - { offsetInCU: 0xD9953, offset: 0xD9953, size: 0x8, addend: 0x0, symName: __ZN5Eigen8internal13scalar_sum_opIddEC1ERKS2_, symObjAddr: 0x34FB4, symBinAddr: 0x1000387A4, symSize: 0x34 }
  - { offsetInCU: 0xD9987, offset: 0xD9987, size: 0x8, addend: 0x0, symName: __ZN5Eigen10MatrixBaseINS_13CwiseBinaryOpINS_8internal13scalar_sum_opIddEEKNS_6MatrixIdLin1ELin1ELi0ELin1ELin1EEES7_EEEC2Ev, symObjAddr: 0x34FE8, symBinAddr: 0x1000387D8, symSize: 0x2C }
  - { offsetInCU: 0xD99B1, offset: 0xD99B1, size: 0x8, addend: 0x0, symName: __ZN5Eigen9DenseBaseINS_13CwiseBinaryOpINS_8internal13scalar_sum_opIddEEKNS_6MatrixIdLin1ELin1ELi0ELin1ELin1EEES7_EEEC2Ev, symObjAddr: 0x35014, symBinAddr: 0x100038804, symSize: 0x14 }
  - { offsetInCU: 0xD99DB, offset: 0xD99DB, size: 0x8, addend: 0x0, symName: __ZN5Eigen8internal13scalar_sum_opIddEC2ERKS2_, symObjAddr: 0x35028, symBinAddr: 0x100038818, symSize: 0x18 }
  - { offsetInCU: 0xD9A0F, offset: 0xD9A0F, size: 0x8, addend: 0x0, symName: __ZN5Eigen6MatrixIdLin1ELin1ELi0ELin1ELin1EEC2INS_13CwiseBinaryOpINS_8internal13scalar_sum_opIddEEKS1_S7_EEEERKNS_9EigenBaseIT_EE, symObjAddr: 0x35040, symBinAddr: 0x100038830, symSize: 0x40 }
  - { offsetInCU: 0xD9A51, offset: 0xD9A51, size: 0x8, addend: 0x0, symName: __ZNK5Eigen9EigenBaseINS_13CwiseBinaryOpINS_8internal13scalar_sum_opIddEEKNS_6MatrixIdLin1ELin1ELi0ELin1ELin1EEES7_EEE7derivedEv, symObjAddr: 0x35080, symBinAddr: 0x100038870, symSize: 0x14 }
  - { offsetInCU: 0xD9A77, offset: 0xD9A77, size: 0x8, addend: 0x0, symName: __ZN5Eigen15PlainObjectBaseINS_6MatrixIdLin1ELin1ELi0ELin1ELin1EEEEC2INS_13CwiseBinaryOpINS_8internal13scalar_sum_opIddEEKS2_S9_EEEERKNS_9DenseBaseIT_EE, symObjAddr: 0x35094, symBinAddr: 0x100038884, symSize: 0x80 }
  - { offsetInCU: 0xD9AB9, offset: 0xD9AB9, size: 0x8, addend: 0x0, symName: __ZN5Eigen15PlainObjectBaseINS_6MatrixIdLin1ELin1ELi0ELin1ELin1EEEE10resizeLikeINS_13CwiseBinaryOpINS_8internal13scalar_sum_opIddEEKS2_S9_EEEEvRKNS_9EigenBaseIT_EE, symObjAddr: 0x35114, symBinAddr: 0x100038904, symSize: 0x11C }
  - { offsetInCU: 0xD9B4D, offset: 0xD9B4D, size: 0x8, addend: 0x0, symName: __ZN5Eigen15PlainObjectBaseINS_6MatrixIdLin1ELin1ELi0ELin1ELin1EEEE12_set_noaliasINS_13CwiseBinaryOpINS_8internal13scalar_sum_opIddEEKS2_S9_EEEERS2_RKNS_9DenseBaseIT_EE, symObjAddr: 0x35230, symBinAddr: 0x100038A20, symSize: 0x21C }
  - { offsetInCU: 0xD9B8D, offset: 0xD9B8D, size: 0x8, addend: 0x0, symName: __ZNK5Eigen13CwiseBinaryOpINS_8internal13scalar_sum_opIddEEKNS_6MatrixIdLin1ELin1ELi0ELin1ELin1EEES6_E4rowsEv, symObjAddr: 0x3544C, symBinAddr: 0x100038C3C, symSize: 0x68 }
  - { offsetInCU: 0xD9BB3, offset: 0xD9BB3, size: 0x8, addend: 0x0, symName: __ZNK5Eigen13CwiseBinaryOpINS_8internal13scalar_sum_opIddEEKNS_6MatrixIdLin1ELin1ELi0ELin1ELin1EEES6_E4colsEv, symObjAddr: 0x354B4, symBinAddr: 0x100038CA4, symSize: 0x68 }
  - { offsetInCU: 0xD9BD9, offset: 0xD9BD9, size: 0x8, addend: 0x0, symName: __ZN5Eigen8internal10AssignmentINS_6MatrixIdLin1ELin1ELi0ELin1ELin1EEENS_13CwiseBinaryOpINS0_13scalar_sum_opIddEEKS3_S7_EENS0_9assign_opIddEENS0_11Dense2DenseEvE3runERS3_RKS8_RKSA_, symObjAddr: 0x35558, symBinAddr: 0x100038D48, symSize: 0x40 }
  - { offsetInCU: 0xD9C1B, offset: 0xD9C1B, size: 0x8, addend: 0x0, symName: __ZN5Eigen8internal27checkTransposeAliasing_implINS_6MatrixIdLin1ELin1ELi0ELin1ELin1EEENS_13CwiseBinaryOpINS0_13scalar_sum_opIddEEKS3_S7_EELb0EE3runERS7_RKS8_, symObjAddr: 0x35A34, symBinAddr: 0x100039224, symSize: 0x14 }
  - { offsetInCU: 0xD9C46, offset: 0xD9C46, size: 0x8, addend: 0x0, symName: __ZN5Eigen8internal9evaluatorINS_13CwiseBinaryOpINS0_13scalar_sum_opIddEEKNS_6MatrixIdLin1ELin1ELi0ELin1ELin1EEES7_EEEC1ERKS8_, symObjAddr: 0x35A48, symBinAddr: 0x100039238, symSize: 0x34 }
  - { offsetInCU: 0xD9C7F, offset: 0xD9C7F, size: 0x8, addend: 0x0, symName: __ZN5Eigen8internal31generic_dense_assignment_kernelINS0_9evaluatorINS_6MatrixIdLin1ELin1ELi0ELin1ELin1EEEEENS2_INS_13CwiseBinaryOpINS0_13scalar_sum_opIddEEKS4_S9_EEEENS0_9assign_opIddEELi0EEC1ERS5_RKSB_RKSD_RS4_, symObjAddr: 0x35B78, symBinAddr: 0x100039368, symSize: 0x4C }
  - { offsetInCU: 0xD9CE5, offset: 0xD9CE5, size: 0x8, addend: 0x0, symName: __ZN5Eigen8internal9evaluatorINS_13CwiseBinaryOpINS0_13scalar_sum_opIddEEKNS_6MatrixIdLin1ELin1ELi0ELin1ELin1EEES7_EEED1Ev, symObjAddr: 0x35C70, symBinAddr: 0x100039460, symSize: 0x2C }
  - { offsetInCU: 0xD9D12, offset: 0xD9D12, size: 0x8, addend: 0x0, symName: __ZN5Eigen8internal9evaluatorINS_13CwiseBinaryOpINS0_13scalar_sum_opIddEEKNS_6MatrixIdLin1ELin1ELi0ELin1ELin1EEES7_EEEC2ERKS8_, symObjAddr: 0x35C9C, symBinAddr: 0x10003948C, symSize: 0x34 }
  - { offsetInCU: 0xD9D4B, offset: 0xD9D4B, size: 0x8, addend: 0x0, symName: __ZN5Eigen8internal16binary_evaluatorINS_13CwiseBinaryOpINS0_13scalar_sum_opIddEEKNS_6MatrixIdLin1ELin1ELi0ELin1ELin1EEES7_EENS0_10IndexBasedES9_ddEC2ERKS8_, symObjAddr: 0x35CD0, symBinAddr: 0x1000394C0, symSize: 0x64 }
  - { offsetInCU: 0xD9D84, offset: 0xD9D84, size: 0x8, addend: 0x0, symName: __ZN5Eigen8internal14evaluator_baseINS_13CwiseBinaryOpINS0_13scalar_sum_opIddEEKNS_6MatrixIdLin1ELin1ELi0ELin1ELin1EEES7_EEEC2Ev, symObjAddr: 0x35D34, symBinAddr: 0x100039524, symSize: 0x14 }
  - { offsetInCU: 0xD9DAE, offset: 0xD9DAE, size: 0x8, addend: 0x0, symName: __ZN5Eigen8internal16binary_evaluatorINS_13CwiseBinaryOpINS0_13scalar_sum_opIddEEKNS_6MatrixIdLin1ELin1ELi0ELin1ELin1EEES7_EENS0_10IndexBasedES9_ddE4DataC1ERKS8_, symObjAddr: 0x35D48, symBinAddr: 0x100039538, symSize: 0x34 }
  - { offsetInCU: 0xD9DE7, offset: 0xD9DE7, size: 0x8, addend: 0x0, symName: __ZN5Eigen8internal14evaluator_baseINS_13CwiseBinaryOpINS0_13scalar_sum_opIddEEKNS_6MatrixIdLin1ELin1ELi0ELin1ELin1EEES7_EEED2Ev, symObjAddr: 0x35D7C, symBinAddr: 0x10003956C, symSize: 0x14 }
  - { offsetInCU: 0xD9E11, offset: 0xD9E11, size: 0x8, addend: 0x0, symName: __ZN5Eigen8internal16binary_evaluatorINS_13CwiseBinaryOpINS0_13scalar_sum_opIddEEKNS_6MatrixIdLin1ELin1ELi0ELin1ELin1EEES7_EENS0_10IndexBasedES9_ddE4DataC2ERKS8_, symObjAddr: 0x35D90, symBinAddr: 0x100039580, symSize: 0xA8 }
  - { offsetInCU: 0xD9E4A, offset: 0xD9E4A, size: 0x8, addend: 0x0, symName: __ZNK5Eigen13CwiseBinaryOpINS_8internal13scalar_sum_opIddEEKNS_6MatrixIdLin1ELin1ELi0ELin1ELin1EEES6_E7functorEv, symObjAddr: 0x35E38, symBinAddr: 0x100039628, symSize: 0x18 }
  - { offsetInCU: 0xD9E70, offset: 0xD9E70, size: 0x8, addend: 0x0, symName: __ZNK5Eigen13CwiseBinaryOpINS_8internal13scalar_sum_opIddEEKNS_6MatrixIdLin1ELin1ELi0ELin1ELin1EEES6_E3lhsEv, symObjAddr: 0x35E50, symBinAddr: 0x100039640, symSize: 0x60 }
  - { offsetInCU: 0xD9E96, offset: 0xD9E96, size: 0x8, addend: 0x0, symName: __ZN5Eigen8internal9evaluatorIKNS_6MatrixIdLin1ELin1ELi0ELin1ELin1EEEEC1ERS4_, symObjAddr: 0x35EB0, symBinAddr: 0x1000396A0, symSize: 0x34 }
  - { offsetInCU: 0xD9ECE, offset: 0xD9ECE, size: 0x8, addend: 0x0, symName: __ZNK5Eigen13CwiseBinaryOpINS_8internal13scalar_sum_opIddEEKNS_6MatrixIdLin1ELin1ELi0ELin1ELin1EEES6_E3rhsEv, symObjAddr: 0x35EE4, symBinAddr: 0x1000396D4, symSize: 0x64 }
  - { offsetInCU: 0xD9EF4, offset: 0xD9EF4, size: 0x8, addend: 0x0, symName: __ZN5Eigen8internal9evaluatorIKNS_6MatrixIdLin1ELin1ELi0ELin1ELin1EEEED1Ev, symObjAddr: 0x35F48, symBinAddr: 0x100039738, symSize: 0x2C }
  - { offsetInCU: 0xD9F20, offset: 0xD9F20, size: 0x8, addend: 0x0, symName: __ZN5Eigen8internal9evaluatorIKNS_6MatrixIdLin1ELin1ELi0ELin1ELin1EEEEC2ERS4_, symObjAddr: 0x35F74, symBinAddr: 0x100039764, symSize: 0x34 }
  - { offsetInCU: 0xD9F58, offset: 0xD9F58, size: 0x8, addend: 0x0, symName: __ZN5Eigen8internal9evaluatorIKNS_6MatrixIdLin1ELin1ELi0ELin1ELin1EEEED2Ev, symObjAddr: 0x35FA8, symBinAddr: 0x100039798, symSize: 0x2C }
  - { offsetInCU: 0xD9F84, offset: 0xD9F84, size: 0x8, addend: 0x0, symName: __ZN5Eigen8internal31generic_dense_assignment_kernelINS0_9evaluatorINS_6MatrixIdLin1ELin1ELi0ELin1ELin1EEEEENS2_INS_13CwiseBinaryOpINS0_13scalar_sum_opIddEEKS4_S9_EEEENS0_9assign_opIddEELi0EEC2ERS5_RKSB_RKSD_RS4_, symObjAddr: 0x35FD4, symBinAddr: 0x1000397C4, symSize: 0x14C }
  - { offsetInCU: 0xD9FEA, offset: 0xD9FEA, size: 0x8, addend: 0x0, symName: __ZNK5Eigen8internal31generic_dense_assignment_kernelINS0_9evaluatorINS_6MatrixIdLin1ELin1ELi0ELin1ELin1EEEEENS2_INS_13CwiseBinaryOpINS0_13scalar_sum_opIddEEKS4_S9_EEEENS0_9assign_opIddEELi0EE4sizeEv, symObjAddr: 0x36120, symBinAddr: 0x100039910, symSize: 0x68 }
  - { offsetInCU: 0xDA010, offset: 0xDA010, size: 0x8, addend: 0x0, symName: __ZN5Eigen8internal31unaligned_dense_assignment_loopILb1EE3runINS0_31generic_dense_assignment_kernelINS0_9evaluatorINS_6MatrixIdLin1ELin1ELi0ELin1ELin1EEEEENS5_INS_13CwiseBinaryOpINS0_13scalar_sum_opIddEEKS7_SC_EEEENS0_9assign_opIddEELi0EEEEEvRT_ll, symObjAddr: 0x36188, symBinAddr: 0x100039978, symSize: 0x18 }
  - { offsetInCU: 0xDA04F, offset: 0xDA04F, size: 0x8, addend: 0x0, symName: __ZN5Eigen8internal31generic_dense_assignment_kernelINS0_9evaluatorINS_6MatrixIdLin1ELin1ELi0ELin1ELin1EEEEENS2_INS_13CwiseBinaryOpINS0_13scalar_sum_opIddEEKS4_S9_EEEENS0_9assign_opIddEELi0EE12assignPacketILi16ELi16E19__simd128_float64_tEEvl, symObjAddr: 0x361A0, symBinAddr: 0x100039990, symSize: 0x2E0 }
  - { offsetInCU: 0xDA0A3, offset: 0xDA0A3, size: 0x8, addend: 0x0, symName: __ZN5Eigen8internal31unaligned_dense_assignment_loopILb0EE3runINS0_31generic_dense_assignment_kernelINS0_9evaluatorINS_6MatrixIdLin1ELin1ELi0ELin1ELin1EEEEENS5_INS_13CwiseBinaryOpINS0_13scalar_sum_opIddEEKS7_SC_EEEENS0_9assign_opIddEELi0EEEEEvRT_ll, symObjAddr: 0x36480, symBinAddr: 0x100039C70, symSize: 0x6C }
  - { offsetInCU: 0xDA10B, offset: 0xDA10B, size: 0x8, addend: 0x0, symName: __ZNK5Eigen8internal16binary_evaluatorINS_13CwiseBinaryOpINS0_13scalar_sum_opIddEEKNS_6MatrixIdLin1ELin1ELi0ELin1ELin1EEES7_EENS0_10IndexBasedES9_ddE6packetILi16E19__simd128_float64_tEET0_l, symObjAddr: 0x364EC, symBinAddr: 0x100039CDC, symSize: 0x2D8 }
  - { offsetInCU: 0xDA155, offset: 0xDA155, size: 0x8, addend: 0x0, symName: __ZNK5Eigen8internal16binary_evaluatorINS_13CwiseBinaryOpINS0_13scalar_sum_opIddEEKNS_6MatrixIdLin1ELin1ELi0ELin1ELin1EEES7_EENS0_10IndexBasedES9_ddE4Data4funcEv, symObjAddr: 0x367C4, symBinAddr: 0x100039FB4, symSize: 0x14 }
  - { offsetInCU: 0xDA17B, offset: 0xDA17B, size: 0x8, addend: 0x0, symName: __ZNK5Eigen8internal13scalar_sum_opIddE8packetOpI19__simd128_float64_tEET_RKS5_S7_, symObjAddr: 0x367D8, symBinAddr: 0x100039FC8, symSize: 0x30 }
  - { offsetInCU: 0xDA1C6, offset: 0xDA1C6, size: 0x8, addend: 0x0, symName: __ZNK5Eigen8internal9evaluatorINS_15PlainObjectBaseINS_6MatrixIdLin1ELin1ELi0ELin1ELin1EEEEEE6packetILi16E19__simd128_float64_tEET0_l, symObjAddr: 0x36808, symBinAddr: 0x100039FF8, symSize: 0x78 }
  - { offsetInCU: 0xDA22A, offset: 0xDA22A, size: 0x8, addend: 0x0, symName: __ZN5Eigen8internal31generic_dense_assignment_kernelINS0_9evaluatorINS_6MatrixIdLin1ELin1ELi0ELin1ELin1EEEEENS2_INS_13CwiseBinaryOpINS0_13scalar_sum_opIddEEKS4_S9_EEEENS0_9assign_opIddEELi0EE11assignCoeffEl, symObjAddr: 0x369B8, symBinAddr: 0x10003A1A8, symSize: 0x2E0 }
  - { offsetInCU: 0xDA261, offset: 0xDA261, size: 0x8, addend: 0x0, symName: __ZNK5Eigen8internal16binary_evaluatorINS_13CwiseBinaryOpINS0_13scalar_sum_opIddEEKNS_6MatrixIdLin1ELin1ELi0ELin1ELin1EEES7_EENS0_10IndexBasedES9_ddE5coeffEl, symObjAddr: 0x36C98, symBinAddr: 0x10003A488, symSize: 0x64 }
  - { offsetInCU: 0xDA296, offset: 0xDA296, size: 0x8, addend: 0x0, symName: __ZNK5Eigen8internal13scalar_sum_opIddEclERKdS4_, symObjAddr: 0x36CFC, symBinAddr: 0x10003A4EC, symSize: 0xB4 }
  - { offsetInCU: 0xDA2D8, offset: 0xDA2D8, size: 0x8, addend: 0x0, symName: __ZNK5Eigen8internal9evaluatorINS_15PlainObjectBaseINS_6MatrixIdLin1ELin1ELi0ELin1ELin1EEEEEE5coeffEl, symObjAddr: 0x36DB0, symBinAddr: 0x10003A5A0, symSize: 0x6C }
  - { offsetInCU: 0xDA30C, offset: 0xDA30C, size: 0x8, addend: 0x0, symName: __ZN5Eigen8internal9evaluatorINS_13CwiseBinaryOpINS0_13scalar_sum_opIddEEKNS_6MatrixIdLin1ELin1ELi0ELin1ELin1EEES7_EEED2Ev, symObjAddr: 0x36E1C, symBinAddr: 0x10003A60C, symSize: 0x2C }
  - { offsetInCU: 0xDA339, offset: 0xDA339, size: 0x8, addend: 0x0, symName: __ZN5Eigen8internal16binary_evaluatorINS_13CwiseBinaryOpINS0_13scalar_sum_opIddEEKNS_6MatrixIdLin1ELin1ELi0ELin1ELin1EEES7_EENS0_10IndexBasedES9_ddED2Ev, symObjAddr: 0x36E48, symBinAddr: 0x10003A638, symSize: 0x34 }
  - { offsetInCU: 0xDA365, offset: 0xDA365, size: 0x8, addend: 0x0, symName: __ZN5Eigen8internal16binary_evaluatorINS_13CwiseBinaryOpINS0_13scalar_sum_opIddEEKNS_6MatrixIdLin1ELin1ELi0ELin1ELin1EEES7_EENS0_10IndexBasedES9_ddE4DataD1Ev, symObjAddr: 0x36E7C, symBinAddr: 0x10003A66C, symSize: 0x2C }
  - { offsetInCU: 0xDA392, offset: 0xDA392, size: 0x8, addend: 0x0, symName: __ZN5Eigen8internal16binary_evaluatorINS_13CwiseBinaryOpINS0_13scalar_sum_opIddEEKNS_6MatrixIdLin1ELin1ELi0ELin1ELin1EEES7_EENS0_10IndexBasedES9_ddE4DataD2Ev, symObjAddr: 0x36EA8, symBinAddr: 0x10003A698, symSize: 0x3C }
  - { offsetInCU: 0xDA3BF, offset: 0xDA3BF, size: 0x8, addend: 0x0, symName: __ZN5Eigen15PlainObjectBaseINS_6MatrixIdLin1ELin1ELi0ELin1ELin1EEEEaSEOS3_, symObjAddr: 0x36EE4, symBinAddr: 0x10003A6D4, symSize: 0x3C }
  - { offsetInCU: 0xDA3F4, offset: 0xDA3F4, size: 0x8, addend: 0x0, symName: __ZN5Eigen12DenseStorageIdLin1ELin1ELin1ELi0EEaSEOS1_, symObjAddr: 0x36F20, symBinAddr: 0x10003A710, symSize: 0x78 }
  - { offsetInCU: 0xDA429, offset: 0xDA429, size: 0x8, addend: 0x0, symName: __ZN11TransformerD2Ev, symObjAddr: 0x37258, symBinAddr: 0x10003AA48, symSize: 0x3C }
  - { offsetInCU: 0xDA456, offset: 0xDA456, size: 0x8, addend: 0x0, symName: __ZN5Eigen8symbolic10SymbolExprINS_8internal17symbolic_last_tagEEC2Ev, symObjAddr: 0x37294, symBinAddr: 0x10003AA84, symSize: 0x14 }
  - { offsetInCU: 0xDA480, offset: 0xDA480, size: 0x8, addend: 0x0, symName: __ZN5Eigen8internal8FixedIntILi1EEC2Ev, symObjAddr: 0x372A8, symBinAddr: 0x10003AA98, symSize: 0x14 }
  - { offsetInCU: 0xDA4AA, offset: 0xDA4AA, size: 0x8, addend: 0x0, symName: __ZNK5Eigen8symbolic8BaseExprINS0_10SymbolExprINS_8internal17symbolic_last_tagEEEE7derivedEv, symObjAddr: 0x372BC, symBinAddr: 0x10003AAAC, symSize: 0x14 }
  - { offsetInCU: 0xDA4D0, offset: 0xDA4D0, size: 0x8, addend: 0x0, symName: __ZN5Eigen8symbolic9ValueExprINS_8internal8FixedIntILi1EEEEC1Ev, symObjAddr: 0x372D0, symBinAddr: 0x10003AAC0, symSize: 0x2C }
  - { offsetInCU: 0xDA4FA, offset: 0xDA4FA, size: 0x8, addend: 0x0, symName: __ZN5Eigen8symbolic7AddExprINS0_10SymbolExprINS_8internal17symbolic_last_tagEEENS0_9ValueExprINS3_8FixedIntILi1EEEEEEC1ERKS5_RKS9_, symObjAddr: 0x372FC, symBinAddr: 0x10003AAEC, symSize: 0x3C }
  - { offsetInCU: 0xDA540, offset: 0xDA540, size: 0x8, addend: 0x0, symName: __ZN5Eigen8symbolic9ValueExprINS_8internal8FixedIntILi1EEEEC2Ev, symObjAddr: 0x37338, symBinAddr: 0x10003AB28, symSize: 0x14 }
  - { offsetInCU: 0xDA56A, offset: 0xDA56A, size: 0x8, addend: 0x0, symName: __ZN5Eigen8symbolic7AddExprINS0_10SymbolExprINS_8internal17symbolic_last_tagEEENS0_9ValueExprINS3_8FixedIntILi1EEEEEEC2ERKS5_RKS9_, symObjAddr: 0x3734C, symBinAddr: 0x10003AB3C, symSize: 0x1C }
  - { offsetInCU: 0xDA5B0, offset: 0xDA5B0, size: 0x8, addend: 0x0, symName: __ZNSt3__111char_traitsIcE6lengthB8ue170006EPKc, symObjAddr: 0x37AAC, symBinAddr: 0x10003B29C, symSize: 0x40 }
  - { offsetInCU: 0xDA5F1, offset: 0xDA5F1, size: 0x8, addend: 0x0, symName: __ZNKSt3__113basic_ostreamIcNS_11char_traitsIcEEE6sentrycvbB8ue170006Ev, symObjAddr: 0x37AEC, symBinAddr: 0x10003B2DC, symSize: 0x88 }
  - { offsetInCU: 0xDA617, offset: 0xDA617, size: 0x8, addend: 0x0, symName: __ZNSt3__119ostreambuf_iteratorIcNS_11char_traitsIcEEEC1B8ue170006ERNS_13basic_ostreamIcS2_EE, symObjAddr: 0x382D4, symBinAddr: 0x10003BAC4, symSize: 0x34 }
  - { offsetInCU: 0xDA64F, offset: 0xDA64F, size: 0x8, addend: 0x0, symName: __ZNKSt3__18ios_base5flagsB8ue170006Ev, symObjAddr: 0x38308, symBinAddr: 0x10003BAF8, symSize: 0x8C }
  - { offsetInCU: 0xDA677, offset: 0xDA677, size: 0x8, addend: 0x0, symName: __ZNKSt3__19basic_iosIcNS_11char_traitsIcEEE4fillB8ue170006Ev, symObjAddr: 0x38394, symBinAddr: 0x10003BB84, symSize: 0x198 }
  - { offsetInCU: 0xDA69F, offset: 0xDA69F, size: 0x8, addend: 0x0, symName: __ZNKSt3__119ostreambuf_iteratorIcNS_11char_traitsIcEEE6failedB8ue170006Ev, symObjAddr: 0x3852C, symBinAddr: 0x10003BD1C, symSize: 0x6C }
  - { offsetInCU: 0xDA6C5, offset: 0xDA6C5, size: 0x8, addend: 0x0, symName: __ZNSt3__19basic_iosIcNS_11char_traitsIcEEE8setstateB8ue170006Ej, symObjAddr: 0x38598, symBinAddr: 0x10003BD88, symSize: 0x2C }
  - { offsetInCU: 0xDA6FA, offset: 0xDA6FA, size: 0x8, addend: 0x0, symName: __ZNKSt3__18ios_base5widthB8ue170006Ev, symObjAddr: 0x385C4, symBinAddr: 0x10003BDB4, symSize: 0x64 }
  - { offsetInCU: 0xDA722, offset: 0xDA722, size: 0x8, addend: 0x0, symName: __ZNSt3__115basic_streambufIcNS_11char_traitsIcEEE5sputnB8ue170006EPKcl, symObjAddr: 0x38628, symBinAddr: 0x10003BE18, symSize: 0xC8 }
  - { offsetInCU: 0xDA764, offset: 0xDA764, size: 0x8, addend: 0x0, symName: __ZNSt3__112basic_stringIcNS_11char_traitsIcEENS_9allocatorIcEEEC1B8ue170006Emc, symObjAddr: 0x386F0, symBinAddr: 0x10003BEE0, symSize: 0x3C }
  - { offsetInCU: 0xDA7AC, offset: 0xDA7AC, size: 0x8, addend: 0x0, symName: __ZNKSt3__112basic_stringIcNS_11char_traitsIcEENS_9allocatorIcEEE4dataB8ue170006Ev, symObjAddr: 0x3872C, symBinAddr: 0x10003BF1C, symSize: 0x28 }
  - { offsetInCU: 0xDA7D2, offset: 0xDA7D2, size: 0x8, addend: 0x0, symName: __ZNSt3__18ios_base5widthB8ue170006El, symObjAddr: 0x38754, symBinAddr: 0x10003BF44, symSize: 0xB8 }
  - { offsetInCU: 0xDA818, offset: 0xDA818, size: 0x8, addend: 0x0, symName: __ZNSt3__112basic_stringIcNS_11char_traitsIcEENS_9allocatorIcEEEC2B8ue170006Emc, symObjAddr: 0x3880C, symBinAddr: 0x10003BFFC, symSize: 0x204 }
  - { offsetInCU: 0xDA863, offset: 0xDA863, size: 0x8, addend: 0x0, symName: __ZNSt3__117__compressed_pairINS_12basic_stringIcNS_11char_traitsIcEENS_9allocatorIcEEE5__repES5_EC1B8ue170006INS_18__default_init_tagESA_EEOT_OT0_, symObjAddr: 0x38A10, symBinAddr: 0x10003C200, symSize: 0x3C }
  - { offsetInCU: 0xDA8BB, offset: 0xDA8BB, size: 0x8, addend: 0x0, symName: __ZNSt3__117__compressed_pairINS_12basic_stringIcNS_11char_traitsIcEENS_9allocatorIcEEE5__repES5_EC2B8ue170006INS_18__default_init_tagESA_EEOT_OT0_, symObjAddr: 0x38A4C, symBinAddr: 0x10003C23C, symSize: 0x3C }
  - { offsetInCU: 0xDA913, offset: 0xDA913, size: 0x8, addend: 0x0, symName: __ZNSt3__122__compressed_pair_elemINS_12basic_stringIcNS_11char_traitsIcEENS_9allocatorIcEEE5__repELi0ELb0EEC2B8ue170006ENS_18__default_init_tagE, symObjAddr: 0x38A88, symBinAddr: 0x10003C278, symSize: 0x14 }
  - { offsetInCU: 0xDA947, offset: 0xDA947, size: 0x8, addend: 0x0, symName: __ZNSt3__122__compressed_pair_elemINS_9allocatorIcEELi1ELb1EEC2B8ue170006ENS_18__default_init_tagE, symObjAddr: 0x38A9C, symBinAddr: 0x10003C28C, symSize: 0x2C }
  - { offsetInCU: 0xDA97B, offset: 0xDA97B, size: 0x8, addend: 0x0, symName: __ZNSt3__19allocatorIcEC2B8ue170006Ev, symObjAddr: 0x38AC8, symBinAddr: 0x10003C2B8, symSize: 0x2C }
  - { offsetInCU: 0xDA9A5, offset: 0xDA9A5, size: 0x8, addend: 0x0, symName: __ZNSt3__116__non_trivial_ifILb1ENS_9allocatorIcEEEC2B8ue170006Ev, symObjAddr: 0x38AF4, symBinAddr: 0x10003C2E4, symSize: 0x14 }
  - { offsetInCU: 0xDA9CF, offset: 0xDA9CF, size: 0x8, addend: 0x0, symName: __ZNKSt3__112basic_stringIcNS_11char_traitsIcEENS_9allocatorIcEEE13__get_pointerB8ue170006Ev, symObjAddr: 0x38B1C, symBinAddr: 0x10003C30C, symSize: 0x54 }
  - { offsetInCU: 0xDA9F5, offset: 0xDA9F5, size: 0x8, addend: 0x0, symName: __ZNKSt3__112basic_stringIcNS_11char_traitsIcEENS_9allocatorIcEEE9__is_longB8ue170006Ev, symObjAddr: 0x38B70, symBinAddr: 0x10003C360, symSize: 0xA4 }
  - { offsetInCU: 0xDAA1B, offset: 0xDAA1B, size: 0x8, addend: 0x0, symName: __ZNKSt3__112basic_stringIcNS_11char_traitsIcEENS_9allocatorIcEEE18__get_long_pointerB8ue170006Ev, symObjAddr: 0x38C14, symBinAddr: 0x10003C404, symSize: 0x6C }
  - { offsetInCU: 0xDAA41, offset: 0xDAA41, size: 0x8, addend: 0x0, symName: __ZNKSt3__112basic_stringIcNS_11char_traitsIcEENS_9allocatorIcEEE19__get_short_pointerB8ue170006Ev, symObjAddr: 0x38C80, symBinAddr: 0x10003C470, symSize: 0x28 }
  - { offsetInCU: 0xDAA67, offset: 0xDAA67, size: 0x8, addend: 0x0, symName: __ZNKSt3__117__compressed_pairINS_12basic_stringIcNS_11char_traitsIcEENS_9allocatorIcEEE5__repES5_E5firstB8ue170006Ev, symObjAddr: 0x38CA8, symBinAddr: 0x10003C498, symSize: 0x24 }
  - { offsetInCU: 0xDAA8D, offset: 0xDAA8D, size: 0x8, addend: 0x0, symName: __ZNKSt3__122__compressed_pair_elemINS_12basic_stringIcNS_11char_traitsIcEENS_9allocatorIcEEE5__repELi0ELb0EE5__getB8ue170006Ev, symObjAddr: 0x38CCC, symBinAddr: 0x10003C4BC, symSize: 0x14 }
  - { offsetInCU: 0xDAAB3, offset: 0xDAAB3, size: 0x8, addend: 0x0, symName: __ZNSt3__114pointer_traitsIPKcE10pointer_toB8ue170006ERS1_, symObjAddr: 0x38CE0, symBinAddr: 0x10003C4D0, symSize: 0x14 }
  - { offsetInCU: 0xDAAD6, offset: 0xDAAD6, size: 0x8, addend: 0x0, symName: __ZNSt3__119ostreambuf_iteratorIcNS_11char_traitsIcEEEC2B8ue170006ERNS_13basic_ostreamIcS2_EE, symObjAddr: 0x38CF4, symBinAddr: 0x10003C4E4, symSize: 0x10C }
  - { offsetInCU: 0xDAB0E, offset: 0xDAB0E, size: 0x8, addend: 0x0, symName: __ZNKSt3__19basic_iosIcNS_11char_traitsIcEEE5rdbufB8ue170006Ev, symObjAddr: 0x38E00, symBinAddr: 0x10003C5F0, symSize: 0x24 }
  - { offsetInCU: 0xDAB36, offset: 0xDAB36, size: 0x8, addend: 0x0, symName: __ZNKSt3__18ios_base5rdbufB8ue170006Ev, symObjAddr: 0x38E24, symBinAddr: 0x10003C614, symSize: 0x64 }
  - { offsetInCU: 0xDAB5C, offset: 0xDAB5C, size: 0x8, addend: 0x0, symName: __ZNSt3__111char_traitsIcE11eq_int_typeB8ue170006Eii, symObjAddr: 0x38E88, symBinAddr: 0x10003C678, symSize: 0x28 }
  - { offsetInCU: 0xDAB8F, offset: 0xDAB8F, size: 0x8, addend: 0x0, symName: __ZNSt3__111char_traitsIcE3eofB8ue170006Ev, symObjAddr: 0x38EB0, symBinAddr: 0x10003C6A0, symSize: 0x8 }
  - { offsetInCU: 0xDABA3, offset: 0xDABA3, size: 0x8, addend: 0x0, symName: __ZNKSt3__19basic_iosIcNS_11char_traitsIcEEE5widenB8ue170006Ec, symObjAddr: 0x38EB8, symBinAddr: 0x10003C6A8, symSize: 0x2A4 }
  - { offsetInCU: 0xDAC0E, offset: 0xDAC0E, size: 0x8, addend: 0x0, symName: __ZNKSt3__15ctypeIcE5widenB8ue170006Ec, symObjAddr: 0x39188, symBinAddr: 0x10003C978, symSize: 0xBC }
  - { offsetInCU: 0xDAC43, offset: 0xDAC43, size: 0x8, addend: 0x0, symName: __ZNSt3__18ios_base8setstateB8ue170006Ej, symObjAddr: 0x39244, symBinAddr: 0x10003CA34, symSize: 0x9C }
  - { offsetInCU: 0xDAC7A, offset: 0xDAC7A, size: 0x8, addend: 0x0, symName: __ZNSt3__16vectorIfNS_9allocatorIfEEEC2Em, symObjAddr: 0x39304, symBinAddr: 0x10003CAF4, symSize: 0x490 }
  - { offsetInCU: 0xDACD0, offset: 0xDACD0, size: 0x8, addend: 0x0, symName: __ZNSt3__117__compressed_pairIPfNS_9allocatorIfEEEC1B8ue170006IDnNS_18__default_init_tagEEEOT_OT0_, symObjAddr: 0x39794, symBinAddr: 0x10003CF84, symSize: 0x3C }
  - { offsetInCU: 0xDAD28, offset: 0xDAD28, size: 0x8, addend: 0x0, symName: __ZNSt3__16vectorIfNS_9allocatorIfEEE16__destroy_vectorC1B8ue170006ERS3_, symObjAddr: 0x39A48, symBinAddr: 0x10003D238, symSize: 0x34 }
  - { offsetInCU: 0xDAD61, offset: 0xDAD61, size: 0x8, addend: 0x0, symName: __ZNSt3__16vectorIfNS_9allocatorIfEEE11__vallocateB8ue170006Em, symObjAddr: 0x39A7C, symBinAddr: 0x10003D26C, symSize: 0x420 }
  - { offsetInCU: 0xDADAB, offset: 0xDADAB, size: 0x8, addend: 0x0, symName: __ZNSt3__16vectorIfNS_9allocatorIfEEE18__construct_at_endEm, symObjAddr: 0x39E9C, symBinAddr: 0x10003D68C, symSize: 0x3E4 }
  - { offsetInCU: 0xDAE25, offset: 0xDAE25, size: 0x8, addend: 0x0, symName: __ZNSt3__128__exception_guard_exceptionsINS_6vectorIfNS_9allocatorIfEEE16__destroy_vectorEE10__completeB8ue170006Ev, symObjAddr: 0x3A280, symBinAddr: 0x10003DA70, symSize: 0x8C }
  - { offsetInCU: 0xDAE4B, offset: 0xDAE4B, size: 0x8, addend: 0x0, symName: __ZNSt3__128__exception_guard_exceptionsINS_6vectorIfNS_9allocatorIfEEE16__destroy_vectorEED1B8ue170006Ev, symObjAddr: 0x3A30C, symBinAddr: 0x10003DAFC, symSize: 0x2C }
  - { offsetInCU: 0xDAE75, offset: 0xDAE75, size: 0x8, addend: 0x0, symName: __ZNSt3__117__compressed_pairIPfNS_9allocatorIfEEEC2B8ue170006IDnNS_18__default_init_tagEEEOT_OT0_, symObjAddr: 0x3A338, symBinAddr: 0x10003DB28, symSize: 0x40 }
  - { offsetInCU: 0xDAECD, offset: 0xDAECD, size: 0x8, addend: 0x0, symName: __ZNSt3__122__compressed_pair_elemIPfLi0ELb0EEC2B8ue170006IDnvEEOT_, symObjAddr: 0x3A378, symBinAddr: 0x10003DB68, symSize: 0x64 }
  - { offsetInCU: 0xDAF0F, offset: 0xDAF0F, size: 0x8, addend: 0x0, symName: __ZNSt3__122__compressed_pair_elemINS_9allocatorIfEELi1ELb1EEC2B8ue170006ENS_18__default_init_tagE, symObjAddr: 0x3A3DC, symBinAddr: 0x10003DBCC, symSize: 0x2C }
  - { offsetInCU: 0xDAF43, offset: 0xDAF43, size: 0x8, addend: 0x0, symName: __ZNSt3__19allocatorIfEC2B8ue170006Ev, symObjAddr: 0x3A408, symBinAddr: 0x10003DBF8, symSize: 0x2C }
  - { offsetInCU: 0xDAF6D, offset: 0xDAF6D, size: 0x8, addend: 0x0, symName: __ZNSt3__116__non_trivial_ifILb1ENS_9allocatorIfEEEC2B8ue170006Ev, symObjAddr: 0x3A434, symBinAddr: 0x10003DC24, symSize: 0x14 }
  - { offsetInCU: 0xDAF97, offset: 0xDAF97, size: 0x8, addend: 0x0, symName: __ZNSt3__128__exception_guard_exceptionsINS_6vectorIfNS_9allocatorIfEEE16__destroy_vectorEEC1B8ue170006ES5_, symObjAddr: 0x3A448, symBinAddr: 0x10003DC38, symSize: 0x238 }
  - { offsetInCU: 0xDAFD4, offset: 0xDAFD4, size: 0x8, addend: 0x0, symName: __ZNSt3__128__exception_guard_exceptionsINS_6vectorIfNS_9allocatorIfEEE16__destroy_vectorEEC2B8ue170006ES5_, symObjAddr: 0x3A680, symBinAddr: 0x10003DE70, symSize: 0x264 }
  - { offsetInCU: 0xDB011, offset: 0xDB011, size: 0x8, addend: 0x0, symName: __ZNSt3__16vectorIfNS_9allocatorIfEEE16__destroy_vectorC2B8ue170006ERS3_, symObjAddr: 0x3A8E4, symBinAddr: 0x10003E0D4, symSize: 0x70 }
  - { offsetInCU: 0xDB04A, offset: 0xDB04A, size: 0x8, addend: 0x0, symName: __ZNKSt3__16vectorIfNS_9allocatorIfEEE8max_sizeEv, symObjAddr: 0x3A954, symBinAddr: 0x10003E144, symSize: 0x2FC }
  - { offsetInCU: 0xDB073, offset: 0xDB073, size: 0x8, addend: 0x0, symName: __ZNKSt3__16vectorIfNS_9allocatorIfEEE20__throw_length_errorB8ue170006Ev, symObjAddr: 0x3AC50, symBinAddr: 0x10003E440, symSize: 0x20 }
  - { offsetInCU: 0xDB099, offset: 0xDB099, size: 0x8, addend: 0x0, symName: __ZNSt3__16vectorIfNS_9allocatorIfEEE7__allocB8ue170006Ev, symObjAddr: 0x3AEFC, symBinAddr: 0x10003E6EC, symSize: 0x28 }
  - { offsetInCU: 0xDB0BF, offset: 0xDB0BF, size: 0x8, addend: 0x0, symName: __ZNSt3__16vectorIfNS_9allocatorIfEEE9__end_capB8ue170006Ev, symObjAddr: 0x3AF24, symBinAddr: 0x10003E714, symSize: 0x28 }
  - { offsetInCU: 0xDB0E5, offset: 0xDB0E5, size: 0x8, addend: 0x0, symName: __ZNKSt3__16vectorIfNS_9allocatorIfEEE14__annotate_newB8ue170006Em, symObjAddr: 0x3AF4C, symBinAddr: 0x10003E73C, symSize: 0xC0 }
  - { offsetInCU: 0xDB124, offset: 0xDB124, size: 0x8, addend: 0x0, symName: __ZNSt3__116allocator_traitsINS_9allocatorIfEEE8max_sizeB8ue170006IS2_vEEmRKS2_, symObjAddr: 0x3B00C, symBinAddr: 0x10003E7FC, symSize: 0x24 }
  - { offsetInCU: 0xDB152, offset: 0xDB152, size: 0x8, addend: 0x0, symName: __ZNKSt3__16vectorIfNS_9allocatorIfEEE7__allocB8ue170006Ev, symObjAddr: 0x3B030, symBinAddr: 0x10003E820, symSize: 0x28 }
  - { offsetInCU: 0xDB178, offset: 0xDB178, size: 0x8, addend: 0x0, symName: __ZNKSt3__19allocatorIfE8max_sizeB8ue170006Ev, symObjAddr: 0x3B058, symBinAddr: 0x10003E848, symSize: 0x14 }
  - { offsetInCU: 0xDB19E, offset: 0xDB19E, size: 0x8, addend: 0x0, symName: __ZNKSt3__117__compressed_pairIPfNS_9allocatorIfEEE6secondB8ue170006Ev, symObjAddr: 0x3B06C, symBinAddr: 0x10003E85C, symSize: 0x24 }
  - { offsetInCU: 0xDB1C4, offset: 0xDB1C4, size: 0x8, addend: 0x0, symName: __ZNKSt3__122__compressed_pair_elemINS_9allocatorIfEELi1ELb1EE5__getB8ue170006Ev, symObjAddr: 0x3B090, symBinAddr: 0x10003E880, symSize: 0x14 }
  - { offsetInCU: 0xDB1EA, offset: 0xDB1EA, size: 0x8, addend: 0x0, symName: __ZNSt3__19allocatorIfE8allocateB8ue170006Em, symObjAddr: 0x3B0A4, symBinAddr: 0x10003E894, symSize: 0x5C }
  - { offsetInCU: 0xDB21E, offset: 0xDB21E, size: 0x8, addend: 0x0, symName: __ZNSt3__117__compressed_pairIPfNS_9allocatorIfEEE6secondB8ue170006Ev, symObjAddr: 0x3B100, symBinAddr: 0x10003E8F0, symSize: 0x24 }
  - { offsetInCU: 0xDB244, offset: 0xDB244, size: 0x8, addend: 0x0, symName: __ZNSt3__122__compressed_pair_elemINS_9allocatorIfEELi1ELb1EE5__getB8ue170006Ev, symObjAddr: 0x3B124, symBinAddr: 0x10003E914, symSize: 0x14 }
  - { offsetInCU: 0xDB26A, offset: 0xDB26A, size: 0x8, addend: 0x0, symName: __ZNSt3__117__compressed_pairIPfNS_9allocatorIfEEE5firstB8ue170006Ev, symObjAddr: 0x3B138, symBinAddr: 0x10003E928, symSize: 0x24 }
  - { offsetInCU: 0xDB290, offset: 0xDB290, size: 0x8, addend: 0x0, symName: __ZNSt3__122__compressed_pair_elemIPfLi0ELb0EE5__getB8ue170006Ev, symObjAddr: 0x3B15C, symBinAddr: 0x10003E94C, symSize: 0x14 }
  - { offsetInCU: 0xDB2B6, offset: 0xDB2B6, size: 0x8, addend: 0x0, symName: __ZNKSt3__16vectorIfNS_9allocatorIfEEE31__annotate_contiguous_containerEPKvS5_S5_S5_, symObjAddr: 0x3B170, symBinAddr: 0x10003E960, symSize: 0x58 }
  - { offsetInCU: 0xDB318, offset: 0xDB318, size: 0x8, addend: 0x0, symName: __ZNKSt3__16vectorIfNS_9allocatorIfEEE4dataB8ue170006Ev, symObjAddr: 0x3B1C8, symBinAddr: 0x10003E9B8, symSize: 0x64 }
  - { offsetInCU: 0xDB33E, offset: 0xDB33E, size: 0x8, addend: 0x0, symName: __ZNKSt3__16vectorIfNS_9allocatorIfEEE8capacityB8ue170006Ev, symObjAddr: 0x3B22C, symBinAddr: 0x10003EA1C, symSize: 0xBC }
  - { offsetInCU: 0xDB364, offset: 0xDB364, size: 0x8, addend: 0x0, symName: __ZNKSt3__16vectorIfNS_9allocatorIfEEE9__end_capB8ue170006Ev, symObjAddr: 0x3B2FC, symBinAddr: 0x10003EAEC, symSize: 0x28 }
  - { offsetInCU: 0xDB38A, offset: 0xDB38A, size: 0x8, addend: 0x0, symName: __ZNKSt3__117__compressed_pairIPfNS_9allocatorIfEEE5firstB8ue170006Ev, symObjAddr: 0x3B324, symBinAddr: 0x10003EB14, symSize: 0x24 }
  - { offsetInCU: 0xDB3B0, offset: 0xDB3B0, size: 0x8, addend: 0x0, symName: __ZNKSt3__122__compressed_pair_elemIPfLi0ELb0EE5__getB8ue170006Ev, symObjAddr: 0x3B348, symBinAddr: 0x10003EB38, symSize: 0x14 }
  - { offsetInCU: 0xDB3EF, offset: 0xDB3EF, size: 0x8, addend: 0x0, symName: __ZNSt3__16vectorIfNS_9allocatorIfEEE21_ConstructTransactionC1B8ue170006ERS3_m, symObjAddr: 0x3B35C, symBinAddr: 0x10003EB4C, symSize: 0x3C }
  - { offsetInCU: 0xDB437, offset: 0xDB437, size: 0x8, addend: 0x0, symName: __ZNSt3__116allocator_traitsINS_9allocatorIfEEE9constructB8ue170006IfJEvEEvRS2_PT_DpOT0_, symObjAddr: 0x3B398, symBinAddr: 0x10003EB88, symSize: 0x2C }
  - { offsetInCU: 0xDB479, offset: 0xDB479, size: 0x8, addend: 0x0, symName: __ZNSt3__16vectorIfNS_9allocatorIfEEE21_ConstructTransactionD1B8ue170006Ev, symObjAddr: 0x3B3C4, symBinAddr: 0x10003EBB4, symSize: 0x2C }
  - { offsetInCU: 0xDB4A3, offset: 0xDB4A3, size: 0x8, addend: 0x0, symName: __ZNSt3__16vectorIfNS_9allocatorIfEEE21_ConstructTransactionC2B8ue170006ERS3_m, symObjAddr: 0x3B3F0, symBinAddr: 0x10003EBE0, symSize: 0x1D0 }
  - { offsetInCU: 0xDB4EB, offset: 0xDB4EB, size: 0x8, addend: 0x0, symName: __ZNKSt3__16vectorIfNS_9allocatorIfEEE19__annotate_increaseB8ue170006Em, symObjAddr: 0x3B5C0, symBinAddr: 0x10003EDB0, symSize: 0xD8 }
  - { offsetInCU: 0xDB520, offset: 0xDB520, size: 0x8, addend: 0x0, symName: __ZNKSt3__16vectorIfNS_9allocatorIfEEE4sizeB8ue170006Ev, symObjAddr: 0x3B698, symBinAddr: 0x10003EE88, symSize: 0xB0 }
  - { offsetInCU: 0xDB546, offset: 0xDB546, size: 0x8, addend: 0x0, symName: __ZNSt3__19allocatorIfE9constructB8ue170006IfJEEEvPT_DpOT0_, symObjAddr: 0x3B748, symBinAddr: 0x10003EF38, symSize: 0x90 }
  - { offsetInCU: 0xDB588, offset: 0xDB588, size: 0x8, addend: 0x0, symName: __ZNSt3__16vectorIfNS_9allocatorIfEEE21_ConstructTransactionD2B8ue170006Ev, symObjAddr: 0x3B7D8, symBinAddr: 0x10003EFC8, symSize: 0x278 }
  - { offsetInCU: 0xDB5B2, offset: 0xDB5B2, size: 0x8, addend: 0x0, symName: __ZNKSt3__16vectorIfNS_9allocatorIfEEE17__annotate_shrinkB8ue170006Em, symObjAddr: 0x3BA50, symBinAddr: 0x10003F240, symSize: 0xC8 }
  - { offsetInCU: 0xDB5E7, offset: 0xDB5E7, size: 0x8, addend: 0x0, symName: __ZNSt3__128__exception_guard_exceptionsINS_6vectorIfNS_9allocatorIfEEE16__destroy_vectorEED2B8ue170006Ev, symObjAddr: 0x3BB18, symBinAddr: 0x10003F308, symSize: 0xBC }
  - { offsetInCU: 0xDB611, offset: 0xDB611, size: 0x8, addend: 0x0, symName: __ZNSt3__16vectorIfNS_9allocatorIfEEE16__destroy_vectorclB8ue170006Ev, symObjAddr: 0x3BBD4, symBinAddr: 0x10003F3C4, symSize: 0x228 }
  - { offsetInCU: 0xDB637, offset: 0xDB637, size: 0x8, addend: 0x0, symName: __ZNSt3__16vectorIfNS_9allocatorIfEEE7__clearB8ue170006Ev, symObjAddr: 0x3BDFC, symBinAddr: 0x10003F5EC, symSize: 0x64 }
  - { offsetInCU: 0xDB65D, offset: 0xDB65D, size: 0x8, addend: 0x0, symName: __ZNKSt3__16vectorIfNS_9allocatorIfEEE17__annotate_deleteB8ue170006Ev, symObjAddr: 0x3BE60, symBinAddr: 0x10003F650, symSize: 0xCC }
  - { offsetInCU: 0xDB683, offset: 0xDB683, size: 0x8, addend: 0x0, symName: __ZNSt3__116allocator_traitsINS_9allocatorIfEEE10deallocateB8ue170006ERS2_Pfm, symObjAddr: 0x3BF2C, symBinAddr: 0x10003F71C, symSize: 0x34 }
  - { offsetInCU: 0xDB6C5, offset: 0xDB6C5, size: 0x8, addend: 0x0, symName: __ZNSt3__16vectorIfNS_9allocatorIfEEE22__base_destruct_at_endB8ue170006EPf, symObjAddr: 0x3BF60, symBinAddr: 0x10003F750, symSize: 0x114 }
  - { offsetInCU: 0xDB709, offset: 0xDB709, size: 0x8, addend: 0x0, symName: __ZNSt3__116allocator_traitsINS_9allocatorIfEEE7destroyB8ue170006IfvEEvRS2_PT_, symObjAddr: 0x3C074, symBinAddr: 0x10003F864, symSize: 0x2C }
  - { offsetInCU: 0xDB746, offset: 0xDB746, size: 0x8, addend: 0x0, symName: __ZNSt3__19allocatorIfE7destroyB8ue170006EPf, symObjAddr: 0x3C0A0, symBinAddr: 0x10003F890, symSize: 0x14 }
  - { offsetInCU: 0xDB77A, offset: 0xDB77A, size: 0x8, addend: 0x0, symName: __ZNSt3__19allocatorIfE10deallocateB8ue170006EPfm, symObjAddr: 0x3C0B4, symBinAddr: 0x10003F8A4, symSize: 0x4C }
  - { offsetInCU: 0xDB7BC, offset: 0xDB7BC, size: 0x8, addend: 0x0, symName: __ZNSt3__16vectorIfNS_9allocatorIfEEED2B8ue170006Ev, symObjAddr: 0x3C100, symBinAddr: 0x10003F8F0, symSize: 0x1F4 }
  - { offsetInCU: 0xDB7E7, offset: 0xDB7E7, size: 0x8, addend: 0x0, symName: __ZNSt3__16vectorINS0_IfNS_9allocatorIfEEEENS1_IS3_EEEC2EmRKS3_, symObjAddr: 0x3C2F4, symBinAddr: 0x10003FAE4, symSize: 0x498 }
  - { offsetInCU: 0xDB84D, offset: 0xDB84D, size: 0x8, addend: 0x0, symName: __ZNSt3__117__compressed_pairIPNS_6vectorIfNS_9allocatorIfEEEENS2_IS4_EEEC1B8ue170006IDnNS_18__default_init_tagEEEOT_OT0_, symObjAddr: 0x3C78C, symBinAddr: 0x10003FF7C, symSize: 0x3C }
  - { offsetInCU: 0xDB8A5, offset: 0xDB8A5, size: 0x8, addend: 0x0, symName: __ZNSt3__16vectorINS0_IfNS_9allocatorIfEEEENS1_IS3_EEE16__destroy_vectorC1B8ue170006ERS5_, symObjAddr: 0x3CA40, symBinAddr: 0x100040230, symSize: 0x34 }
  - { offsetInCU: 0xDB8DE, offset: 0xDB8DE, size: 0x8, addend: 0x0, symName: __ZNSt3__16vectorINS0_IfNS_9allocatorIfEEEENS1_IS3_EEE11__vallocateB8ue170006Em, symObjAddr: 0x3CA74, symBinAddr: 0x100040264, symSize: 0x428 }
  - { offsetInCU: 0xDB928, offset: 0xDB928, size: 0x8, addend: 0x0, symName: __ZNSt3__16vectorINS0_IfNS_9allocatorIfEEEENS1_IS3_EEE18__construct_at_endEmRKS3_, symObjAddr: 0x3CE9C, symBinAddr: 0x10004068C, symSize: 0x3EC }
  - { offsetInCU: 0xDB9B2, offset: 0xDB9B2, size: 0x8, addend: 0x0, symName: __ZNSt3__128__exception_guard_exceptionsINS_6vectorINS1_IfNS_9allocatorIfEEEENS2_IS4_EEE16__destroy_vectorEE10__completeB8ue170006Ev, symObjAddr: 0x3D288, symBinAddr: 0x100040A78, symSize: 0x8C }
  - { offsetInCU: 0xDB9D8, offset: 0xDB9D8, size: 0x8, addend: 0x0, symName: __ZNSt3__128__exception_guard_exceptionsINS_6vectorINS1_IfNS_9allocatorIfEEEENS2_IS4_EEE16__destroy_vectorEED1B8ue170006Ev, symObjAddr: 0x3D314, symBinAddr: 0x100040B04, symSize: 0x2C }
  - { offsetInCU: 0xDBA02, offset: 0xDBA02, size: 0x8, addend: 0x0, symName: __ZNSt3__117__compressed_pairIPNS_6vectorIfNS_9allocatorIfEEEENS2_IS4_EEEC2B8ue170006IDnNS_18__default_init_tagEEEOT_OT0_, symObjAddr: 0x3D340, symBinAddr: 0x100040B30, symSize: 0x40 }
  - { offsetInCU: 0xDBA5A, offset: 0xDBA5A, size: 0x8, addend: 0x0, symName: __ZNSt3__122__compressed_pair_elemIPNS_6vectorIfNS_9allocatorIfEEEELi0ELb0EEC2B8ue170006IDnvEEOT_, symObjAddr: 0x3D380, symBinAddr: 0x100040B70, symSize: 0x64 }
  - { offsetInCU: 0xDBA9C, offset: 0xDBA9C, size: 0x8, addend: 0x0, symName: __ZNSt3__122__compressed_pair_elemINS_9allocatorINS_6vectorIfNS1_IfEEEEEELi1ELb1EEC2B8ue170006ENS_18__default_init_tagE, symObjAddr: 0x3D3E4, symBinAddr: 0x100040BD4, symSize: 0x2C }
  - { offsetInCU: 0xDBAD0, offset: 0xDBAD0, size: 0x8, addend: 0x0, symName: __ZNSt3__19allocatorINS_6vectorIfNS0_IfEEEEEC2B8ue170006Ev, symObjAddr: 0x3D410, symBinAddr: 0x100040C00, symSize: 0x2C }
  - { offsetInCU: 0xDBAFA, offset: 0xDBAFA, size: 0x8, addend: 0x0, symName: __ZNSt3__116__non_trivial_ifILb1ENS_9allocatorINS_6vectorIfNS1_IfEEEEEEEC2B8ue170006Ev, symObjAddr: 0x3D43C, symBinAddr: 0x100040C2C, symSize: 0x14 }
  - { offsetInCU: 0xDBB24, offset: 0xDBB24, size: 0x8, addend: 0x0, symName: __ZNSt3__128__exception_guard_exceptionsINS_6vectorINS1_IfNS_9allocatorIfEEEENS2_IS4_EEE16__destroy_vectorEEC1B8ue170006ES7_, symObjAddr: 0x3D450, symBinAddr: 0x100040C40, symSize: 0x238 }
  - { offsetInCU: 0xDBB61, offset: 0xDBB61, size: 0x8, addend: 0x0, symName: __ZNSt3__128__exception_guard_exceptionsINS_6vectorINS1_IfNS_9allocatorIfEEEENS2_IS4_EEE16__destroy_vectorEEC2B8ue170006ES7_, symObjAddr: 0x3D688, symBinAddr: 0x100040E78, symSize: 0x264 }
  - { offsetInCU: 0xDBB9E, offset: 0xDBB9E, size: 0x8, addend: 0x0, symName: __ZNSt3__16vectorINS0_IfNS_9allocatorIfEEEENS1_IS3_EEE16__destroy_vectorC2B8ue170006ERS5_, symObjAddr: 0x3D8EC, symBinAddr: 0x1000410DC, symSize: 0x70 }
  - { offsetInCU: 0xDBBD7, offset: 0xDBBD7, size: 0x8, addend: 0x0, symName: __ZNKSt3__16vectorINS0_IfNS_9allocatorIfEEEENS1_IS3_EEE8max_sizeEv, symObjAddr: 0x3D95C, symBinAddr: 0x10004114C, symSize: 0x2FC }
  - { offsetInCU: 0xDBC00, offset: 0xDBC00, size: 0x8, addend: 0x0, symName: __ZNKSt3__16vectorINS0_IfNS_9allocatorIfEEEENS1_IS3_EEE20__throw_length_errorB8ue170006Ev, symObjAddr: 0x3DC58, symBinAddr: 0x100041448, symSize: 0x20 }
  - { offsetInCU: 0xDBC26, offset: 0xDBC26, size: 0x8, addend: 0x0, symName: __ZNSt3__16vectorINS0_IfNS_9allocatorIfEEEENS1_IS3_EEE7__allocB8ue170006Ev, symObjAddr: 0x3DF04, symBinAddr: 0x1000416F4, symSize: 0x28 }
  - { offsetInCU: 0xDBC4C, offset: 0xDBC4C, size: 0x8, addend: 0x0, symName: __ZNSt3__16vectorINS0_IfNS_9allocatorIfEEEENS1_IS3_EEE9__end_capB8ue170006Ev, symObjAddr: 0x3DF2C, symBinAddr: 0x10004171C, symSize: 0x28 }
  - { offsetInCU: 0xDBC72, offset: 0xDBC72, size: 0x8, addend: 0x0, symName: __ZNKSt3__16vectorINS0_IfNS_9allocatorIfEEEENS1_IS3_EEE14__annotate_newB8ue170006Em, symObjAddr: 0x3DF54, symBinAddr: 0x100041744, symSize: 0xDC }
  - { offsetInCU: 0xDBCB1, offset: 0xDBCB1, size: 0x8, addend: 0x0, symName: __ZNSt3__116allocator_traitsINS_9allocatorINS_6vectorIfNS1_IfEEEEEEE8max_sizeB8ue170006IS5_vEEmRKS5_, symObjAddr: 0x3E030, symBinAddr: 0x100041820, symSize: 0x24 }
  - { offsetInCU: 0xDBCDF, offset: 0xDBCDF, size: 0x8, addend: 0x0, symName: __ZNKSt3__16vectorINS0_IfNS_9allocatorIfEEEENS1_IS3_EEE7__allocB8ue170006Ev, symObjAddr: 0x3E054, symBinAddr: 0x100041844, symSize: 0x28 }
  - { offsetInCU: 0xDBD05, offset: 0xDBD05, size: 0x8, addend: 0x0, symName: __ZNKSt3__19allocatorINS_6vectorIfNS0_IfEEEEE8max_sizeB8ue170006Ev, symObjAddr: 0x3E07C, symBinAddr: 0x10004186C, symSize: 0x18 }
  - { offsetInCU: 0xDBD2B, offset: 0xDBD2B, size: 0x8, addend: 0x0, symName: __ZNKSt3__117__compressed_pairIPNS_6vectorIfNS_9allocatorIfEEEENS2_IS4_EEE6secondB8ue170006Ev, symObjAddr: 0x3E094, symBinAddr: 0x100041884, symSize: 0x24 }
  - { offsetInCU: 0xDBD51, offset: 0xDBD51, size: 0x8, addend: 0x0, symName: __ZNKSt3__122__compressed_pair_elemINS_9allocatorINS_6vectorIfNS1_IfEEEEEELi1ELb1EE5__getB8ue170006Ev, symObjAddr: 0x3E0B8, symBinAddr: 0x1000418A8, symSize: 0x14 }
  - { offsetInCU: 0xDBD77, offset: 0xDBD77, size: 0x8, addend: 0x0, symName: __ZNSt3__19allocatorINS_6vectorIfNS0_IfEEEEE8allocateB8ue170006Em, symObjAddr: 0x3E0CC, symBinAddr: 0x1000418BC, symSize: 0x60 }
  - { offsetInCU: 0xDBDAB, offset: 0xDBDAB, size: 0x8, addend: 0x0, symName: __ZNSt3__117__compressed_pairIPNS_6vectorIfNS_9allocatorIfEEEENS2_IS4_EEE6secondB8ue170006Ev, symObjAddr: 0x3E12C, symBinAddr: 0x10004191C, symSize: 0x24 }
  - { offsetInCU: 0xDBDD1, offset: 0xDBDD1, size: 0x8, addend: 0x0, symName: __ZNSt3__122__compressed_pair_elemINS_9allocatorINS_6vectorIfNS1_IfEEEEEELi1ELb1EE5__getB8ue170006Ev, symObjAddr: 0x3E150, symBinAddr: 0x100041940, symSize: 0x14 }
  - { offsetInCU: 0xDBDF7, offset: 0xDBDF7, size: 0x8, addend: 0x0, symName: __ZNSt3__117__compressed_pairIPNS_6vectorIfNS_9allocatorIfEEEENS2_IS4_EEE5firstB8ue170006Ev, symObjAddr: 0x3E164, symBinAddr: 0x100041954, symSize: 0x24 }
  - { offsetInCU: 0xDBE1D, offset: 0xDBE1D, size: 0x8, addend: 0x0, symName: __ZNSt3__122__compressed_pair_elemIPNS_6vectorIfNS_9allocatorIfEEEELi0ELb0EE5__getB8ue170006Ev, symObjAddr: 0x3E188, symBinAddr: 0x100041978, symSize: 0x14 }
  - { offsetInCU: 0xDBE43, offset: 0xDBE43, size: 0x8, addend: 0x0, symName: __ZNKSt3__16vectorINS0_IfNS_9allocatorIfEEEENS1_IS3_EEE31__annotate_contiguous_containerEPKvS7_S7_S7_, symObjAddr: 0x3E19C, symBinAddr: 0x10004198C, symSize: 0x58 }
  - { offsetInCU: 0xDBEA5, offset: 0xDBEA5, size: 0x8, addend: 0x0, symName: __ZNKSt3__16vectorINS0_IfNS_9allocatorIfEEEENS1_IS3_EEE4dataB8ue170006Ev, symObjAddr: 0x3E1F4, symBinAddr: 0x1000419E4, symSize: 0x64 }
  - { offsetInCU: 0xDBECB, offset: 0xDBECB, size: 0x8, addend: 0x0, symName: __ZNKSt3__16vectorINS0_IfNS_9allocatorIfEEEENS1_IS3_EEE8capacityB8ue170006Ev, symObjAddr: 0x3E258, symBinAddr: 0x100041A48, symSize: 0xBC }
  - { offsetInCU: 0xDBEF1, offset: 0xDBEF1, size: 0x8, addend: 0x0, symName: __ZNKSt3__16vectorINS0_IfNS_9allocatorIfEEEENS1_IS3_EEE9__end_capB8ue170006Ev, symObjAddr: 0x3E328, symBinAddr: 0x100041B18, symSize: 0x28 }
  - { offsetInCU: 0xDBF17, offset: 0xDBF17, size: 0x8, addend: 0x0, symName: __ZNKSt3__117__compressed_pairIPNS_6vectorIfNS_9allocatorIfEEEENS2_IS4_EEE5firstB8ue170006Ev, symObjAddr: 0x3E350, symBinAddr: 0x100041B40, symSize: 0x24 }
  - { offsetInCU: 0xDBF3D, offset: 0xDBF3D, size: 0x8, addend: 0x0, symName: __ZNKSt3__122__compressed_pair_elemIPNS_6vectorIfNS_9allocatorIfEEEELi0ELb0EE5__getB8ue170006Ev, symObjAddr: 0x3E374, symBinAddr: 0x100041B64, symSize: 0x14 }
  - { offsetInCU: 0xDBF7C, offset: 0xDBF7C, size: 0x8, addend: 0x0, symName: __ZNSt3__16vectorINS0_IfNS_9allocatorIfEEEENS1_IS3_EEE21_ConstructTransactionC1B8ue170006ERS5_m, symObjAddr: 0x3E388, symBinAddr: 0x100041B78, symSize: 0x3C }
  - { offsetInCU: 0xDBFC4, offset: 0xDBFC4, size: 0x8, addend: 0x0, symName: __ZNSt3__116allocator_traitsINS_9allocatorINS_6vectorIfNS1_IfEEEEEEE9constructB8ue170006IS4_JRKS4_EvEEvRS5_PT_DpOT0_, symObjAddr: 0x3E3C4, symBinAddr: 0x100041BB4, symSize: 0x34 }
  - { offsetInCU: 0xDC01B, offset: 0xDC01B, size: 0x8, addend: 0x0, symName: __ZNSt3__16vectorINS0_IfNS_9allocatorIfEEEENS1_IS3_EEE21_ConstructTransactionD1B8ue170006Ev, symObjAddr: 0x3E3F8, symBinAddr: 0x100041BE8, symSize: 0x2C }
  - { offsetInCU: 0xDC045, offset: 0xDC045, size: 0x8, addend: 0x0, symName: __ZNSt3__16vectorINS0_IfNS_9allocatorIfEEEENS1_IS3_EEE21_ConstructTransactionC2B8ue170006ERS5_m, symObjAddr: 0x3E424, symBinAddr: 0x100041C14, symSize: 0x1D8 }
  - { offsetInCU: 0xDC08D, offset: 0xDC08D, size: 0x8, addend: 0x0, symName: __ZNKSt3__16vectorINS0_IfNS_9allocatorIfEEEENS1_IS3_EEE19__annotate_increaseB8ue170006Em, symObjAddr: 0x3E5FC, symBinAddr: 0x100041DEC, symSize: 0xF8 }
  - { offsetInCU: 0xDC0C2, offset: 0xDC0C2, size: 0x8, addend: 0x0, symName: __ZNKSt3__16vectorINS0_IfNS_9allocatorIfEEEENS1_IS3_EEE4sizeB8ue170006Ev, symObjAddr: 0x3E6F4, symBinAddr: 0x100041EE4, symSize: 0xB0 }
  - { offsetInCU: 0xDC0E8, offset: 0xDC0E8, size: 0x8, addend: 0x0, symName: __ZNSt3__19allocatorINS_6vectorIfNS0_IfEEEEE9constructB8ue170006IS3_JRKS3_EEEvPT_DpOT0_, symObjAddr: 0x3E7A4, symBinAddr: 0x100041F94, symSize: 0x30 }
  - { offsetInCU: 0xDC13E, offset: 0xDC13E, size: 0x8, addend: 0x0, symName: __ZNSt3__16vectorIfNS_9allocatorIfEEEC1ERKS3_, symObjAddr: 0x3E7D4, symBinAddr: 0x100041FC4, symSize: 0x34 }
  - { offsetInCU: 0xDC179, offset: 0xDC179, size: 0x8, addend: 0x0, symName: __ZNSt3__16vectorIfNS_9allocatorIfEEEC2ERKS3_, symObjAddr: 0x3E808, symBinAddr: 0x100041FF8, symSize: 0x388 }
  - { offsetInCU: 0xDC1B6, offset: 0xDC1B6, size: 0x8, addend: 0x0, symName: __ZNSt3__116allocator_traitsINS_9allocatorIfEEE37select_on_container_copy_constructionB8ue170006IS2_vvEES2_RKS2_, symObjAddr: 0x3EB90, symBinAddr: 0x100042380, symSize: 0x10 }
  - { offsetInCU: 0xDC1EB, offset: 0xDC1EB, size: 0x8, addend: 0x0, symName: __ZNSt3__117__compressed_pairIPfNS_9allocatorIfEEEC1B8ue170006IDnS3_EEOT_OT0_, symObjAddr: 0x3EBA0, symBinAddr: 0x100042390, symSize: 0x3C }
  - { offsetInCU: 0xDC243, offset: 0xDC243, size: 0x8, addend: 0x0, symName: __ZNSt3__16vectorIfNS_9allocatorIfEEE16__init_with_sizeB8ue170006IPfS5_EEvT_T0_m, symObjAddr: 0x3EBDC, symBinAddr: 0x1000423CC, symSize: 0x35C }
  - { offsetInCU: 0xDC2BF, offset: 0xDC2BF, size: 0x8, addend: 0x0, symName: __ZNSt3__117__compressed_pairIPfNS_9allocatorIfEEEC2B8ue170006IDnS3_EEOT_OT0_, symObjAddr: 0x3EF38, symBinAddr: 0x100042728, symSize: 0x44 }
  - { offsetInCU: 0xDC317, offset: 0xDC317, size: 0x8, addend: 0x0, symName: __ZNSt3__122__compressed_pair_elemINS_9allocatorIfEELi1ELb1EEC2B8ue170006IS2_vEEOT_, symObjAddr: 0x3EF7C, symBinAddr: 0x10004276C, symSize: 0x18 }
  - { offsetInCU: 0xDC359, offset: 0xDC359, size: 0x8, addend: 0x0, symName: __ZNSt3__16vectorIfNS_9allocatorIfEEE18__construct_at_endIPfS5_EEvT_T0_m, symObjAddr: 0x3EF94, symBinAddr: 0x100042784, symSize: 0x380 }
  - { offsetInCU: 0xDC3F7, offset: 0xDC3F7, size: 0x8, addend: 0x0, symName: __ZNSt3__14pairIPfS1_EC1B8ue170006IS1_S1_LPv0EEEOT_OT0_, symObjAddr: 0x3FBF0, symBinAddr: 0x1000433E0, symSize: 0x3C }
  - { offsetInCU: 0xDC455, offset: 0xDC455, size: 0x8, addend: 0x0, symName: __ZNSt3__14pairIPfS1_EC2B8ue170006IS1_S1_LPv0EEEOT_OT0_, symObjAddr: 0x3FC2C, symBinAddr: 0x10004341C, symSize: 0x138 }
  - { offsetInCU: 0xDC4BD, offset: 0xDC4BD, size: 0x8, addend: 0x0, symName: __ZNKSt3__114__copy_trivialclB8ue170006IffLi0EEENS_4pairIPT_PT0_EES4_S4_S6_, symObjAddr: 0x409CC, symBinAddr: 0x1000441BC, symSize: 0x230 }
  - { offsetInCU: 0xDC529, offset: 0xDC529, size: 0x8, addend: 0x0, symName: __ZNSt3__14pairIPfS1_EC1B8ue170006IRS1_S1_LPv0EEEOT_OT0_, symObjAddr: 0x4124C, symBinAddr: 0x100044A3C, symSize: 0x3C }
  - { offsetInCU: 0xDC587, offset: 0xDC587, size: 0x8, addend: 0x0, symName: __ZNSt3__14pairIPfS1_EC2B8ue170006IRS1_S1_LPv0EEEOT_OT0_, symObjAddr: 0x41288, symBinAddr: 0x100044A78, symSize: 0x138 }
  - { offsetInCU: 0xDC5E5, offset: 0xDC5E5, size: 0x8, addend: 0x0, symName: __ZNSt3__118__unwrap_iter_implIPfLb1EE8__unwrapB8ue170006ES1_, symObjAddr: 0x413C0, symBinAddr: 0x100044BB0, symSize: 0x24 }
  - { offsetInCU: 0xDC608, offset: 0xDC608, size: 0x8, addend: 0x0, symName: __ZNSt3__118__unwrap_iter_implIPfLb1EE8__rewrapB8ue170006ES1_S1_, symObjAddr: 0x413E4, symBinAddr: 0x100044BD4, symSize: 0x50 }
  - { offsetInCU: 0xDC639, offset: 0xDC639, size: 0x8, addend: 0x0, symName: __ZNSt3__16vectorINS0_IfNS_9allocatorIfEEEENS1_IS3_EEE21_ConstructTransactionD2B8ue170006Ev, symObjAddr: 0x41434, symBinAddr: 0x100044C24, symSize: 0x278 }
  - { offsetInCU: 0xDC663, offset: 0xDC663, size: 0x8, addend: 0x0, symName: __ZNKSt3__16vectorINS0_IfNS_9allocatorIfEEEENS1_IS3_EEE17__annotate_shrinkB8ue170006Em, symObjAddr: 0x416AC, symBinAddr: 0x100044E9C, symSize: 0xE4 }
  - { offsetInCU: 0xDC698, offset: 0xDC698, size: 0x8, addend: 0x0, symName: __ZNSt3__128__exception_guard_exceptionsINS_6vectorINS1_IfNS_9allocatorIfEEEENS2_IS4_EEE16__destroy_vectorEED2B8ue170006Ev, symObjAddr: 0x41790, symBinAddr: 0x100044F80, symSize: 0xBC }
  - { offsetInCU: 0xDC6C2, offset: 0xDC6C2, size: 0x8, addend: 0x0, symName: __ZNSt3__16vectorINS0_IfNS_9allocatorIfEEEENS1_IS3_EEE16__destroy_vectorclB8ue170006Ev, symObjAddr: 0x4184C, symBinAddr: 0x10004503C, symSize: 0x228 }
  - { offsetInCU: 0xDC6E8, offset: 0xDC6E8, size: 0x8, addend: 0x0, symName: __ZNSt3__16vectorINS0_IfNS_9allocatorIfEEEENS1_IS3_EEE7__clearB8ue170006Ev, symObjAddr: 0x41A74, symBinAddr: 0x100045264, symSize: 0x64 }
  - { offsetInCU: 0xDC70E, offset: 0xDC70E, size: 0x8, addend: 0x0, symName: __ZNKSt3__16vectorINS0_IfNS_9allocatorIfEEEENS1_IS3_EEE17__annotate_deleteB8ue170006Ev, symObjAddr: 0x41AD8, symBinAddr: 0x1000452C8, symSize: 0xE8 }
  - { offsetInCU: 0xDC734, offset: 0xDC734, size: 0x8, addend: 0x0, symName: __ZNSt3__116allocator_traitsINS_9allocatorINS_6vectorIfNS1_IfEEEEEEE10deallocateB8ue170006ERS5_PS4_m, symObjAddr: 0x41BC0, symBinAddr: 0x1000453B0, symSize: 0x34 }
  - { offsetInCU: 0xDC776, offset: 0xDC776, size: 0x8, addend: 0x0, symName: __ZNSt3__16vectorINS0_IfNS_9allocatorIfEEEENS1_IS3_EEE22__base_destruct_at_endB8ue170006EPS3_, symObjAddr: 0x41BF4, symBinAddr: 0x1000453E4, symSize: 0x114 }
  - { offsetInCU: 0xDC7BA, offset: 0xDC7BA, size: 0x8, addend: 0x0, symName: __ZNSt3__116allocator_traitsINS_9allocatorINS_6vectorIfNS1_IfEEEEEEE7destroyB8ue170006IS4_vEEvRS5_PT_, symObjAddr: 0x41D08, symBinAddr: 0x1000454F8, symSize: 0x2C }
  - { offsetInCU: 0xDC7F7, offset: 0xDC7F7, size: 0x8, addend: 0x0, symName: __ZNSt3__19allocatorINS_6vectorIfNS0_IfEEEEE7destroyB8ue170006EPS3_, symObjAddr: 0x41D34, symBinAddr: 0x100045524, symSize: 0x28 }
  - { offsetInCU: 0xDC82B, offset: 0xDC82B, size: 0x8, addend: 0x0, symName: __ZNSt3__19allocatorINS_6vectorIfNS0_IfEEEEE10deallocateB8ue170006EPS3_m, symObjAddr: 0x41D5C, symBinAddr: 0x10004554C, symSize: 0x50 }
  - { offsetInCU: 0xDC86D, offset: 0xDC86D, size: 0x8, addend: 0x0, symName: __ZNSt3__16vectorINS0_IfNS_9allocatorIfEEEENS1_IS3_EEED2B8ue170006Ev, symObjAddr: 0x41DAC, symBinAddr: 0x10004559C, symSize: 0x1F4 }
  - { offsetInCU: 0xDC898, offset: 0xDC898, size: 0x8, addend: 0x0, symName: __ZN5Eigen9TransposeIKNS_6MatrixIdLin1ELin1ELi0ELin1ELin1EEEEC1ERS3_, symObjAddr: 0x41FA0, symBinAddr: 0x100045790, symSize: 0x34 }
  - { offsetInCU: 0xDC8D0, offset: 0xDC8D0, size: 0x8, addend: 0x0, symName: __ZN5Eigen9TransposeIKNS_6MatrixIdLin1ELin1ELi0ELin1ELin1EEEEC2ERS3_, symObjAddr: 0x41FD4, symBinAddr: 0x1000457C4, symSize: 0x80 }
  - { offsetInCU: 0xDC908, offset: 0xDC908, size: 0x8, addend: 0x0, symName: __ZN5Eigen13TransposeImplIKNS_6MatrixIdLin1ELin1ELi0ELin1ELin1EEENS_5DenseEEC2Ev, symObjAddr: 0x42054, symBinAddr: 0x100045844, symSize: 0x2C }
  - { offsetInCU: 0xDC932, offset: 0xDC932, size: 0x8, addend: 0x0, symName: __ZN5Eigen10MatrixBaseINS_9TransposeIKNS_6MatrixIdLin1ELin1ELi0ELin1ELin1EEEEEEC2Ev, symObjAddr: 0x42080, symBinAddr: 0x100045870, symSize: 0x2C }
  - { offsetInCU: 0xDC95C, offset: 0xDC95C, size: 0x8, addend: 0x0, symName: __ZN5Eigen9DenseBaseINS_9TransposeIKNS_6MatrixIdLin1ELin1ELi0ELin1ELin1EEEEEEC2Ev, symObjAddr: 0x420AC, symBinAddr: 0x10004589C, symSize: 0x14 }
  - { offsetInCU: 0xDC986, offset: 0xDC986, size: 0x8, addend: 0x0, symName: __ZNK5Eigen9EigenBaseINS_9TransposeIKNS_6MatrixIdLin1ELin1ELi0ELin1ELin1EEEEEE7derivedEv, symObjAddr: 0x420C0, symBinAddr: 0x1000458B0, symSize: 0x14 }
  - { offsetInCU: 0xDC9AC, offset: 0xDC9AC, size: 0x8, addend: 0x0, symName: __ZN5Eigen7ProductINS_6MatrixIdLin1ELin1ELi0ELin1ELin1EEENS_9TransposeIKS2_EELi0EEC1ERS4_RKS5_, symObjAddr: 0x420D4, symBinAddr: 0x1000458C4, symSize: 0x3C }
  - { offsetInCU: 0xDC9F2, offset: 0xDC9F2, size: 0x8, addend: 0x0, symName: __ZN5Eigen7ProductINS_6MatrixIdLin1ELin1ELi0ELin1ELin1EEENS_9TransposeIKS2_EELi0EEC2ERS4_RKS5_, symObjAddr: 0x42110, symBinAddr: 0x100045900, symSize: 0x114 }
  - { offsetInCU: 0xDCA3D, offset: 0xDCA3D, size: 0x8, addend: 0x0, symName: __ZN5Eigen11ProductImplINS_6MatrixIdLin1ELin1ELi0ELin1ELin1EEENS_9TransposeIKS2_EELi0ENS_5DenseEEC2Ev, symObjAddr: 0x42224, symBinAddr: 0x100045A14, symSize: 0x2C }
  - { offsetInCU: 0xDCA69, offset: 0xDCA69, size: 0x8, addend: 0x0, symName: __ZNK5Eigen9TransposeIKNS_6MatrixIdLin1ELin1ELi0ELin1ELin1EEEE4rowsEv, symObjAddr: 0x42250, symBinAddr: 0x100045A40, symSize: 0x64 }
  - { offsetInCU: 0xDCA94, offset: 0xDCA94, size: 0x8, addend: 0x0, symName: __ZN5Eigen8internal18dense_product_baseINS_6MatrixIdLin1ELin1ELi0ELin1ELin1EEENS_9TransposeIKS3_EELi0ELi8EEC2Ev, symObjAddr: 0x422B4, symBinAddr: 0x100045AA4, symSize: 0x2C }
  - { offsetInCU: 0xDCAC0, offset: 0xDCAC0, size: 0x8, addend: 0x0, symName: __ZN5Eigen10MatrixBaseINS_7ProductINS_6MatrixIdLin1ELin1ELi0ELin1ELin1EEENS_9TransposeIKS3_EELi0EEEEC2Ev, symObjAddr: 0x422E0, symBinAddr: 0x100045AD0, symSize: 0x2C }
  - { offsetInCU: 0xDCAEA, offset: 0xDCAEA, size: 0x8, addend: 0x0, symName: __ZN5Eigen9DenseBaseINS_7ProductINS_6MatrixIdLin1ELin1ELi0ELin1ELin1EEENS_9TransposeIKS3_EELi0EEEEC2Ev, symObjAddr: 0x4230C, symBinAddr: 0x100045AFC, symSize: 0x14 }
  - { offsetInCU: 0xDCB14, offset: 0xDCB14, size: 0x8, addend: 0x0, symName: __ZNK5Eigen9EigenBaseINS_7ProductINS_6MatrixIdLin1ELin1ELi0ELin1ELin1EEENS_9TransposeIKS3_EELi0EEEE7derivedEv, symObjAddr: 0x42320, symBinAddr: 0x100045B10, symSize: 0x14 }
  - { offsetInCU: 0xDCB3A, offset: 0xDCB3A, size: 0x8, addend: 0x0, symName: __ZNK5Eigen7ProductINS_6MatrixIdLin1ELin1ELi0ELin1ELin1EEENS_9TransposeIKS2_EELi0EE4rowsEv, symObjAddr: 0x42334, symBinAddr: 0x100045B24, symSize: 0x64 }
  - { offsetInCU: 0xDCB60, offset: 0xDCB60, size: 0x8, addend: 0x0, symName: __ZNK5Eigen7ProductINS_6MatrixIdLin1ELin1ELi0ELin1ELin1EEENS_9TransposeIKS2_EELi0EE4colsEv, symObjAddr: 0x42398, symBinAddr: 0x100045B88, symSize: 0x28 }
  - { offsetInCU: 0xDCB86, offset: 0xDCB86, size: 0x8, addend: 0x0, symName: __ZN5Eigen8internal18scalar_constant_opIdEC1ERKd, symObjAddr: 0x423C0, symBinAddr: 0x100045BB0, symSize: 0x34 }
  - { offsetInCU: 0xDCBBE, offset: 0xDCBBE, size: 0x8, addend: 0x0, symName: __ZN5Eigen14CwiseNullaryOpINS_8internal18scalar_constant_opIdEEKNS_6MatrixIdLin1ELin1ELi0ELin1ELin1EEEEC1EllRKS3_, symObjAddr: 0x423F4, symBinAddr: 0x100045BE4, symSize: 0x44 }
  - { offsetInCU: 0xDCC12, offset: 0xDCC12, size: 0x8, addend: 0x0, symName: __ZN5Eigen8internal18scalar_quotient_opIddEC1Ev, symObjAddr: 0x42438, symBinAddr: 0x100045C28, symSize: 0x2C }
  - { offsetInCU: 0xDCC3C, offset: 0xDCC3C, size: 0x8, addend: 0x0, symName: __ZN5Eigen13CwiseBinaryOpINS_8internal18scalar_quotient_opIddEEKNS_7ProductINS_6MatrixIdLin1ELin1ELi0ELin1ELin1EEENS_9TransposeIKS6_EELi0EEEKNS_14CwiseNullaryOpINS1_18scalar_constant_opIdEES8_EEEC1ERSB_RSG_RKS3_, symObjAddr: 0x42464, symBinAddr: 0x100045C54, symSize: 0x44 }
  - { offsetInCU: 0xDCC90, offset: 0xDCC90, size: 0x8, addend: 0x0, symName: __ZNK5Eigen9TransposeIKNS_6MatrixIdLin1ELin1ELi0ELin1ELin1EEEE4colsEv, symObjAddr: 0x424A8, symBinAddr: 0x100045C98, symSize: 0x64 }
  - { offsetInCU: 0xDCCB6, offset: 0xDCCB6, size: 0x8, addend: 0x0, symName: __ZN5Eigen8internal18scalar_constant_opIdEC2ERKd, symObjAddr: 0x4250C, symBinAddr: 0x100045CFC, symSize: 0xB0 }
  - { offsetInCU: 0xDCCEE, offset: 0xDCCEE, size: 0x8, addend: 0x0, symName: __ZN5Eigen14CwiseNullaryOpINS_8internal18scalar_constant_opIdEEKNS_6MatrixIdLin1ELin1ELi0ELin1ELin1EEEEC2EllRKS3_, symObjAddr: 0x425BC, symBinAddr: 0x100045DAC, symSize: 0xE0 }
  - { offsetInCU: 0xDCD42, offset: 0xDCD42, size: 0x8, addend: 0x0, symName: __ZN5Eigen10MatrixBaseINS_14CwiseNullaryOpINS_8internal18scalar_constant_opIdEEKNS_6MatrixIdLin1ELin1ELi0ELin1ELin1EEEEEEC2Ev, symObjAddr: 0x4269C, symBinAddr: 0x100045E8C, symSize: 0x2C }
  - { offsetInCU: 0xDCD6C, offset: 0xDCD6C, size: 0x8, addend: 0x0, symName: __ZN5Eigen8internal18scalar_constant_opIdEC1ERKS2_, symObjAddr: 0x426C8, symBinAddr: 0x100045EB8, symSize: 0x34 }
  - { offsetInCU: 0xDCDA4, offset: 0xDCDA4, size: 0x8, addend: 0x0, symName: __ZN5Eigen9DenseBaseINS_14CwiseNullaryOpINS_8internal18scalar_constant_opIdEEKNS_6MatrixIdLin1ELin1ELi0ELin1ELin1EEEEEEC2Ev, symObjAddr: 0x426FC, symBinAddr: 0x100045EEC, symSize: 0x14 }
  - { offsetInCU: 0xDCDCE, offset: 0xDCDCE, size: 0x8, addend: 0x0, symName: __ZN5Eigen8internal18scalar_constant_opIdEC2ERKS2_, symObjAddr: 0x42710, symBinAddr: 0x100045F00, symSize: 0xB0 }
  - { offsetInCU: 0xDCE06, offset: 0xDCE06, size: 0x8, addend: 0x0, symName: __ZN5Eigen8internal18scalar_quotient_opIddEC2Ev, symObjAddr: 0x427C0, symBinAddr: 0x100045FB0, symSize: 0x14 }
  - { offsetInCU: 0xDCE30, offset: 0xDCE30, size: 0x8, addend: 0x0, symName: __ZN5Eigen13CwiseBinaryOpINS_8internal18scalar_quotient_opIddEEKNS_7ProductINS_6MatrixIdLin1ELin1ELi0ELin1ELin1EEENS_9TransposeIKS6_EELi0EEEKNS_14CwiseNullaryOpINS1_18scalar_constant_opIdEES8_EEEC2ERSB_RSG_RKS3_, symObjAddr: 0x427D4, symBinAddr: 0x100045FC4, symSize: 0x100 }
  - { offsetInCU: 0xDCE89, offset: 0xDCE89, size: 0x8, addend: 0x0, symName: __ZN5Eigen17CwiseBinaryOpImplINS_8internal18scalar_quotient_opIddEEKNS_7ProductINS_6MatrixIdLin1ELin1ELi0ELin1ELin1EEENS_9TransposeIKS6_EELi0EEEKNS_14CwiseNullaryOpINS1_18scalar_constant_opIdEES8_EENS_5DenseEEC2Ev, symObjAddr: 0x428D4, symBinAddr: 0x1000460C4, symSize: 0x2C }
  - { offsetInCU: 0xDCEB5, offset: 0xDCEB5, size: 0x8, addend: 0x0, symName: __ZN5Eigen14CwiseNullaryOpINS_8internal18scalar_constant_opIdEEKNS_6MatrixIdLin1ELin1ELi0ELin1ELin1EEEEC1ERKS7_, symObjAddr: 0x42900, symBinAddr: 0x1000460F0, symSize: 0x34 }
  - { offsetInCU: 0xDCEEA, offset: 0xDCEEA, size: 0x8, addend: 0x0, symName: __ZN5Eigen8internal18scalar_quotient_opIddEC1ERKS2_, symObjAddr: 0x42934, symBinAddr: 0x100046124, symSize: 0x34 }
  - { offsetInCU: 0xDCF1F, offset: 0xDCF1F, size: 0x8, addend: 0x0, symName: __ZNK5Eigen14CwiseNullaryOpINS_8internal18scalar_constant_opIdEEKNS_6MatrixIdLin1ELin1ELi0ELin1ELin1EEEE4rowsEv, symObjAddr: 0x42968, symBinAddr: 0x100046158, symSize: 0x24 }
  - { offsetInCU: 0xDCF45, offset: 0xDCF45, size: 0x8, addend: 0x0, symName: __ZNK5Eigen14CwiseNullaryOpINS_8internal18scalar_constant_opIdEEKNS_6MatrixIdLin1ELin1ELi0ELin1ELin1EEEE4colsEv, symObjAddr: 0x4298C, symBinAddr: 0x10004617C, symSize: 0x28 }
  - { offsetInCU: 0xDCF6B, offset: 0xDCF6B, size: 0x8, addend: 0x0, symName: __ZN5Eigen10MatrixBaseINS_13CwiseBinaryOpINS_8internal18scalar_quotient_opIddEEKNS_7ProductINS_6MatrixIdLin1ELin1ELi0ELin1ELin1EEENS_9TransposeIKS7_EELi0EEEKNS_14CwiseNullaryOpINS2_18scalar_constant_opIdEES9_EEEEEC2Ev, symObjAddr: 0x429B4, symBinAddr: 0x1000461A4, symSize: 0x2C }
  - { offsetInCU: 0xDCF95, offset: 0xDCF95, size: 0x8, addend: 0x0, symName: __ZN5Eigen9DenseBaseINS_13CwiseBinaryOpINS_8internal18scalar_quotient_opIddEEKNS_7ProductINS_6MatrixIdLin1ELin1ELi0ELin1ELin1EEENS_9TransposeIKS7_EELi0EEEKNS_14CwiseNullaryOpINS2_18scalar_constant_opIdEES9_EEEEEC2Ev, symObjAddr: 0x429E0, symBinAddr: 0x1000461D0, symSize: 0x14 }
  - { offsetInCU: 0xDCFBF, offset: 0xDCFBF, size: 0x8, addend: 0x0, symName: __ZN5Eigen14CwiseNullaryOpINS_8internal18scalar_constant_opIdEEKNS_6MatrixIdLin1ELin1ELi0ELin1ELin1EEEEC2ERKS7_, symObjAddr: 0x429F4, symBinAddr: 0x1000461E4, symSize: 0x4C }
  - { offsetInCU: 0xDCFF4, offset: 0xDCFF4, size: 0x8, addend: 0x0, symName: __ZN5Eigen8internal18scalar_quotient_opIddEC2ERKS2_, symObjAddr: 0x42A40, symBinAddr: 0x100046230, symSize: 0x18 }
  - { offsetInCU: 0xDD029, offset: 0xDD029, size: 0x8, addend: 0x0, symName: __ZN5Eigen6MatrixIdLin1ELin1ELi0ELin1ELin1EEC2INS_13CwiseBinaryOpINS_8internal18scalar_quotient_opIddEEKNS_7ProductIS1_NS_9TransposeIKS1_EELi0EEEKNS_14CwiseNullaryOpINS4_18scalar_constant_opIdEES9_EEEEEERKNS_9EigenBaseIT_EE, symObjAddr: 0x42A58, symBinAddr: 0x100046248, symSize: 0x40 }
  - { offsetInCU: 0xDD06B, offset: 0xDD06B, size: 0x8, addend: 0x0, symName: __ZNK5Eigen9EigenBaseINS_13CwiseBinaryOpINS_8internal18scalar_quotient_opIddEEKNS_7ProductINS_6MatrixIdLin1ELin1ELi0ELin1ELin1EEENS_9TransposeIKS7_EELi0EEEKNS_14CwiseNullaryOpINS2_18scalar_constant_opIdEES9_EEEEE7derivedEv, symObjAddr: 0x42A98, symBinAddr: 0x100046288, symSize: 0x14 }
  - { offsetInCU: 0xDD091, offset: 0xDD091, size: 0x8, addend: 0x0, symName: __ZN5Eigen15PlainObjectBaseINS_6MatrixIdLin1ELin1ELi0ELin1ELin1EEEEC2INS_13CwiseBinaryOpINS_8internal18scalar_quotient_opIddEEKNS_7ProductIS2_NS_9TransposeIKS2_EELi0EEEKNS_14CwiseNullaryOpINS6_18scalar_constant_opIdEESB_EEEEEERKNS_9DenseBaseIT_EE, symObjAddr: 0x42AAC, symBinAddr: 0x10004629C, symSize: 0x80 }
  - { offsetInCU: 0xDD0D3, offset: 0xDD0D3, size: 0x8, addend: 0x0, symName: __ZN5Eigen15PlainObjectBaseINS_6MatrixIdLin1ELin1ELi0ELin1ELin1EEEE10resizeLikeINS_13CwiseBinaryOpINS_8internal18scalar_quotient_opIddEEKNS_7ProductIS2_NS_9TransposeIKS2_EELi0EEEKNS_14CwiseNullaryOpINS6_18scalar_constant_opIdEESB_EEEEEEvRKNS_9EigenBaseIT_EE, symObjAddr: 0x42B2C, symBinAddr: 0x10004631C, symSize: 0x11C }
  - { offsetInCU: 0xDD167, offset: 0xDD167, size: 0x8, addend: 0x0, symName: __ZN5Eigen15PlainObjectBaseINS_6MatrixIdLin1ELin1ELi0ELin1ELin1EEEE12_set_noaliasINS_13CwiseBinaryOpINS_8internal18scalar_quotient_opIddEEKNS_7ProductIS2_NS_9TransposeIKS2_EELi0EEEKNS_14CwiseNullaryOpINS6_18scalar_constant_opIdEESB_EEEEEERS2_RKNS_9DenseBaseIT_EE, symObjAddr: 0x42C48, symBinAddr: 0x100046438, symSize: 0x21C }
  - { offsetInCU: 0xDD1A7, offset: 0xDD1A7, size: 0x8, addend: 0x0, symName: __ZNK5Eigen13CwiseBinaryOpINS_8internal18scalar_quotient_opIddEEKNS_7ProductINS_6MatrixIdLin1ELin1ELi0ELin1ELin1EEENS_9TransposeIKS6_EELi0EEEKNS_14CwiseNullaryOpINS1_18scalar_constant_opIdEES8_EEE4rowsEv, symObjAddr: 0x42E64, symBinAddr: 0x100046654, symSize: 0x28 }
  - { offsetInCU: 0xDD1CD, offset: 0xDD1CD, size: 0x8, addend: 0x0, symName: __ZNK5Eigen13CwiseBinaryOpINS_8internal18scalar_quotient_opIddEEKNS_7ProductINS_6MatrixIdLin1ELin1ELi0ELin1ELin1EEENS_9TransposeIKS6_EELi0EEEKNS_14CwiseNullaryOpINS1_18scalar_constant_opIdEES8_EEE4colsEv, symObjAddr: 0x42E8C, symBinAddr: 0x10004667C, symSize: 0x28 }
  - { offsetInCU: 0xDD1F3, offset: 0xDD1F3, size: 0x8, addend: 0x0, symName: __ZN5Eigen8internal10AssignmentINS_6MatrixIdLin1ELin1ELi0ELin1ELin1EEENS_13CwiseBinaryOpINS0_18scalar_quotient_opIddEEKNS_7ProductIS3_NS_9TransposeIKS3_EELi0EEEKNS_14CwiseNullaryOpINS0_18scalar_constant_opIdEES9_EEEENS0_9assign_opIddEENS0_11Dense2DenseEvE3runERS3_RKSI_RKSK_, symObjAddr: 0x42EF0, symBinAddr: 0x1000466E0, symSize: 0x40 }
  - { offsetInCU: 0xDD235, offset: 0xDD235, size: 0x8, addend: 0x0, symName: __ZN5Eigen8internal27checkTransposeAliasing_implINS_6MatrixIdLin1ELin1ELi0ELin1ELin1EEENS_13CwiseBinaryOpINS0_18scalar_quotient_opIddEEKNS_7ProductIS3_NS_9TransposeIKS3_EELi0EEEKNS_14CwiseNullaryOpINS0_18scalar_constant_opIdEES9_EEEELb0EE3runERS9_RKSI_, symObjAddr: 0x4339C, symBinAddr: 0x100046B8C, symSize: 0x14 }
  - { offsetInCU: 0xDD260, offset: 0xDD260, size: 0x8, addend: 0x0, symName: __ZN5Eigen8internal9evaluatorINS_13CwiseBinaryOpINS0_18scalar_quotient_opIddEEKNS_7ProductINS_6MatrixIdLin1ELin1ELi0ELin1ELin1EEENS_9TransposeIKS7_EELi0EEEKNS_14CwiseNullaryOpINS0_18scalar_constant_opIdEES9_EEEEEC1ERKSI_, symObjAddr: 0x433B0, symBinAddr: 0x100046BA0, symSize: 0x34 }
  - { offsetInCU: 0xDD299, offset: 0xDD299, size: 0x8, addend: 0x0, symName: __ZN5Eigen8internal31generic_dense_assignment_kernelINS0_9evaluatorINS_6MatrixIdLin1ELin1ELi0ELin1ELin1EEEEENS2_INS_13CwiseBinaryOpINS0_18scalar_quotient_opIddEEKNS_7ProductIS4_NS_9TransposeIKS4_EELi0EEEKNS_14CwiseNullaryOpINS0_18scalar_constant_opIdEESB_EEEEEENS0_9assign_opIddEELi0EEC1ERS5_RKSL_RKSN_RS4_, symObjAddr: 0x434E0, symBinAddr: 0x100046CD0, symSize: 0x4C }
  - { offsetInCU: 0xDD2FF, offset: 0xDD2FF, size: 0x8, addend: 0x0, symName: __ZN5Eigen8internal9evaluatorINS_13CwiseBinaryOpINS0_18scalar_quotient_opIddEEKNS_7ProductINS_6MatrixIdLin1ELin1ELi0ELin1ELin1EEENS_9TransposeIKS7_EELi0EEEKNS_14CwiseNullaryOpINS0_18scalar_constant_opIdEES9_EEEEED1Ev, symObjAddr: 0x435D8, symBinAddr: 0x100046DC8, symSize: 0x2C }
  - { offsetInCU: 0xDD32C, offset: 0xDD32C, size: 0x8, addend: 0x0, symName: __ZN5Eigen8internal9evaluatorINS_13CwiseBinaryOpINS0_18scalar_quotient_opIddEEKNS_7ProductINS_6MatrixIdLin1ELin1ELi0ELin1ELin1EEENS_9TransposeIKS7_EELi0EEEKNS_14CwiseNullaryOpINS0_18scalar_constant_opIdEES9_EEEEEC2ERKSI_, symObjAddr: 0x43604, symBinAddr: 0x100046DF4, symSize: 0x34 }
  - { offsetInCU: 0xDD365, offset: 0xDD365, size: 0x8, addend: 0x0, symName: __ZN5Eigen8internal16binary_evaluatorINS_13CwiseBinaryOpINS0_18scalar_quotient_opIddEEKNS_7ProductINS_6MatrixIdLin1ELin1ELi0ELin1ELin1EEENS_9TransposeIKS7_EELi0EEEKNS_14CwiseNullaryOpINS0_18scalar_constant_opIdEES9_EEEENS0_10IndexBasedESJ_ddEC2ERKSI_, symObjAddr: 0x43638, symBinAddr: 0x100046E28, symSize: 0x64 }
  - { offsetInCU: 0xDD39E, offset: 0xDD39E, size: 0x8, addend: 0x0, symName: __ZN5Eigen8internal14evaluator_baseINS_13CwiseBinaryOpINS0_18scalar_quotient_opIddEEKNS_7ProductINS_6MatrixIdLin1ELin1ELi0ELin1ELin1EEENS_9TransposeIKS7_EELi0EEEKNS_14CwiseNullaryOpINS0_18scalar_constant_opIdEES9_EEEEEC2Ev, symObjAddr: 0x4369C, symBinAddr: 0x100046E8C, symSize: 0x14 }
  - { offsetInCU: 0xDD3C8, offset: 0xDD3C8, size: 0x8, addend: 0x0, symName: __ZN5Eigen8internal16binary_evaluatorINS_13CwiseBinaryOpINS0_18scalar_quotient_opIddEEKNS_7ProductINS_6MatrixIdLin1ELin1ELi0ELin1ELin1EEENS_9TransposeIKS7_EELi0EEEKNS_14CwiseNullaryOpINS0_18scalar_constant_opIdEES9_EEEENS0_10IndexBasedESJ_ddE4DataC1ERKSI_, symObjAddr: 0x436B0, symBinAddr: 0x100046EA0, symSize: 0x34 }
  - { offsetInCU: 0xDD401, offset: 0xDD401, size: 0x8, addend: 0x0, symName: __ZN5Eigen8internal14evaluator_baseINS_13CwiseBinaryOpINS0_18scalar_quotient_opIddEEKNS_7ProductINS_6MatrixIdLin1ELin1ELi0ELin1ELin1EEENS_9TransposeIKS7_EELi0EEEKNS_14CwiseNullaryOpINS0_18scalar_constant_opIdEES9_EEEEED2Ev, symObjAddr: 0x436E4, symBinAddr: 0x100046ED4, symSize: 0x14 }
  - { offsetInCU: 0xDD42B, offset: 0xDD42B, size: 0x8, addend: 0x0, symName: __ZN5Eigen8internal16binary_evaluatorINS_13CwiseBinaryOpINS0_18scalar_quotient_opIddEEKNS_7ProductINS_6MatrixIdLin1ELin1ELi0ELin1ELin1EEENS_9TransposeIKS7_EELi0EEEKNS_14CwiseNullaryOpINS0_18scalar_constant_opIdEES9_EEEENS0_10IndexBasedESJ_ddE4DataC2ERKSI_, symObjAddr: 0x436F8, symBinAddr: 0x100046EE8, symSize: 0xA8 }
  - { offsetInCU: 0xDD464, offset: 0xDD464, size: 0x8, addend: 0x0, symName: __ZNK5Eigen13CwiseBinaryOpINS_8internal18scalar_quotient_opIddEEKNS_7ProductINS_6MatrixIdLin1ELin1ELi0ELin1ELin1EEENS_9TransposeIKS6_EELi0EEEKNS_14CwiseNullaryOpINS1_18scalar_constant_opIdEES8_EEE7functorEv, symObjAddr: 0x437A0, symBinAddr: 0x100046F90, symSize: 0x18 }
  - { offsetInCU: 0xDD48A, offset: 0xDD48A, size: 0x8, addend: 0x0, symName: __ZNK5Eigen13CwiseBinaryOpINS_8internal18scalar_quotient_opIddEEKNS_7ProductINS_6MatrixIdLin1ELin1ELi0ELin1ELin1EEENS_9TransposeIKS6_EELi0EEEKNS_14CwiseNullaryOpINS1_18scalar_constant_opIdEES8_EEE3lhsEv, symObjAddr: 0x437B8, symBinAddr: 0x100046FA8, symSize: 0x14 }
  - { offsetInCU: 0xDD4B0, offset: 0xDD4B0, size: 0x8, addend: 0x0, symName: __ZN5Eigen8internal9evaluatorIKNS_7ProductINS_6MatrixIdLin1ELin1ELi0ELin1ELin1EEENS_9TransposeIKS4_EELi0EEEEC1ERS9_, symObjAddr: 0x437CC, symBinAddr: 0x100046FBC, symSize: 0x34 }
  - { offsetInCU: 0xDD4E8, offset: 0xDD4E8, size: 0x8, addend: 0x0, symName: __ZNK5Eigen13CwiseBinaryOpINS_8internal18scalar_quotient_opIddEEKNS_7ProductINS_6MatrixIdLin1ELin1ELi0ELin1ELin1EEENS_9TransposeIKS6_EELi0EEEKNS_14CwiseNullaryOpINS1_18scalar_constant_opIdEES8_EEE3rhsEv, symObjAddr: 0x43800, symBinAddr: 0x100046FF0, symSize: 0x18 }
  - { offsetInCU: 0xDD50E, offset: 0xDD50E, size: 0x8, addend: 0x0, symName: __ZN5Eigen8internal9evaluatorIKNS_14CwiseNullaryOpINS0_18scalar_constant_opIdEEKNS_6MatrixIdLin1ELin1ELi0ELin1ELin1EEEEEEC1ERS9_, symObjAddr: 0x43818, symBinAddr: 0x100047008, symSize: 0x34 }
  - { offsetInCU: 0xDD546, offset: 0xDD546, size: 0x8, addend: 0x0, symName: __ZN5Eigen8internal9evaluatorIKNS_7ProductINS_6MatrixIdLin1ELin1ELi0ELin1ELin1EEENS_9TransposeIKS4_EELi0EEEED1Ev, symObjAddr: 0x4384C, symBinAddr: 0x10004703C, symSize: 0x2C }
  - { offsetInCU: 0xDD572, offset: 0xDD572, size: 0x8, addend: 0x0, symName: __ZN5Eigen8internal9evaluatorIKNS_7ProductINS_6MatrixIdLin1ELin1ELi0ELin1ELin1EEENS_9TransposeIKS4_EELi0EEEEC2ERS9_, symObjAddr: 0x43878, symBinAddr: 0x100047068, symSize: 0x34 }
  - { offsetInCU: 0xDD5AA, offset: 0xDD5AA, size: 0x8, addend: 0x0, symName: __ZN5Eigen8internal9evaluatorINS_7ProductINS_6MatrixIdLin1ELin1ELi0ELin1ELin1EEENS_9TransposeIKS4_EELi0EEEEC2ERKS8_, symObjAddr: 0x438AC, symBinAddr: 0x10004709C, symSize: 0x34 }
  - { offsetInCU: 0xDD5E2, offset: 0xDD5E2, size: 0x8, addend: 0x0, symName: __ZN5Eigen8internal17product_evaluatorINS_7ProductINS_6MatrixIdLin1ELin1ELi0ELin1ELin1EEENS_9TransposeIKS4_EELi0EEELi8ENS_10DenseShapeES9_ddEC2ERKS8_, symObjAddr: 0x438E0, symBinAddr: 0x1000470D0, symSize: 0x3EC }
  - { offsetInCU: 0xDD61C, offset: 0xDD61C, size: 0x8, addend: 0x0, symName: __ZN5Eigen8internal9evaluatorINS_6MatrixIdLin1ELin1ELi0ELin1ELin1EEEEC2Ev, symObjAddr: 0x43CCC, symBinAddr: 0x1000474BC, symSize: 0x2C }
  - { offsetInCU: 0xDD646, offset: 0xDD646, size: 0x8, addend: 0x0, symName: __ZN5Eigen6MatrixIdLin1ELin1ELi0ELin1ELin1EEC1IllEERKT_RKT0_, symObjAddr: 0x43CF8, symBinAddr: 0x1000474E8, symSize: 0x3C }
  - { offsetInCU: 0xDD6A0, offset: 0xDD6A0, size: 0x8, addend: 0x0, symName: __ZN5Eigen8internal20generic_product_implINS_6MatrixIdLin1ELin1ELi0ELin1ELin1EEENS_9TransposeIKS3_EENS_10DenseShapeES7_Li8EE6evalToIS3_EEvRT_RS5_RKS6_, symObjAddr: 0x43D34, symBinAddr: 0x100047524, symSize: 0x324 }
  - { offsetInCU: 0xDD6EE, offset: 0xDD6EE, size: 0x8, addend: 0x0, symName: __ZNK5Eigen7ProductINS_6MatrixIdLin1ELin1ELi0ELin1ELin1EEENS_9TransposeIKS2_EELi0EE3lhsEv, symObjAddr: 0x44058, symBinAddr: 0x100047848, symSize: 0x60 }
  - { offsetInCU: 0xDD714, offset: 0xDD714, size: 0x8, addend: 0x0, symName: __ZNK5Eigen7ProductINS_6MatrixIdLin1ELin1ELi0ELin1ELin1EEENS_9TransposeIKS2_EELi0EE3rhsEv, symObjAddr: 0x440B8, symBinAddr: 0x1000478A8, symSize: 0x18 }
  - { offsetInCU: 0xDD73A, offset: 0xDD73A, size: 0x8, addend: 0x0, symName: __ZN5Eigen8internal9evaluatorINS_15PlainObjectBaseINS_6MatrixIdLin1ELin1ELi0ELin1ELin1EEEEEEC2Ev, symObjAddr: 0x440D0, symBinAddr: 0x1000478C0, symSize: 0x64 }
  - { offsetInCU: 0xDD764, offset: 0xDD764, size: 0x8, addend: 0x0, symName: __ZN5Eigen6MatrixIdLin1ELin1ELi0ELin1ELin1EEC2IllEERKT_RKT0_, symObjAddr: 0x44134, symBinAddr: 0x100047924, symSize: 0xFC }
  - { offsetInCU: 0xDD7BE, offset: 0xDD7BE, size: 0x8, addend: 0x0, symName: __ZN5Eigen15PlainObjectBaseINS_6MatrixIdLin1ELin1ELi0ELin1ELin1EEEE6_init2IllEEvllPNS_8internal9enable_ifILb1ET_E4typeE, symObjAddr: 0x44230, symBinAddr: 0x100047A20, symSize: 0x44 }
  - { offsetInCU: 0xDD85D, offset: 0xDD85D, size: 0x8, addend: 0x0, symName: __ZN5Eigen8internal20generic_product_implINS_6MatrixIdLin1ELin1ELi0ELin1ELin1EEENS_9TransposeIKS3_EENS_10DenseShapeES7_Li3EE12eval_dynamicIS3_NS0_9assign_opIddEEEEvRT_RS5_RKS6_RKT0_, symObjAddr: 0x44274, symBinAddr: 0x100047A64, symSize: 0x314 }
  - { offsetInCU: 0xDD927, offset: 0xDD927, size: 0x8, addend: 0x0, symName: __ZN5Eigen9DenseBaseINS_6MatrixIdLin1ELin1ELi0ELin1ELin1EEEE7setZeroEv, symObjAddr: 0x44588, symBinAddr: 0x100047D78, symSize: 0x214 }
  - { offsetInCU: 0xDD987, offset: 0xDD987, size: 0x8, addend: 0x0, symName: __ZN5Eigen8internal20generic_product_implINS_6MatrixIdLin1ELin1ELi0ELin1ELin1EEENS_9TransposeIKS3_EENS_10DenseShapeES7_Li8EE13scaleAndAddToIS3_EEvRT_RS5_RKS6_RKd, symObjAddr: 0x4479C, symBinAddr: 0x100047F8C, symSize: 0x880 }
  - { offsetInCU: 0xDDAE2, offset: 0xDDAE2, size: 0x8, addend: 0x0, symName: __ZN5Eigen8internal20generic_product_implINS_6MatrixIdLin1ELin1ELi0ELin1ELin1EEENS_9TransposeIKS3_EENS_10DenseShapeES7_Li3EE17eval_dynamic_implIS3_S3_S6_NS0_9assign_opIddEEdEEvRT_RKT0_RKT1_RKT2_RKT3_NS0_10false_typeE, symObjAddr: 0x4501C, symBinAddr: 0x10004880C, symSize: 0x250 }
  - { offsetInCU: 0xDDB80, offset: 0xDDB80, size: 0x8, addend: 0x0, symName: __ZN5Eigen8internal11blas_traitsINS_6MatrixIdLin1ELin1ELi0ELin1ELin1EEEE7extractERKS3_, symObjAddr: 0x4526C, symBinAddr: 0x100048A5C, symSize: 0x14 }
  - { offsetInCU: 0xDDBA4, offset: 0xDDBA4, size: 0x8, addend: 0x0, symName: __ZNK5Eigen9DenseBaseINS_6MatrixIdLin1ELin1ELi0ELin1ELin1EEEE11conjugateIfILb0EEENS_8internal11conditionalIXT_ERKS2_S8_E4typeEv, symObjAddr: 0x45280, symBinAddr: 0x100048A70, symSize: 0x24 }
  - { offsetInCU: 0xDDBD4, offset: 0xDDBD4, size: 0x8, addend: 0x0, symName: __ZN5Eigen8internal11blas_traitsINS_9TransposeIKNS_6MatrixIdLin1ELin1ELi0ELin1ELin1EEEEEE7extractERKS6_, symObjAddr: 0x452A4, symBinAddr: 0x100048A94, symSize: 0x208 }
  - { offsetInCU: 0xDDBF9, offset: 0xDDBF9, size: 0x8, addend: 0x0, symName: __ZNK5Eigen9DenseBaseINS_9TransposeIKNS_6MatrixIdLin1ELin1ELi0ELin1ELin1EEEEEE11conjugateIfILb0EEENS_8internal11conditionalIXT_ERKS5_SB_E4typeEv, symObjAddr: 0x454AC, symBinAddr: 0x100048C9C, symSize: 0x24 }
  - { offsetInCU: 0xDDC29, offset: 0xDDC29, size: 0x8, addend: 0x0, symName: __ZN5Eigen8internal11blas_traitsINS_6MatrixIdLin1ELin1ELi0ELin1ELin1EEEE19extractScalarFactorERKS3_, symObjAddr: 0x454D0, symBinAddr: 0x100048CC0, symSize: 0x14 }
  - { offsetInCU: 0xDDC49, offset: 0xDDC49, size: 0x8, addend: 0x0, symName: __ZN5Eigen8internal11blas_traitsINS_9TransposeIKNS_6MatrixIdLin1ELin1ELi0ELin1ELin1EEEEEE19extractScalarFactorERKS6_, symObjAddr: 0x454E4, symBinAddr: 0x100048CD4, symSize: 0x28 }
  - { offsetInCU: 0xDDC6D, offset: 0xDDC6D, size: 0x8, addend: 0x0, symName: __ZNK5Eigen9TransposeIKNS_6MatrixIdLin1ELin1ELi0ELin1ELin1EEEE16nestedExpressionEv, symObjAddr: 0x4550C, symBinAddr: 0x100048CFC, symSize: 0x60 }
  - { offsetInCU: 0xDDC93, offset: 0xDDC93, size: 0x8, addend: 0x0, symName: __ZNK5Eigen10MatrixBaseINS_6MatrixIdLin1ELin1ELi0ELin1ELin1EEEE11lazyProductINS_9TransposeIKS2_EEEEKNS_7ProductIS2_T_Li1EEERKNS0_IS9_EE, symObjAddr: 0x459D8, symBinAddr: 0x1000491C8, symSize: 0x224 }
  - { offsetInCU: 0xDDCD5, offset: 0xDDCD5, size: 0x8, addend: 0x0, symName: __ZN5Eigen8internal9evaluatorINS_7ProductINS_6MatrixIdLin1ELin1ELi0ELin1ELin1EEENS_9TransposeIKS4_EELi1EEEEC1ERKS8_, symObjAddr: 0x45BFC, symBinAddr: 0x1000493EC, symSize: 0x34 }
  - { offsetInCU: 0xDDD0D, offset: 0xDDD0D, size: 0x8, addend: 0x0, symName: __ZN5Eigen8internal41restricted_packet_dense_assignment_kernelINS0_9evaluatorINS_6MatrixIdLin1ELin1ELi0ELin1ELin1EEEEENS2_INS_7ProductIS4_NS_9TransposeIKS4_EELi1EEEEENS0_9assign_opIddEEEC1ERS5_RKSB_RKSD_RS4_, symObjAddr: 0x45D2C, symBinAddr: 0x10004951C, symSize: 0x4C }
  - { offsetInCU: 0xDDD73, offset: 0xDDD73, size: 0x8, addend: 0x0, symName: __ZN5Eigen8internal9evaluatorINS_7ProductINS_6MatrixIdLin1ELin1ELi0ELin1ELin1EEENS_9TransposeIKS4_EELi1EEEED1Ev, symObjAddr: 0x4629C, symBinAddr: 0x100049A8C, symSize: 0x2C }
  - { offsetInCU: 0xDDD9F, offset: 0xDDD9F, size: 0x8, addend: 0x0, symName: __ZN5Eigen8internal9evaluatorINS_7ProductINS_6MatrixIdLin1ELin1ELi0ELin1ELin1EEENS_9TransposeIKS4_EELi1EEEEC2ERKS8_, symObjAddr: 0x462C8, symBinAddr: 0x100049AB8, symSize: 0x34 }
  - { offsetInCU: 0xDDDD7, offset: 0xDDDD7, size: 0x8, addend: 0x0, symName: __ZN5Eigen8internal17product_evaluatorINS_7ProductINS_6MatrixIdLin1ELin1ELi0ELin1ELin1EEENS_9TransposeIKS4_EELi1EEELi8ENS_10DenseShapeES9_ddEC2ERKS8_, symObjAddr: 0x462FC, symBinAddr: 0x100049AEC, symSize: 0x1D4 }
  - { offsetInCU: 0xDDE10, offset: 0xDDE10, size: 0x8, addend: 0x0, symName: __ZN5Eigen8internal14evaluator_baseINS_7ProductINS_6MatrixIdLin1ELin1ELi0ELin1ELin1EEENS_9TransposeIKS4_EELi1EEEEC2Ev, symObjAddr: 0x464D0, symBinAddr: 0x100049CC0, symSize: 0x14 }
  - { offsetInCU: 0xDDE3A, offset: 0xDDE3A, size: 0x8, addend: 0x0, symName: __ZNK5Eigen7ProductINS_6MatrixIdLin1ELin1ELi0ELin1ELin1EEENS_9TransposeIKS2_EELi1EE3lhsEv, symObjAddr: 0x464E4, symBinAddr: 0x100049CD4, symSize: 0x60 }
  - { offsetInCU: 0xDDE60, offset: 0xDDE60, size: 0x8, addend: 0x0, symName: __ZNK5Eigen7ProductINS_6MatrixIdLin1ELin1ELi0ELin1ELin1EEENS_9TransposeIKS2_EELi1EE3rhsEv, symObjAddr: 0x46544, symBinAddr: 0x100049D34, symSize: 0x18 }
  - { offsetInCU: 0xDDE86, offset: 0xDDE86, size: 0x8, addend: 0x0, symName: __ZN5Eigen8internal9evaluatorINS_9TransposeIKNS_6MatrixIdLin1ELin1ELi0ELin1ELin1EEEEEEC1ERKS6_, symObjAddr: 0x4655C, symBinAddr: 0x100049D4C, symSize: 0x34 }
  - { offsetInCU: 0xDDEBE, offset: 0xDDEBE, size: 0x8, addend: 0x0, symName: __ZN5Eigen8internal9evaluatorINS_9TransposeIKNS_6MatrixIdLin1ELin1ELi0ELin1ELin1EEEEEED1Ev, symObjAddr: 0x46590, symBinAddr: 0x100049D80, symSize: 0x2C }
  - { offsetInCU: 0xDDEEA, offset: 0xDDEEA, size: 0x8, addend: 0x0, symName: __ZN5Eigen8internal14evaluator_baseINS_7ProductINS_6MatrixIdLin1ELin1ELi0ELin1ELin1EEENS_9TransposeIKS4_EELi1EEEED2Ev, symObjAddr: 0x465BC, symBinAddr: 0x100049DAC, symSize: 0x14 }
  - { offsetInCU: 0xDDF14, offset: 0xDDF14, size: 0x8, addend: 0x0, symName: __ZN5Eigen8internal9evaluatorINS_9TransposeIKNS_6MatrixIdLin1ELin1ELi0ELin1ELin1EEEEEEC2ERKS6_, symObjAddr: 0x465D0, symBinAddr: 0x100049DC0, symSize: 0x34 }
  - { offsetInCU: 0xDDF4C, offset: 0xDDF4C, size: 0x8, addend: 0x0, symName: __ZN5Eigen8internal15unary_evaluatorINS_9TransposeIKNS_6MatrixIdLin1ELin1ELi0ELin1ELin1EEEEENS0_10IndexBasedEdEC2ERKS6_, symObjAddr: 0x46604, symBinAddr: 0x100049DF4, symSize: 0x6C }
  - { offsetInCU: 0xDDF85, offset: 0xDDF85, size: 0x8, addend: 0x0, symName: __ZN5Eigen8internal14evaluator_baseINS_9TransposeIKNS_6MatrixIdLin1ELin1ELi0ELin1ELin1EEEEEEC2Ev, symObjAddr: 0x46670, symBinAddr: 0x100049E60, symSize: 0x14 }
  - { offsetInCU: 0xDDFAF, offset: 0xDDFAF, size: 0x8, addend: 0x0, symName: __ZN5Eigen8internal14evaluator_baseINS_9TransposeIKNS_6MatrixIdLin1ELin1ELi0ELin1ELin1EEEEEED2Ev, symObjAddr: 0x46684, symBinAddr: 0x100049E74, symSize: 0x14 }
  - { offsetInCU: 0xDDFD9, offset: 0xDDFD9, size: 0x8, addend: 0x0, symName: __ZN5Eigen8internal9evaluatorINS_9TransposeIKNS_6MatrixIdLin1ELin1ELi0ELin1ELin1EEEEEED2Ev, symObjAddr: 0x46698, symBinAddr: 0x100049E88, symSize: 0x2C }
  - { offsetInCU: 0xDE005, offset: 0xDE005, size: 0x8, addend: 0x0, symName: __ZN5Eigen8internal15unary_evaluatorINS_9TransposeIKNS_6MatrixIdLin1ELin1ELi0ELin1ELin1EEEEENS0_10IndexBasedEdED2Ev, symObjAddr: 0x466C4, symBinAddr: 0x100049EB4, symSize: 0x34 }
  - { offsetInCU: 0xDE031, offset: 0xDE031, size: 0x8, addend: 0x0, symName: __ZNK5Eigen7ProductINS_6MatrixIdLin1ELin1ELi0ELin1ELin1EEENS_9TransposeIKS2_EELi1EE4rowsEv, symObjAddr: 0x466F8, symBinAddr: 0x100049EE8, symSize: 0x64 }
  - { offsetInCU: 0xDE057, offset: 0xDE057, size: 0x8, addend: 0x0, symName: __ZNK5Eigen7ProductINS_6MatrixIdLin1ELin1ELi0ELin1ELin1EEENS_9TransposeIKS2_EELi1EE4colsEv, symObjAddr: 0x4675C, symBinAddr: 0x100049F4C, symSize: 0x28 }
  - { offsetInCU: 0xDE07D, offset: 0xDE07D, size: 0x8, addend: 0x0, symName: __ZN5Eigen8internal41restricted_packet_dense_assignment_kernelINS0_9evaluatorINS_6MatrixIdLin1ELin1ELi0ELin1ELin1EEEEENS2_INS_7ProductIS4_NS_9TransposeIKS4_EELi1EEEEENS0_9assign_opIddEEEC2ERS5_RKSB_RKSD_RS4_, symObjAddr: 0x46784, symBinAddr: 0x100049F74, symSize: 0x4C }
  - { offsetInCU: 0xDE0E3, offset: 0xDE0E3, size: 0x8, addend: 0x0, symName: __ZN5Eigen8internal31generic_dense_assignment_kernelINS0_9evaluatorINS_6MatrixIdLin1ELin1ELi0ELin1ELin1EEEEENS2_INS_7ProductIS4_NS_9TransposeIKS4_EELi1EEEEENS0_9assign_opIddEELi1EEC2ERS5_RKSB_RKSD_RS4_, symObjAddr: 0x467D0, symBinAddr: 0x100049FC0, symSize: 0x14C }
  - { offsetInCU: 0xDE149, offset: 0xDE149, size: 0x8, addend: 0x0, symName: __ZNK5Eigen8internal31generic_dense_assignment_kernelINS0_9evaluatorINS_6MatrixIdLin1ELin1ELi0ELin1ELin1EEEEENS2_INS_7ProductIS4_NS_9TransposeIKS4_EELi1EEEEENS0_9assign_opIddEELi1EE10dstDataPtrEv, symObjAddr: 0x4691C, symBinAddr: 0x10004A10C, symSize: 0x68 }
  - { offsetInCU: 0xDE16F, offset: 0xDE16F, size: 0x8, addend: 0x0, symName: __ZNK5Eigen8internal31generic_dense_assignment_kernelINS0_9evaluatorINS_6MatrixIdLin1ELin1ELi0ELin1ELin1EEEEENS2_INS_7ProductIS4_NS_9TransposeIKS4_EELi1EEEEENS0_9assign_opIddEELi1EE9innerSizeEv, symObjAddr: 0x46984, symBinAddr: 0x10004A174, symSize: 0x68 }
  - { offsetInCU: 0xDE195, offset: 0xDE195, size: 0x8, addend: 0x0, symName: __ZNK5Eigen8internal31generic_dense_assignment_kernelINS0_9evaluatorINS_6MatrixIdLin1ELin1ELi0ELin1ELin1EEEEENS2_INS_7ProductIS4_NS_9TransposeIKS4_EELi1EEEEENS0_9assign_opIddEELi1EE9outerSizeEv, symObjAddr: 0x469EC, symBinAddr: 0x10004A1DC, symSize: 0x84 }
  - { offsetInCU: 0xDE1BB, offset: 0xDE1BB, size: 0x8, addend: 0x0, symName: __ZNK5Eigen8internal31generic_dense_assignment_kernelINS0_9evaluatorINS_6MatrixIdLin1ELin1ELi0ELin1ELin1EEEEENS2_INS_7ProductIS4_NS_9TransposeIKS4_EELi1EEEEENS0_9assign_opIddEELi1EE11outerStrideEv, symObjAddr: 0x46A70, symBinAddr: 0x10004A260, symSize: 0x68 }
  - { offsetInCU: 0xDE1E1, offset: 0xDE1E1, size: 0x8, addend: 0x0, symName: __ZN5Eigen8internal31generic_dense_assignment_kernelINS0_9evaluatorINS_6MatrixIdLin1ELin1ELi0ELin1ELin1EEEEENS2_INS_7ProductIS4_NS_9TransposeIKS4_EELi1EEEEENS0_9assign_opIddEELi1EE23assignCoeffByOuterInnerEll, symObjAddr: 0x46AD8, symBinAddr: 0x10004A2C8, symSize: 0x60 }
  - { offsetInCU: 0xDE243, offset: 0xDE243, size: 0x8, addend: 0x0, symName: __ZN5Eigen8internal31generic_dense_assignment_kernelINS0_9evaluatorINS_6MatrixIdLin1ELin1ELi0ELin1ELin1EEEEENS2_INS_7ProductIS4_NS_9TransposeIKS4_EELi1EEEEENS0_9assign_opIddEELi1EE24assignPacketByOuterInnerILi16ELi0E19__simd128_float64_tEEvll, symObjAddr: 0x46B38, symBinAddr: 0x10004A328, symSize: 0x60 }
  - { offsetInCU: 0xDE2C2, offset: 0xDE2C2, size: 0x8, addend: 0x0, symName: __ZNK5Eigen9DenseBaseINS_6MatrixIdLin1ELin1ELi0ELin1ELin1EEEE9outerSizeEv, symObjAddr: 0x46B98, symBinAddr: 0x10004A388, symSize: 0x24 }
  - { offsetInCU: 0xDE2E8, offset: 0xDE2E8, size: 0x8, addend: 0x0, symName: __ZN5Eigen8internal31generic_dense_assignment_kernelINS0_9evaluatorINS_6MatrixIdLin1ELin1ELi0ELin1ELin1EEEEENS2_INS_7ProductIS4_NS_9TransposeIKS4_EELi1EEEEENS0_9assign_opIddEELi1EE20rowIndexByOuterInnerEll, symObjAddr: 0x46BBC, symBinAddr: 0x10004A3AC, symSize: 0x18 }
  - { offsetInCU: 0xDE31B, offset: 0xDE31B, size: 0x8, addend: 0x0, symName: __ZN5Eigen8internal31generic_dense_assignment_kernelINS0_9evaluatorINS_6MatrixIdLin1ELin1ELi0ELin1ELin1EEEEENS2_INS_7ProductIS4_NS_9TransposeIKS4_EELi1EEEEENS0_9assign_opIddEELi1EE20colIndexByOuterInnerEll, symObjAddr: 0x46BD4, symBinAddr: 0x10004A3C4, symSize: 0x18 }
  - { offsetInCU: 0xDE34E, offset: 0xDE34E, size: 0x8, addend: 0x0, symName: __ZN5Eigen8internal31generic_dense_assignment_kernelINS0_9evaluatorINS_6MatrixIdLin1ELin1ELi0ELin1ELin1EEEEENS2_INS_7ProductIS4_NS_9TransposeIKS4_EELi1EEEEENS0_9assign_opIddEELi1EE11assignCoeffEll, symObjAddr: 0x46BEC, symBinAddr: 0x10004A3DC, symSize: 0x2EC }
  - { offsetInCU: 0xDE395, offset: 0xDE395, size: 0x8, addend: 0x0, symName: __ZN5Eigen8internal9evaluatorINS_15PlainObjectBaseINS_6MatrixIdLin1ELin1ELi0ELin1ELin1EEEEEE8coeffRefEll, symObjAddr: 0x46ED8, symBinAddr: 0x10004A6C8, symSize: 0x98 }
  - { offsetInCU: 0xDE3D7, offset: 0xDE3D7, size: 0x8, addend: 0x0, symName: __ZNK5Eigen8internal17product_evaluatorINS_7ProductINS_6MatrixIdLin1ELin1ELi0ELin1ELin1EEENS_9TransposeIKS4_EELi1EEELi8ENS_10DenseShapeES9_ddE5coeffEll, symObjAddr: 0x46F70, symBinAddr: 0x10004A760, symSize: 0x3E8 }
  - { offsetInCU: 0xDE41E, offset: 0xDE41E, size: 0x8, addend: 0x0, symName: __ZNK5Eigen9DenseBaseINS_6MatrixIdLin1ELin1ELi0ELin1ELin1EEEE3rowEl, symObjAddr: 0x47358, symBinAddr: 0x10004AB48, symSize: 0x3C }
  - { offsetInCU: 0xDE453, offset: 0xDE453, size: 0x8, addend: 0x0, symName: __ZNK5Eigen9DenseBaseINS_5BlockIKNS_6MatrixIdLin1ELin1ELi0ELin1ELin1EEELi1ELin1ELb0EEEE9transposeEv, symObjAddr: 0x47394, symBinAddr: 0x10004AB84, symSize: 0x34 }
  - { offsetInCU: 0xDE47B, offset: 0xDE47B, size: 0x8, addend: 0x0, symName: __ZNK5Eigen10MatrixBaseINS_9TransposeIKNS_5BlockIKNS_6MatrixIdLin1ELin1ELi0ELin1ELin1EEELi1ELin1ELb0EEEEEE12cwiseProductINS2_IKNS1_IS5_EELin1ELi1ELb0EEEEEKNS_13CwiseBinaryOpINS_8internal17scalar_product_opIdNSF_6traitsIT_E6ScalarEEEKS8_KSI_EERKNS0_ISI_EE, symObjAddr: 0x473C8, symBinAddr: 0x10004ABB8, symSize: 0x214 }
  - { offsetInCU: 0xDE4BA, offset: 0xDE4BA, size: 0x8, addend: 0x0, symName: __ZNK5Eigen9DenseBaseINS_9TransposeIKNS_6MatrixIdLin1ELin1ELi0ELin1ELin1EEEEEE3colEl, symObjAddr: 0x475DC, symBinAddr: 0x10004ADCC, symSize: 0x3C }
  - { offsetInCU: 0xDE4EF, offset: 0xDE4EF, size: 0x8, addend: 0x0, symName: __ZNK5Eigen9DenseBaseINS_13CwiseBinaryOpINS_8internal17scalar_product_opIddEEKNS_9TransposeIKNS_5BlockIKNS_6MatrixIdLin1ELin1ELi0ELin1ELin1EEELi1ELin1ELb0EEEEEKNS6_IKNS5_IS9_EELin1ELi1ELb0EEEEEE3sumEv, symObjAddr: 0x47618, symBinAddr: 0x10004AE08, symSize: 0x230 }
  - { offsetInCU: 0xDE519, offset: 0xDE519, size: 0x8, addend: 0x0, symName: __ZN5Eigen5BlockIKNS_6MatrixIdLin1ELin1ELi0ELin1ELin1EEELi1ELin1ELb0EEC1ERS3_l, symObjAddr: 0x47848, symBinAddr: 0x10004B038, symSize: 0x3C }
  - { offsetInCU: 0xDE55F, offset: 0xDE55F, size: 0x8, addend: 0x0, symName: __ZN5Eigen5BlockIKNS_6MatrixIdLin1ELin1ELi0ELin1ELin1EEELi1ELin1ELb0EEC2ERS3_l, symObjAddr: 0x47884, symBinAddr: 0x10004B074, symSize: 0xD0 }
  - { offsetInCU: 0xDE5A5, offset: 0xDE5A5, size: 0x8, addend: 0x0, symName: __ZN5Eigen9BlockImplIKNS_6MatrixIdLin1ELin1ELi0ELin1ELin1EEELi1ELin1ELb0ENS_5DenseEEC2ERS3_l, symObjAddr: 0x47954, symBinAddr: 0x10004B144, symSize: 0x3C }
  - { offsetInCU: 0xDE5EB, offset: 0xDE5EB, size: 0x8, addend: 0x0, symName: __ZN5Eigen8internal15BlockImpl_denseIKNS_6MatrixIdLin1ELin1ELi0ELin1ELin1EEELi1ELin1ELb0ELb1EEC2ERS4_l, symObjAddr: 0x47990, symBinAddr: 0x10004B180, symSize: 0xF8 }
  - { offsetInCU: 0xDE633, offset: 0xDE633, size: 0x8, addend: 0x0, symName: __ZN5Eigen7MapBaseINS_5BlockIKNS_6MatrixIdLin1ELin1ELi0ELin1ELin1EEELi1ELin1ELb0EEELi0EEC2EPKdll, symObjAddr: 0x47A88, symBinAddr: 0x10004B278, symSize: 0x17C }
  - { offsetInCU: 0xDE687, offset: 0xDE687, size: 0x8, addend: 0x0, symName: __ZN5Eigen8internal15BlockImpl_denseIKNS_6MatrixIdLin1ELin1ELi0ELin1ELin1EEELi1ELin1ELb0ELb1EE4initEv, symObjAddr: 0x47C04, symBinAddr: 0x10004B3F4, symSize: 0xB0 }
  - { offsetInCU: 0xDE6AD, offset: 0xDE6AD, size: 0x8, addend: 0x0, symName: __ZN5Eigen10MatrixBaseINS_5BlockIKNS_6MatrixIdLin1ELin1ELi0ELin1ELin1EEELi1ELin1ELb0EEEEC2Ev, symObjAddr: 0x47CB4, symBinAddr: 0x10004B4A4, symSize: 0x2C }
  - { offsetInCU: 0xDE6D7, offset: 0xDE6D7, size: 0x8, addend: 0x0, symName: __ZNK5Eigen7MapBaseINS_5BlockIKNS_6MatrixIdLin1ELin1ELi0ELin1ELin1EEELi1ELin1ELb0EEELi0EE11checkSanityIS5_EEvNS_8internal9enable_ifIXeqsr8internal6traitsIT_EE9AlignmentLi0EEPvE4typeE, symObjAddr: 0x47CE0, symBinAddr: 0x10004B4D0, symSize: 0x14 }
  - { offsetInCU: 0xDE710, offset: 0xDE710, size: 0x8, addend: 0x0, symName: __ZN5Eigen9DenseBaseINS_5BlockIKNS_6MatrixIdLin1ELin1ELi0ELin1ELin1EEELi1ELin1ELb0EEEEC2Ev, symObjAddr: 0x47CF4, symBinAddr: 0x10004B4E4, symSize: 0x14 }
  - { offsetInCU: 0xDE73A, offset: 0xDE73A, size: 0x8, addend: 0x0, symName: __ZNK5Eigen9EigenBaseINS_5BlockIKNS_6MatrixIdLin1ELin1ELi0ELin1ELin1EEELi1ELin1ELb0EEEE7derivedEv, symObjAddr: 0x47D08, symBinAddr: 0x10004B4F8, symSize: 0x14 }
  - { offsetInCU: 0xDE760, offset: 0xDE760, size: 0x8, addend: 0x0, symName: __ZN5Eigen9TransposeIKNS_5BlockIKNS_6MatrixIdLin1ELin1ELi0ELin1ELin1EEELi1ELin1ELb0EEEEC1ERS6_, symObjAddr: 0x47D1C, symBinAddr: 0x10004B50C, symSize: 0x34 }
  - { offsetInCU: 0xDE798, offset: 0xDE798, size: 0x8, addend: 0x0, symName: __ZN5Eigen9TransposeIKNS_5BlockIKNS_6MatrixIdLin1ELin1ELi0ELin1ELin1EEELi1ELin1ELb0EEEEC2ERS6_, symObjAddr: 0x47D50, symBinAddr: 0x10004B540, symSize: 0x40 }
  - { offsetInCU: 0xDE7D0, offset: 0xDE7D0, size: 0x8, addend: 0x0, symName: __ZN5Eigen13TransposeImplIKNS_5BlockIKNS_6MatrixIdLin1ELin1ELi0ELin1ELin1EEELi1ELin1ELb0EEENS_5DenseEEC2Ev, symObjAddr: 0x47D90, symBinAddr: 0x10004B580, symSize: 0x2C }
  - { offsetInCU: 0xDE7FA, offset: 0xDE7FA, size: 0x8, addend: 0x0, symName: __ZN5Eigen10MatrixBaseINS_9TransposeIKNS_5BlockIKNS_6MatrixIdLin1ELin1ELi0ELin1ELin1EEELi1ELin1ELb0EEEEEEC2Ev, symObjAddr: 0x47DBC, symBinAddr: 0x10004B5AC, symSize: 0x2C }
  - { offsetInCU: 0xDE824, offset: 0xDE824, size: 0x8, addend: 0x0, symName: __ZN5Eigen9DenseBaseINS_9TransposeIKNS_5BlockIKNS_6MatrixIdLin1ELin1ELi0ELin1ELin1EEELi1ELin1ELb0EEEEEEC2Ev, symObjAddr: 0x47DE8, symBinAddr: 0x10004B5D8, symSize: 0x14 }
  - { offsetInCU: 0xDE84E, offset: 0xDE84E, size: 0x8, addend: 0x0, symName: __ZNK5Eigen9EigenBaseINS_9TransposeIKNS_5BlockIKNS_6MatrixIdLin1ELin1ELi0ELin1ELin1EEELi1ELin1ELb0EEEEEE7derivedEv, symObjAddr: 0x47DFC, symBinAddr: 0x10004B5EC, symSize: 0x14 }
  - { offsetInCU: 0xDE874, offset: 0xDE874, size: 0x8, addend: 0x0, symName: __ZNK5Eigen9EigenBaseINS_5BlockIKNS_9TransposeIKNS_6MatrixIdLin1ELin1ELi0ELin1ELin1EEEEELin1ELi1ELb0EEEE7derivedEv, symObjAddr: 0x47E10, symBinAddr: 0x10004B600, symSize: 0x14 }
  - { offsetInCU: 0xDE89A, offset: 0xDE89A, size: 0x8, addend: 0x0, symName: __ZN5Eigen8internal17scalar_product_opIddEC1Ev, symObjAddr: 0x47E24, symBinAddr: 0x10004B614, symSize: 0x2C }
  - { offsetInCU: 0xDE8C4, offset: 0xDE8C4, size: 0x8, addend: 0x0, symName: __ZN5Eigen13CwiseBinaryOpINS_8internal17scalar_product_opIddEEKNS_9TransposeIKNS_5BlockIKNS_6MatrixIdLin1ELin1ELi0ELin1ELin1EEELi1ELin1ELb0EEEEEKNS5_IKNS4_IS8_EELin1ELi1ELb0EEEEC1ERSC_RSG_RKS3_, symObjAddr: 0x47E50, symBinAddr: 0x10004B640, symSize: 0x44 }
  - { offsetInCU: 0xDE918, offset: 0xDE918, size: 0x8, addend: 0x0, symName: __ZN5Eigen8internal17scalar_product_opIddEC2Ev, symObjAddr: 0x47E94, symBinAddr: 0x10004B684, symSize: 0x14 }
  - { offsetInCU: 0xDE942, offset: 0xDE942, size: 0x8, addend: 0x0, symName: __ZN5Eigen13CwiseBinaryOpINS_8internal17scalar_product_opIddEEKNS_9TransposeIKNS_5BlockIKNS_6MatrixIdLin1ELin1ELi0ELin1ELin1EEELi1ELin1ELb0EEEEEKNS5_IKNS4_IS8_EELin1ELi1ELb0EEEEC2ERSC_RSG_RKS3_, symObjAddr: 0x47EA8, symBinAddr: 0x10004B698, symSize: 0x108 }
  - { offsetInCU: 0xDE99B, offset: 0xDE99B, size: 0x8, addend: 0x0, symName: __ZN5Eigen17CwiseBinaryOpImplINS_8internal17scalar_product_opIddEEKNS_9TransposeIKNS_5BlockIKNS_6MatrixIdLin1ELin1ELi0ELin1ELin1EEELi1ELin1ELb0EEEEEKNS5_IKNS4_IS8_EELin1ELi1ELb0EEENS_5DenseEEC2Ev, symObjAddr: 0x47FB0, symBinAddr: 0x10004B7A0, symSize: 0x2C }
  - { offsetInCU: 0xDE9C7, offset: 0xDE9C7, size: 0x8, addend: 0x0, symName: __ZN5Eigen8internal17scalar_product_opIddEC1ERKS2_, symObjAddr: 0x47FDC, symBinAddr: 0x10004B7CC, symSize: 0x34 }
  - { offsetInCU: 0xDE9FB, offset: 0xDE9FB, size: 0x8, addend: 0x0, symName: __ZNK5Eigen9TransposeIKNS_5BlockIKNS_6MatrixIdLin1ELin1ELi0ELin1ELin1EEELi1ELin1ELb0EEEE4rowsEv, symObjAddr: 0x48010, symBinAddr: 0x10004B800, symSize: 0x24 }
  - { offsetInCU: 0xDEA21, offset: 0xDEA21, size: 0x8, addend: 0x0, symName: __ZNK5Eigen7MapBaseINS_5BlockIKNS_9TransposeIKNS_6MatrixIdLin1ELin1ELi0ELin1ELin1EEEEELin1ELi1ELb0EEELi0EE4rowsEv, symObjAddr: 0x48034, symBinAddr: 0x10004B824, symSize: 0x28 }
  - { offsetInCU: 0xDEA47, offset: 0xDEA47, size: 0x8, addend: 0x0, symName: __ZNK5Eigen9TransposeIKNS_5BlockIKNS_6MatrixIdLin1ELin1ELi0ELin1ELin1EEELi1ELin1ELb0EEEE4colsEv, symObjAddr: 0x4805C, symBinAddr: 0x10004B84C, symSize: 0x24 }
  - { offsetInCU: 0xDEA6D, offset: 0xDEA6D, size: 0x8, addend: 0x0, symName: __ZNK5Eigen7MapBaseINS_5BlockIKNS_9TransposeIKNS_6MatrixIdLin1ELin1ELi0ELin1ELin1EEEEELin1ELi1ELb0EEELi0EE4colsEv, symObjAddr: 0x48080, symBinAddr: 0x10004B870, symSize: 0x20 }
  - { offsetInCU: 0xDEA93, offset: 0xDEA93, size: 0x8, addend: 0x0, symName: __ZN5Eigen10MatrixBaseINS_13CwiseBinaryOpINS_8internal17scalar_product_opIddEEKNS_9TransposeIKNS_5BlockIKNS_6MatrixIdLin1ELin1ELi0ELin1ELin1EEELi1ELin1ELb0EEEEEKNS6_IKNS5_IS9_EELin1ELi1ELb0EEEEEEC2Ev, symObjAddr: 0x480A0, symBinAddr: 0x10004B890, symSize: 0x2C }
  - { offsetInCU: 0xDEABD, offset: 0xDEABD, size: 0x8, addend: 0x0, symName: __ZN5Eigen9DenseBaseINS_13CwiseBinaryOpINS_8internal17scalar_product_opIddEEKNS_9TransposeIKNS_5BlockIKNS_6MatrixIdLin1ELin1ELi0ELin1ELin1EEELi1ELin1ELb0EEEEEKNS6_IKNS5_IS9_EELin1ELi1ELb0EEEEEEC2Ev, symObjAddr: 0x480CC, symBinAddr: 0x10004B8BC, symSize: 0x14 }
  - { offsetInCU: 0xDEAE7, offset: 0xDEAE7, size: 0x8, addend: 0x0, symName: __ZN5Eigen8internal17scalar_product_opIddEC2ERKS2_, symObjAddr: 0x480E0, symBinAddr: 0x10004B8D0, symSize: 0x18 }
  - { offsetInCU: 0xDEB1B, offset: 0xDEB1B, size: 0x8, addend: 0x0, symName: __ZNK5Eigen7MapBaseINS_5BlockIKNS_6MatrixIdLin1ELin1ELi0ELin1ELin1EEELi1ELin1ELb0EEELi0EE4colsEv, symObjAddr: 0x480F8, symBinAddr: 0x10004B8E8, symSize: 0x28 }
  - { offsetInCU: 0xDEB41, offset: 0xDEB41, size: 0x8, addend: 0x0, symName: __ZNK5Eigen7MapBaseINS_5BlockIKNS_6MatrixIdLin1ELin1ELi0ELin1ELin1EEELi1ELin1ELb0EEELi0EE4rowsEv, symObjAddr: 0x48120, symBinAddr: 0x10004B910, symSize: 0x20 }
  - { offsetInCU: 0xDEB67, offset: 0xDEB67, size: 0x8, addend: 0x0, symName: __ZN5Eigen5BlockIKNS_9TransposeIKNS_6MatrixIdLin1ELin1ELi0ELin1ELin1EEEEELin1ELi1ELb0EEC1ERS6_l, symObjAddr: 0x48140, symBinAddr: 0x10004B930, symSize: 0x3C }
  - { offsetInCU: 0xDEBAD, offset: 0xDEBAD, size: 0x8, addend: 0x0, symName: __ZN5Eigen5BlockIKNS_9TransposeIKNS_6MatrixIdLin1ELin1ELi0ELin1ELin1EEEEELin1ELi1ELb0EEC2ERS6_l, symObjAddr: 0x4817C, symBinAddr: 0x10004B96C, symSize: 0xB0 }
  - { offsetInCU: 0xDEBF3, offset: 0xDEBF3, size: 0x8, addend: 0x0, symName: __ZN5Eigen9BlockImplIKNS_9TransposeIKNS_6MatrixIdLin1ELin1ELi0ELin1ELin1EEEEELin1ELi1ELb0ENS_5DenseEEC2ERS6_l, symObjAddr: 0x4822C, symBinAddr: 0x10004BA1C, symSize: 0x3C }
  - { offsetInCU: 0xDEC39, offset: 0xDEC39, size: 0x8, addend: 0x0, symName: __ZN5Eigen8internal15BlockImpl_denseIKNS_9TransposeIKNS_6MatrixIdLin1ELin1ELi0ELin1ELin1EEEEELin1ELi1ELb0ELb1EEC2ERS7_l, symObjAddr: 0x48268, symBinAddr: 0x10004BA58, symSize: 0xB8 }
  - { offsetInCU: 0xDEC81, offset: 0xDEC81, size: 0x8, addend: 0x0, symName: __ZNK5Eigen13TransposeImplIKNS_6MatrixIdLin1ELin1ELi0ELin1ELin1EEENS_5DenseEE4dataEv, symObjAddr: 0x48320, symBinAddr: 0x10004BB10, symSize: 0x2C }
  - { offsetInCU: 0xDECA7, offset: 0xDECA7, size: 0x8, addend: 0x0, symName: __ZNK5Eigen13TransposeImplIKNS_6MatrixIdLin1ELin1ELi0ELin1ELin1EEENS_5DenseEE11innerStrideEv, symObjAddr: 0x4834C, symBinAddr: 0x10004BB3C, symSize: 0x2C }
  - { offsetInCU: 0xDECCD, offset: 0xDECCD, size: 0x8, addend: 0x0, symName: __ZN5Eigen7MapBaseINS_5BlockIKNS_9TransposeIKNS_6MatrixIdLin1ELin1ELi0ELin1ELin1EEEEELin1ELi1ELb0EEELi0EEC2EPKdll, symObjAddr: 0x48378, symBinAddr: 0x10004BB68, symSize: 0x168 }
  - { offsetInCU: 0xDED21, offset: 0xDED21, size: 0x8, addend: 0x0, symName: __ZN5Eigen8internal15BlockImpl_denseIKNS_9TransposeIKNS_6MatrixIdLin1ELin1ELi0ELin1ELin1EEEEELin1ELi1ELb0ELb1EE4initEv, symObjAddr: 0x484E0, symBinAddr: 0x10004BCD0, symSize: 0x80 }
  - { offsetInCU: 0xDED47, offset: 0xDED47, size: 0x8, addend: 0x0, symName: __ZN5Eigen10MatrixBaseINS_5BlockIKNS_9TransposeIKNS_6MatrixIdLin1ELin1ELi0ELin1ELin1EEEEELin1ELi1ELb0EEEEC2Ev, symObjAddr: 0x48560, symBinAddr: 0x10004BD50, symSize: 0x2C }
  - { offsetInCU: 0xDED71, offset: 0xDED71, size: 0x8, addend: 0x0, symName: __ZNK5Eigen7MapBaseINS_5BlockIKNS_9TransposeIKNS_6MatrixIdLin1ELin1ELi0ELin1ELin1EEEEELin1ELi1ELb0EEELi0EE11checkSanityIS8_EEvNS_8internal9enable_ifIXeqsr8internal6traitsIT_EE9AlignmentLi0EEPvE4typeE, symObjAddr: 0x4858C, symBinAddr: 0x10004BD7C, symSize: 0x14 }
  - { offsetInCU: 0xDEDAA, offset: 0xDEDAA, size: 0x8, addend: 0x0, symName: __ZN5Eigen9DenseBaseINS_5BlockIKNS_9TransposeIKNS_6MatrixIdLin1ELin1ELi0ELin1ELin1EEEEELin1ELi1ELb0EEEEC2Ev, symObjAddr: 0x485A0, symBinAddr: 0x10004BD90, symSize: 0x14 }
  - { offsetInCU: 0xDEDD4, offset: 0xDEDD4, size: 0x8, addend: 0x0, symName: __ZNK5Eigen9EigenBaseINS_13CwiseBinaryOpINS_8internal17scalar_product_opIddEEKNS_9TransposeIKNS_5BlockIKNS_6MatrixIdLin1ELin1ELi0ELin1ELin1EEELi1ELin1ELb0EEEEEKNS6_IKNS5_IS9_EELin1ELi1ELb0EEEEEE4sizeEv, symObjAddr: 0x485B4, symBinAddr: 0x10004BDA4, symSize: 0x44 }
  - { offsetInCU: 0xDEDFA, offset: 0xDEDFA, size: 0x8, addend: 0x0, symName: __ZNK5Eigen9EigenBaseINS_13CwiseBinaryOpINS_8internal17scalar_product_opIddEEKNS_9TransposeIKNS_5BlockIKNS_6MatrixIdLin1ELin1ELi0ELin1ELin1EEELi1ELin1ELb0EEEEEKNS6_IKNS5_IS9_EELin1ELi1ELb0EEEEEE7derivedEv, symObjAddr: 0x485F8, symBinAddr: 0x10004BDE8, symSize: 0x14 }
  - { offsetInCU: 0xDEE20, offset: 0xDEE20, size: 0x8, addend: 0x0, symName: __ZNK5Eigen9DenseBaseINS_13CwiseBinaryOpINS_8internal17scalar_product_opIddEEKNS_9TransposeIKNS_5BlockIKNS_6MatrixIdLin1ELin1ELi0ELin1ELin1EEELi1ELin1ELb0EEEEEKNS6_IKNS5_IS9_EELin1ELi1ELb0EEEEEE5reduxINS2_13scalar_sum_opIddEEEEdRKT_, symObjAddr: 0x4860C, symBinAddr: 0x10004BDFC, symSize: 0x3AC }
  - { offsetInCU: 0xDEE82, offset: 0xDEE82, size: 0x8, addend: 0x0, symName: __ZNK5Eigen9EigenBaseINS_13CwiseBinaryOpINS_8internal17scalar_product_opIddEEKNS_9TransposeIKNS_5BlockIKNS_6MatrixIdLin1ELin1ELi0ELin1ELin1EEELi1ELin1ELb0EEEEEKNS6_IKNS5_IS9_EELin1ELi1ELb0EEEEEE4rowsEv, symObjAddr: 0x489B8, symBinAddr: 0x10004C1A8, symSize: 0x44 }
  - { offsetInCU: 0xDEEA8, offset: 0xDEEA8, size: 0x8, addend: 0x0, symName: __ZNK5Eigen9EigenBaseINS_13CwiseBinaryOpINS_8internal17scalar_product_opIddEEKNS_9TransposeIKNS_5BlockIKNS_6MatrixIdLin1ELin1ELi0ELin1ELin1EEELi1ELin1ELb0EEEEEKNS6_IKNS5_IS9_EELin1ELi1ELb0EEEEEE4colsEv, symObjAddr: 0x489FC, symBinAddr: 0x10004C1EC, symSize: 0x44 }
  - { offsetInCU: 0xDEECE, offset: 0xDEECE, size: 0x8, addend: 0x0, symName: __ZNK5Eigen13CwiseBinaryOpINS_8internal17scalar_product_opIddEEKNS_9TransposeIKNS_5BlockIKNS_6MatrixIdLin1ELin1ELi0ELin1ELin1EEELi1ELin1ELb0EEEEEKNS5_IKNS4_IS8_EELin1ELi1ELb0EEEE4rowsEv, symObjAddr: 0x48A40, symBinAddr: 0x10004C230, symSize: 0x28 }
  - { offsetInCU: 0xDEEF4, offset: 0xDEEF4, size: 0x8, addend: 0x0, symName: __ZNK5Eigen13CwiseBinaryOpINS_8internal17scalar_product_opIddEEKNS_9TransposeIKNS_5BlockIKNS_6MatrixIdLin1ELin1ELi0ELin1ELin1EEELi1ELin1ELb0EEEEEKNS5_IKNS4_IS8_EELin1ELi1ELb0EEEE4colsEv, symObjAddr: 0x48A68, symBinAddr: 0x10004C258, symSize: 0x24 }
  - { offsetInCU: 0xDEFFB, offset: 0xDEFFB, size: 0x8, addend: 0x0, symName: __ZN5Eigen8internal15redux_evaluatorINS_13CwiseBinaryOpINS0_17scalar_product_opIddEEKNS_9TransposeIKNS_5BlockIKNS_6MatrixIdLin1ELin1ELi0ELin1ELin1EEELi1ELin1ELb0EEEEEKNS6_IKNS5_IS9_EELin1ELi1ELb0EEEEEEC1ERKSI_, symObjAddr: 0x48A8C, symBinAddr: 0x10004C27C, symSize: 0x34 }
  - { offsetInCU: 0xDF039, offset: 0xDF039, size: 0x8, addend: 0x0, symName: __ZN5Eigen8internal10redux_implINS0_13scalar_sum_opIddEENS0_15redux_evaluatorINS_13CwiseBinaryOpINS0_17scalar_product_opIddEEKNS_9TransposeIKNS_5BlockIKNS_6MatrixIdLin1ELin1ELi0ELin1ELin1EEELi1ELin1ELb0EEEEEKNS9_IKNS8_ISC_EELin1ELi1ELb0EEEEEEELi0ELi0EE3runISL_EEdRKSM_RKS3_RKT_, symObjAddr: 0x48AC0, symBinAddr: 0x10004C2B0, symSize: 0x594 }
  - { offsetInCU: 0xDF0ED, offset: 0xDF0ED, size: 0x8, addend: 0x0, symName: __ZN5Eigen8internal15redux_evaluatorINS_13CwiseBinaryOpINS0_17scalar_product_opIddEEKNS_9TransposeIKNS_5BlockIKNS_6MatrixIdLin1ELin1ELi0ELin1ELin1EEELi1ELin1ELb0EEEEEKNS6_IKNS5_IS9_EELin1ELi1ELb0EEEEEED1Ev, symObjAddr: 0x49054, symBinAddr: 0x10004C844, symSize: 0x2C }
  - { offsetInCU: 0xDF11A, offset: 0xDF11A, size: 0x8, addend: 0x0, symName: __ZN5Eigen8internal15redux_evaluatorINS_13CwiseBinaryOpINS0_17scalar_product_opIddEEKNS_9TransposeIKNS_5BlockIKNS_6MatrixIdLin1ELin1ELi0ELin1ELin1EEELi1ELin1ELb0EEEEEKNS6_IKNS5_IS9_EELin1ELi1ELb0EEEEEEC2ERKSI_, symObjAddr: 0x49080, symBinAddr: 0x10004C870, symSize: 0x34 }
  - { offsetInCU: 0xDF153, offset: 0xDF153, size: 0x8, addend: 0x0, symName: __ZN5Eigen8internal9evaluatorINS_13CwiseBinaryOpINS0_17scalar_product_opIddEEKNS_9TransposeIKNS_5BlockIKNS_6MatrixIdLin1ELin1ELi0ELin1ELin1EEELi1ELin1ELb0EEEEEKNS6_IKNS5_IS9_EELin1ELi1ELb0EEEEEEC2ERKSI_, symObjAddr: 0x490B4, symBinAddr: 0x10004C8A4, symSize: 0x34 }
  - { offsetInCU: 0xDF18C, offset: 0xDF18C, size: 0x8, addend: 0x0, symName: __ZN5Eigen8internal16binary_evaluatorINS_13CwiseBinaryOpINS0_17scalar_product_opIddEEKNS_9TransposeIKNS_5BlockIKNS_6MatrixIdLin1ELin1ELi0ELin1ELin1EEELi1ELin1ELb0EEEEEKNS6_IKNS5_IS9_EELin1ELi1ELb0EEEEENS0_10IndexBasedESJ_ddEC2ERKSI_, symObjAddr: 0x490E8, symBinAddr: 0x10004C8D8, symSize: 0x64 }
  - { offsetInCU: 0xDF1C5, offset: 0xDF1C5, size: 0x8, addend: 0x0, symName: __ZN5Eigen8internal14evaluator_baseINS_13CwiseBinaryOpINS0_17scalar_product_opIddEEKNS_9TransposeIKNS_5BlockIKNS_6MatrixIdLin1ELin1ELi0ELin1ELin1EEELi1ELin1ELb0EEEEEKNS6_IKNS5_IS9_EELin1ELi1ELb0EEEEEEC2Ev, symObjAddr: 0x4914C, symBinAddr: 0x10004C93C, symSize: 0x14 }
  - { offsetInCU: 0xDF1EF, offset: 0xDF1EF, size: 0x8, addend: 0x0, symName: __ZN5Eigen8internal16binary_evaluatorINS_13CwiseBinaryOpINS0_17scalar_product_opIddEEKNS_9TransposeIKNS_5BlockIKNS_6MatrixIdLin1ELin1ELi0ELin1ELin1EEELi1ELin1ELb0EEEEEKNS6_IKNS5_IS9_EELin1ELi1ELb0EEEEENS0_10IndexBasedESJ_ddE4DataC1ERKSI_, symObjAddr: 0x49160, symBinAddr: 0x10004C950, symSize: 0x34 }
  - { offsetInCU: 0xDF228, offset: 0xDF228, size: 0x8, addend: 0x0, symName: __ZN5Eigen8internal14evaluator_baseINS_13CwiseBinaryOpINS0_17scalar_product_opIddEEKNS_9TransposeIKNS_5BlockIKNS_6MatrixIdLin1ELin1ELi0ELin1ELin1EEELi1ELin1ELb0EEEEEKNS6_IKNS5_IS9_EELin1ELi1ELb0EEEEEED2Ev, symObjAddr: 0x49194, symBinAddr: 0x10004C984, symSize: 0x14 }
  - { offsetInCU: 0xDF252, offset: 0xDF252, size: 0x8, addend: 0x0, symName: __ZN5Eigen8internal16binary_evaluatorINS_13CwiseBinaryOpINS0_17scalar_product_opIddEEKNS_9TransposeIKNS_5BlockIKNS_6MatrixIdLin1ELin1ELi0ELin1ELin1EEELi1ELin1ELb0EEEEEKNS6_IKNS5_IS9_EELin1ELi1ELb0EEEEENS0_10IndexBasedESJ_ddE4DataC2ERKSI_, symObjAddr: 0x491A8, symBinAddr: 0x10004C998, symSize: 0xA8 }
  - { offsetInCU: 0xDF28B, offset: 0xDF28B, size: 0x8, addend: 0x0, symName: __ZNK5Eigen13CwiseBinaryOpINS_8internal17scalar_product_opIddEEKNS_9TransposeIKNS_5BlockIKNS_6MatrixIdLin1ELin1ELi0ELin1ELin1EEELi1ELin1ELb0EEEEEKNS5_IKNS4_IS8_EELin1ELi1ELb0EEEE7functorEv, symObjAddr: 0x49250, symBinAddr: 0x10004CA40, symSize: 0x18 }
  - { offsetInCU: 0xDF2B1, offset: 0xDF2B1, size: 0x8, addend: 0x0, symName: __ZNK5Eigen13CwiseBinaryOpINS_8internal17scalar_product_opIddEEKNS_9TransposeIKNS_5BlockIKNS_6MatrixIdLin1ELin1ELi0ELin1ELin1EEELi1ELin1ELb0EEEEEKNS5_IKNS4_IS8_EELin1ELi1ELb0EEEE3lhsEv, symObjAddr: 0x49268, symBinAddr: 0x10004CA58, symSize: 0x14 }
  - { offsetInCU: 0xDF2D7, offset: 0xDF2D7, size: 0x8, addend: 0x0, symName: __ZN5Eigen8internal9evaluatorIKNS_9TransposeIKNS_5BlockIKNS_6MatrixIdLin1ELin1ELi0ELin1ELin1EEELi1ELin1ELb0EEEEEEC1ERSA_, symObjAddr: 0x4927C, symBinAddr: 0x10004CA6C, symSize: 0x34 }
  - { offsetInCU: 0xDF30F, offset: 0xDF30F, size: 0x8, addend: 0x0, symName: __ZNK5Eigen13CwiseBinaryOpINS_8internal17scalar_product_opIddEEKNS_9TransposeIKNS_5BlockIKNS_6MatrixIdLin1ELin1ELi0ELin1ELin1EEELi1ELin1ELb0EEEEEKNS5_IKNS4_IS8_EELin1ELi1ELb0EEEE3rhsEv, symObjAddr: 0x492B0, symBinAddr: 0x10004CAA0, symSize: 0x18 }
  - { offsetInCU: 0xDF335, offset: 0xDF335, size: 0x8, addend: 0x0, symName: __ZN5Eigen8internal9evaluatorIKNS_5BlockIKNS_9TransposeIKNS_6MatrixIdLin1ELin1ELi0ELin1ELin1EEEEELin1ELi1ELb0EEEEC1ERSA_, symObjAddr: 0x492C8, symBinAddr: 0x10004CAB8, symSize: 0x34 }
  - { offsetInCU: 0xDF36D, offset: 0xDF36D, size: 0x8, addend: 0x0, symName: __ZN5Eigen8internal9evaluatorIKNS_9TransposeIKNS_5BlockIKNS_6MatrixIdLin1ELin1ELi0ELin1ELin1EEELi1ELin1ELb0EEEEEED1Ev, symObjAddr: 0x492FC, symBinAddr: 0x10004CAEC, symSize: 0x2C }
  - { offsetInCU: 0xDF399, offset: 0xDF399, size: 0x8, addend: 0x0, symName: __ZN5Eigen8internal9evaluatorIKNS_9TransposeIKNS_5BlockIKNS_6MatrixIdLin1ELin1ELi0ELin1ELin1EEELi1ELin1ELb0EEEEEEC2ERSA_, symObjAddr: 0x49328, symBinAddr: 0x10004CB18, symSize: 0x34 }
  - { offsetInCU: 0xDF3D1, offset: 0xDF3D1, size: 0x8, addend: 0x0, symName: __ZN5Eigen8internal9evaluatorINS_9TransposeIKNS_5BlockIKNS_6MatrixIdLin1ELin1ELi0ELin1ELin1EEELi1ELin1ELb0EEEEEEC2ERKS9_, symObjAddr: 0x4935C, symBinAddr: 0x10004CB4C, symSize: 0x34 }
  - { offsetInCU: 0xDF409, offset: 0xDF409, size: 0x8, addend: 0x0, symName: __ZN5Eigen8internal15unary_evaluatorINS_9TransposeIKNS_5BlockIKNS_6MatrixIdLin1ELin1ELi0ELin1ELin1EEELi1ELin1ELb0EEEEENS0_10IndexBasedEdEC2ERKS9_, symObjAddr: 0x49390, symBinAddr: 0x10004CB80, symSize: 0x74 }
  - { offsetInCU: 0xDF442, offset: 0xDF442, size: 0x8, addend: 0x0, symName: __ZN5Eigen8internal14evaluator_baseINS_9TransposeIKNS_5BlockIKNS_6MatrixIdLin1ELin1ELi0ELin1ELin1EEELi1ELin1ELb0EEEEEEC2Ev, symObjAddr: 0x49404, symBinAddr: 0x10004CBF4, symSize: 0x14 }
  - { offsetInCU: 0xDF46C, offset: 0xDF46C, size: 0x8, addend: 0x0, symName: __ZNK5Eigen9TransposeIKNS_5BlockIKNS_6MatrixIdLin1ELin1ELi0ELin1ELin1EEELi1ELin1ELb0EEEE16nestedExpressionEv, symObjAddr: 0x49418, symBinAddr: 0x10004CC08, symSize: 0x14 }
  - { offsetInCU: 0xDF492, offset: 0xDF492, size: 0x8, addend: 0x0, symName: __ZN5Eigen8internal9evaluatorIKNS_5BlockIKNS_6MatrixIdLin1ELin1ELi0ELin1ELin1EEELi1ELin1ELb0EEEEC1ERS7_, symObjAddr: 0x4942C, symBinAddr: 0x10004CC1C, symSize: 0x34 }
  - { offsetInCU: 0xDF4CA, offset: 0xDF4CA, size: 0x8, addend: 0x0, symName: __ZN5Eigen8internal14evaluator_baseINS_9TransposeIKNS_5BlockIKNS_6MatrixIdLin1ELin1ELi0ELin1ELin1EEELi1ELin1ELb0EEEEEED2Ev, symObjAddr: 0x49460, symBinAddr: 0x10004CC50, symSize: 0x14 }
  - { offsetInCU: 0xDF4F4, offset: 0xDF4F4, size: 0x8, addend: 0x0, symName: __ZN5Eigen8internal9evaluatorIKNS_5BlockIKNS_6MatrixIdLin1ELin1ELi0ELin1ELin1EEELi1ELin1ELb0EEEEC2ERS7_, symObjAddr: 0x49474, symBinAddr: 0x10004CC64, symSize: 0x34 }
  - { offsetInCU: 0xDF52C, offset: 0xDF52C, size: 0x8, addend: 0x0, symName: __ZN5Eigen8internal9evaluatorINS_5BlockIKNS_6MatrixIdLin1ELin1ELi0ELin1ELin1EEELi1ELin1ELb0EEEEC2ERKS6_, symObjAddr: 0x494A8, symBinAddr: 0x10004CC98, symSize: 0x34 }
  - { offsetInCU: 0xDF565, offset: 0xDF565, size: 0x8, addend: 0x0, symName: __ZN5Eigen8internal15block_evaluatorIKNS_6MatrixIdLin1ELin1ELi0ELin1ELin1EEELi1ELin1ELb0ELb1EEC2ERKNS_5BlockIS4_Li1ELin1ELb0EEE, symObjAddr: 0x494DC, symBinAddr: 0x10004CCCC, symSize: 0xE0 }
  - { offsetInCU: 0xDF59E, offset: 0xDF59E, size: 0x8, addend: 0x0, symName: __ZN5Eigen8internal17mapbase_evaluatorINS_5BlockIKNS_6MatrixIdLin1ELin1ELi0ELin1ELin1EEELi1ELin1ELb0EEENS3_IdLi1ELin1ELi1ELi1ELin1EEEEC2ERKS6_, symObjAddr: 0x495BC, symBinAddr: 0x10004CDAC, symSize: 0xF0 }
  - { offsetInCU: 0xDF5D7, offset: 0xDF5D7, size: 0x8, addend: 0x0, symName: __ZNK5Eigen7MapBaseINS_5BlockIKNS_6MatrixIdLin1ELin1ELi0ELin1ELin1EEELi1ELin1ELb0EEELi0EE4dataEv, symObjAddr: 0x496AC, symBinAddr: 0x10004CE9C, symSize: 0x60 }
  - { offsetInCU: 0xDF5FD, offset: 0xDF5FD, size: 0x8, addend: 0x0, symName: __ZN5Eigen8internal17mapbase_evaluatorINS_5BlockIKNS_6MatrixIdLin1ELin1ELi0ELin1ELin1EEELi1ELin1ELb0EEENS3_IdLi1ELin1ELi1ELi1ELin1EEEED2Ev, symObjAddr: 0x4970C, symBinAddr: 0x10004CEFC, symSize: 0x2C }
  - { offsetInCU: 0xDF62A, offset: 0xDF62A, size: 0x8, addend: 0x0, symName: __ZN5Eigen8internal14evaluator_baseINS_5BlockIKNS_6MatrixIdLin1ELin1ELi0ELin1ELin1EEELi1ELin1ELb0EEEEC2Ev, symObjAddr: 0x49738, symBinAddr: 0x10004CF28, symSize: 0x14 }
  - { offsetInCU: 0xDF654, offset: 0xDF654, size: 0x8, addend: 0x0, symName: __ZNK5Eigen8internal15BlockImpl_denseIKNS_6MatrixIdLin1ELin1ELi0ELin1ELin1EEELi1ELin1ELb0ELb1EE11innerStrideEv, symObjAddr: 0x4974C, symBinAddr: 0x10004CF3C, symSize: 0x68 }
  - { offsetInCU: 0xDF67A, offset: 0xDF67A, size: 0x8, addend: 0x0, symName: __ZNK5Eigen8internal15BlockImpl_denseIKNS_6MatrixIdLin1ELin1ELi0ELin1ELin1EEELi1ELin1ELb0ELb1EE11outerStrideEv, symObjAddr: 0x497B4, symBinAddr: 0x10004CFA4, symSize: 0x68 }
  - { offsetInCU: 0xDF6A0, offset: 0xDF6A0, size: 0x8, addend: 0x0, symName: __ZN5Eigen8internal14evaluator_baseINS_5BlockIKNS_6MatrixIdLin1ELin1ELi0ELin1ELin1EEELi1ELin1ELb0EEEED2Ev, symObjAddr: 0x4981C, symBinAddr: 0x10004D00C, symSize: 0x14 }
  - { offsetInCU: 0xDF6CA, offset: 0xDF6CA, size: 0x8, addend: 0x0, symName: __ZN5Eigen8internal9evaluatorIKNS_5BlockIKNS_9TransposeIKNS_6MatrixIdLin1ELin1ELi0ELin1ELin1EEEEELin1ELi1ELb0EEEEC2ERSA_, symObjAddr: 0x49830, symBinAddr: 0x10004D020, symSize: 0x34 }
  - { offsetInCU: 0xDF702, offset: 0xDF702, size: 0x8, addend: 0x0, symName: __ZN5Eigen8internal9evaluatorINS_5BlockIKNS_9TransposeIKNS_6MatrixIdLin1ELin1ELi0ELin1ELin1EEEEELin1ELi1ELb0EEEEC2ERKS9_, symObjAddr: 0x49864, symBinAddr: 0x10004D054, symSize: 0x34 }
  - { offsetInCU: 0xDF73B, offset: 0xDF73B, size: 0x8, addend: 0x0, symName: __ZN5Eigen8internal15block_evaluatorIKNS_9TransposeIKNS_6MatrixIdLin1ELin1ELi0ELin1ELin1EEEEELin1ELi1ELb0ELb1EEC2ERKNS_5BlockIS7_Lin1ELi1ELb0EEE, symObjAddr: 0x49898, symBinAddr: 0x10004D088, symSize: 0xE0 }
  - { offsetInCU: 0xDF774, offset: 0xDF774, size: 0x8, addend: 0x0, symName: __ZN5Eigen8internal17mapbase_evaluatorINS_5BlockIKNS_9TransposeIKNS_6MatrixIdLin1ELin1ELi0ELin1ELin1EEEEELin1ELi1ELb0EEENS4_IdLin1ELi1ELi0ELin1ELi1EEEEC2ERKS9_, symObjAddr: 0x49978, symBinAddr: 0x10004D168, symSize: 0xF0 }
  - { offsetInCU: 0xDF7AD, offset: 0xDF7AD, size: 0x8, addend: 0x0, symName: __ZNK5Eigen7MapBaseINS_5BlockIKNS_9TransposeIKNS_6MatrixIdLin1ELin1ELi0ELin1ELin1EEEEELin1ELi1ELb0EEELi0EE4dataEv, symObjAddr: 0x49A68, symBinAddr: 0x10004D258, symSize: 0x60 }
  - { offsetInCU: 0xDF7D3, offset: 0xDF7D3, size: 0x8, addend: 0x0, symName: __ZN5Eigen8internal17mapbase_evaluatorINS_5BlockIKNS_9TransposeIKNS_6MatrixIdLin1ELin1ELi0ELin1ELin1EEEEELin1ELi1ELb0EEENS4_IdLin1ELi1ELi0ELin1ELi1EEEED2Ev, symObjAddr: 0x49AC8, symBinAddr: 0x10004D2B8, symSize: 0x2C }
  - { offsetInCU: 0xDF800, offset: 0xDF800, size: 0x8, addend: 0x0, symName: __ZN5Eigen8internal14evaluator_baseINS_5BlockIKNS_9TransposeIKNS_6MatrixIdLin1ELin1ELi0ELin1ELin1EEEEELin1ELi1ELb0EEEEC2Ev, symObjAddr: 0x49AF4, symBinAddr: 0x10004D2E4, symSize: 0x14 }
  - { offsetInCU: 0xDF82A, offset: 0xDF82A, size: 0x8, addend: 0x0, symName: __ZNK5Eigen8internal15BlockImpl_denseIKNS_9TransposeIKNS_6MatrixIdLin1ELin1ELi0ELin1ELin1EEEEELin1ELi1ELb0ELb1EE11innerStrideEv, symObjAddr: 0x49B08, symBinAddr: 0x10004D2F8, symSize: 0x44 }
  - { offsetInCU: 0xDF850, offset: 0xDF850, size: 0x8, addend: 0x0, symName: __ZNK5Eigen8internal15BlockImpl_denseIKNS_9TransposeIKNS_6MatrixIdLin1ELin1ELi0ELin1ELin1EEEEELin1ELi1ELb0ELb1EE11outerStrideEv, symObjAddr: 0x49B4C, symBinAddr: 0x10004D33C, symSize: 0x28 }
  - { offsetInCU: 0xDF876, offset: 0xDF876, size: 0x8, addend: 0x0, symName: __ZN5Eigen8internal14evaluator_baseINS_5BlockIKNS_9TransposeIKNS_6MatrixIdLin1ELin1ELi0ELin1ELin1EEEEELin1ELi1ELb0EEEED2Ev, symObjAddr: 0x49B74, symBinAddr: 0x10004D364, symSize: 0x14 }
  - { offsetInCU: 0xDF8A0, offset: 0xDF8A0, size: 0x8, addend: 0x0, symName: __ZNK5Eigen13TransposeImplIKNS_6MatrixIdLin1ELin1ELi0ELin1ELin1EEENS_5DenseEE11outerStrideEv, symObjAddr: 0x49B88, symBinAddr: 0x10004D378, symSize: 0x2C }
  - { offsetInCU: 0xDF8C6, offset: 0xDF8C6, size: 0x8, addend: 0x0, symName: __ZN5Eigen8internal9evaluatorIKNS_9TransposeIKNS_5BlockIKNS_6MatrixIdLin1ELin1ELi0ELin1ELin1EEELi1ELin1ELb0EEEEEED2Ev, symObjAddr: 0x49BB4, symBinAddr: 0x10004D3A4, symSize: 0x2C }
  - { offsetInCU: 0xDF8F2, offset: 0xDF8F2, size: 0x8, addend: 0x0, symName: __ZN5Eigen8internal9evaluatorINS_9TransposeIKNS_5BlockIKNS_6MatrixIdLin1ELin1ELi0ELin1ELin1EEELi1ELin1ELb0EEEEEED2Ev, symObjAddr: 0x49BE0, symBinAddr: 0x10004D3D0, symSize: 0x2C }
  - { offsetInCU: 0xDF91E, offset: 0xDF91E, size: 0x8, addend: 0x0, symName: __ZN5Eigen8internal15unary_evaluatorINS_9TransposeIKNS_5BlockIKNS_6MatrixIdLin1ELin1ELi0ELin1ELin1EEELi1ELin1ELb0EEEEENS0_10IndexBasedEdED2Ev, symObjAddr: 0x49C0C, symBinAddr: 0x10004D3FC, symSize: 0x34 }
  - { offsetInCU: 0xDF94A, offset: 0xDF94A, size: 0x8, addend: 0x0, symName: __ZN5Eigen8internal9evaluatorIKNS_5BlockIKNS_6MatrixIdLin1ELin1ELi0ELin1ELin1EEELi1ELin1ELb0EEEED1Ev, symObjAddr: 0x49C40, symBinAddr: 0x10004D430, symSize: 0x2C }
  - { offsetInCU: 0xDF976, offset: 0xDF976, size: 0x8, addend: 0x0, symName: __ZN5Eigen8internal9evaluatorIKNS_5BlockIKNS_6MatrixIdLin1ELin1ELi0ELin1ELin1EEELi1ELin1ELb0EEEED2Ev, symObjAddr: 0x49C6C, symBinAddr: 0x10004D45C, symSize: 0x2C }
  - { offsetInCU: 0xDF9A2, offset: 0xDF9A2, size: 0x8, addend: 0x0, symName: __ZN5Eigen8internal9evaluatorINS_5BlockIKNS_6MatrixIdLin1ELin1ELi0ELin1ELin1EEELi1ELin1ELb0EEEED2Ev, symObjAddr: 0x49C98, symBinAddr: 0x10004D488, symSize: 0x2C }
  - { offsetInCU: 0xDF9CF, offset: 0xDF9CF, size: 0x8, addend: 0x0, symName: __ZN5Eigen8internal15block_evaluatorIKNS_6MatrixIdLin1ELin1ELi0ELin1ELin1EEELi1ELin1ELb0ELb1EED2Ev, symObjAddr: 0x49CC4, symBinAddr: 0x10004D4B4, symSize: 0x2C }
  - { offsetInCU: 0xDF9FC, offset: 0xDF9FC, size: 0x8, addend: 0x0, symName: __ZNK5Eigen8internal15redux_evaluatorINS_13CwiseBinaryOpINS0_17scalar_product_opIddEEKNS_9TransposeIKNS_5BlockIKNS_6MatrixIdLin1ELin1ELi0ELin1ELin1EEELi1ELin1ELb0EEEEEKNS6_IKNS5_IS9_EELin1ELi1ELb0EEEEEE17coeffByOuterInnerEll, symObjAddr: 0x49CF0, symBinAddr: 0x10004D4E0, symSize: 0x34 }
  - { offsetInCU: 0xDFA40, offset: 0xDFA40, size: 0x8, addend: 0x0, symName: __ZNK5Eigen9DenseBaseINS_13CwiseBinaryOpINS_8internal17scalar_product_opIddEEKNS_9TransposeIKNS_5BlockIKNS_6MatrixIdLin1ELin1ELi0ELin1ELin1EEELi1ELin1ELb0EEEEEKNS6_IKNS5_IS9_EELin1ELi1ELb0EEEEEE9innerSizeEv, symObjAddr: 0x49D24, symBinAddr: 0x10004D514, symSize: 0x24 }
  - { offsetInCU: 0xDFA66, offset: 0xDFA66, size: 0x8, addend: 0x0, symName: __ZNK5Eigen9DenseBaseINS_13CwiseBinaryOpINS_8internal17scalar_product_opIddEEKNS_9TransposeIKNS_5BlockIKNS_6MatrixIdLin1ELin1ELi0ELin1ELin1EEELi1ELin1ELb0EEEEEKNS6_IKNS5_IS9_EELin1ELi1ELb0EEEEEE9outerSizeEv, symObjAddr: 0x49D48, symBinAddr: 0x10004D538, symSize: 0x14 }
  - { offsetInCU: 0xDFA8C, offset: 0xDFA8C, size: 0x8, addend: 0x0, symName: __ZNK5Eigen8internal16binary_evaluatorINS_13CwiseBinaryOpINS0_17scalar_product_opIddEEKNS_9TransposeIKNS_5BlockIKNS_6MatrixIdLin1ELin1ELi0ELin1ELin1EEELi1ELin1ELb0EEEEEKNS6_IKNS5_IS9_EELin1ELi1ELb0EEEEENS0_10IndexBasedESJ_ddE5coeffEll, symObjAddr: 0x49D5C, symBinAddr: 0x10004D54C, symSize: 0x2E4 }
  - { offsetInCU: 0xDFAD3, offset: 0xDFAD3, size: 0x8, addend: 0x0, symName: __ZNK5Eigen8internal16binary_evaluatorINS_13CwiseBinaryOpINS0_17scalar_product_opIddEEKNS_9TransposeIKNS_5BlockIKNS_6MatrixIdLin1ELin1ELi0ELin1ELin1EEELi1ELin1ELb0EEEEEKNS6_IKNS5_IS9_EELin1ELi1ELb0EEEEENS0_10IndexBasedESJ_ddE4Data4funcEv, symObjAddr: 0x4A040, symBinAddr: 0x10004D830, symSize: 0x14 }
  - { offsetInCU: 0xDFAF9, offset: 0xDFAF9, size: 0x8, addend: 0x0, symName: __ZNK5Eigen8internal17scalar_product_opIddEclERKdS4_, symObjAddr: 0x4A054, symBinAddr: 0x10004D844, symSize: 0xB4 }
  - { offsetInCU: 0xDFB3B, offset: 0xDFB3B, size: 0x8, addend: 0x0, symName: __ZNK5Eigen8internal15unary_evaluatorINS_9TransposeIKNS_5BlockIKNS_6MatrixIdLin1ELin1ELi0ELin1ELin1EEELi1ELin1ELb0EEEEENS0_10IndexBasedEdE5coeffEll, symObjAddr: 0x4A108, symBinAddr: 0x10004D8F8, symSize: 0x34 }
  - { offsetInCU: 0xDFB7F, offset: 0xDFB7F, size: 0x8, addend: 0x0, symName: __ZNK5Eigen8internal17mapbase_evaluatorINS_5BlockIKNS_9TransposeIKNS_6MatrixIdLin1ELin1ELi0ELin1ELin1EEEEELin1ELi1ELb0EEENS4_IdLin1ELi1ELi0ELin1ELi1EEEE5coeffEll, symObjAddr: 0x4A13C, symBinAddr: 0x10004D92C, symSize: 0xEC }
  - { offsetInCU: 0xDFBC3, offset: 0xDFBC3, size: 0x8, addend: 0x0, symName: __ZNK5Eigen8internal17mapbase_evaluatorINS_5BlockIKNS_6MatrixIdLin1ELin1ELi0ELin1ELin1EEELi1ELin1ELb0EEENS3_IdLi1ELin1ELi1ELi1ELin1EEEE5coeffEll, symObjAddr: 0x4A228, symBinAddr: 0x10004DA18, symSize: 0xEC }
  - { offsetInCU: 0xDFC07, offset: 0xDFC07, size: 0x8, addend: 0x0, symName: __ZNK5Eigen8internal17mapbase_evaluatorINS_5BlockIKNS_6MatrixIdLin1ELin1ELi0ELin1ELin1EEELi1ELin1ELb0EEENS3_IdLi1ELin1ELi1ELi1ELin1EEEE9colStrideEv, symObjAddr: 0x4A314, symBinAddr: 0x10004DB04, symSize: 0x28 }
  - { offsetInCU: 0xDFC2D, offset: 0xDFC2D, size: 0x8, addend: 0x0, symName: __ZNK5Eigen8internal17mapbase_evaluatorINS_5BlockIKNS_6MatrixIdLin1ELin1ELi0ELin1ELin1EEELi1ELin1ELb0EEENS3_IdLi1ELin1ELi1ELi1ELin1EEEE9rowStrideEv, symObjAddr: 0x4A33C, symBinAddr: 0x10004DB2C, symSize: 0x20 }
  - { offsetInCU: 0xDFC53, offset: 0xDFC53, size: 0x8, addend: 0x0, symName: __ZNK5Eigen8internal17mapbase_evaluatorINS_5BlockIKNS_9TransposeIKNS_6MatrixIdLin1ELin1ELi0ELin1ELin1EEEEELin1ELi1ELb0EEENS4_IdLin1ELi1ELi0ELin1ELi1EEEE9colStrideEv, symObjAddr: 0x4A35C, symBinAddr: 0x10004DB4C, symSize: 0x20 }
  - { offsetInCU: 0xDFC79, offset: 0xDFC79, size: 0x8, addend: 0x0, symName: __ZNK5Eigen8internal17mapbase_evaluatorINS_5BlockIKNS_9TransposeIKNS_6MatrixIdLin1ELin1ELi0ELin1ELin1EEEEELin1ELi1ELb0EEENS4_IdLin1ELi1ELi0ELin1ELi1EEEE9rowStrideEv, symObjAddr: 0x4A37C, symBinAddr: 0x10004DB6C, symSize: 0x28 }
  - { offsetInCU: 0xDFC9F, offset: 0xDFC9F, size: 0x8, addend: 0x0, symName: __ZN5Eigen8internal15redux_evaluatorINS_13CwiseBinaryOpINS0_17scalar_product_opIddEEKNS_9TransposeIKNS_5BlockIKNS_6MatrixIdLin1ELin1ELi0ELin1ELin1EEELi1ELin1ELb0EEEEEKNS6_IKNS5_IS9_EELin1ELi1ELb0EEEEEED2Ev, symObjAddr: 0x4A3A4, symBinAddr: 0x10004DB94, symSize: 0x2C }
  - { offsetInCU: 0xDFCCC, offset: 0xDFCCC, size: 0x8, addend: 0x0, symName: __ZN5Eigen8internal9evaluatorINS_13CwiseBinaryOpINS0_17scalar_product_opIddEEKNS_9TransposeIKNS_5BlockIKNS_6MatrixIdLin1ELin1ELi0ELin1ELin1EEELi1ELin1ELb0EEEEEKNS6_IKNS5_IS9_EELin1ELi1ELb0EEEEEED2Ev, symObjAddr: 0x4A3D0, symBinAddr: 0x10004DBC0, symSize: 0x2C }
  - { offsetInCU: 0xDFCF9, offset: 0xDFCF9, size: 0x8, addend: 0x0, symName: __ZN5Eigen8internal16binary_evaluatorINS_13CwiseBinaryOpINS0_17scalar_product_opIddEEKNS_9TransposeIKNS_5BlockIKNS_6MatrixIdLin1ELin1ELi0ELin1ELin1EEELi1ELin1ELb0EEEEEKNS6_IKNS5_IS9_EELin1ELi1ELb0EEEEENS0_10IndexBasedESJ_ddED2Ev, symObjAddr: 0x4A3FC, symBinAddr: 0x10004DBEC, symSize: 0x34 }
  - { offsetInCU: 0xDFD25, offset: 0xDFD25, size: 0x8, addend: 0x0, symName: __ZN5Eigen8internal16binary_evaluatorINS_13CwiseBinaryOpINS0_17scalar_product_opIddEEKNS_9TransposeIKNS_5BlockIKNS_6MatrixIdLin1ELin1ELi0ELin1ELin1EEELi1ELin1ELb0EEEEEKNS6_IKNS5_IS9_EELin1ELi1ELb0EEEEENS0_10IndexBasedESJ_ddE4DataD1Ev, symObjAddr: 0x4A430, symBinAddr: 0x10004DC20, symSize: 0x2C }
  - { offsetInCU: 0xDFD52, offset: 0xDFD52, size: 0x8, addend: 0x0, symName: __ZN5Eigen8internal16binary_evaluatorINS_13CwiseBinaryOpINS0_17scalar_product_opIddEEKNS_9TransposeIKNS_5BlockIKNS_6MatrixIdLin1ELin1ELi0ELin1ELin1EEELi1ELin1ELb0EEEEEKNS6_IKNS5_IS9_EELin1ELi1ELb0EEEEENS0_10IndexBasedESJ_ddE4DataD2Ev, symObjAddr: 0x4A45C, symBinAddr: 0x10004DC4C, symSize: 0x3C }
  - { offsetInCU: 0xDFD7F, offset: 0xDFD7F, size: 0x8, addend: 0x0, symName: __ZN5Eigen8internal9evaluatorIKNS_5BlockIKNS_9TransposeIKNS_6MatrixIdLin1ELin1ELi0ELin1ELin1EEEEELin1ELi1ELb0EEEED1Ev, symObjAddr: 0x4A498, symBinAddr: 0x10004DC88, symSize: 0x2C }
  - { offsetInCU: 0xDFDAB, offset: 0xDFDAB, size: 0x8, addend: 0x0, symName: __ZN5Eigen8internal9evaluatorIKNS_5BlockIKNS_9TransposeIKNS_6MatrixIdLin1ELin1ELi0ELin1ELin1EEEEELin1ELi1ELb0EEEED2Ev, symObjAddr: 0x4A4C4, symBinAddr: 0x10004DCB4, symSize: 0x2C }
  - { offsetInCU: 0xDFDD7, offset: 0xDFDD7, size: 0x8, addend: 0x0, symName: __ZN5Eigen8internal9evaluatorINS_5BlockIKNS_9TransposeIKNS_6MatrixIdLin1ELin1ELi0ELin1ELin1EEEEELin1ELi1ELb0EEEED2Ev, symObjAddr: 0x4A4F0, symBinAddr: 0x10004DCE0, symSize: 0x2C }
  - { offsetInCU: 0xDFE04, offset: 0xDFE04, size: 0x8, addend: 0x0, symName: __ZN5Eigen8internal15block_evaluatorIKNS_9TransposeIKNS_6MatrixIdLin1ELin1ELi0ELin1ELin1EEEEELin1ELi1ELb0ELb1EED2Ev, symObjAddr: 0x4A51C, symBinAddr: 0x10004DD0C, symSize: 0x2C }
  - { offsetInCU: 0xDFE31, offset: 0xDFE31, size: 0x8, addend: 0x0, symName: __ZN5Eigen8internal31generic_dense_assignment_kernelINS0_9evaluatorINS_6MatrixIdLin1ELin1ELi0ELin1ELin1EEEEENS2_INS_7ProductIS4_NS_9TransposeIKS4_EELi1EEEEENS0_9assign_opIddEELi1EE12assignPacketILi16ELi0E19__simd128_float64_tEEvll, symObjAddr: 0x4A548, symBinAddr: 0x10004DD38, symSize: 0x2EC }
  - { offsetInCU: 0xDFE95, offset: 0xDFE95, size: 0x8, addend: 0x0, symName: __ZNK5Eigen8internal17product_evaluatorINS_7ProductINS_6MatrixIdLin1ELin1ELi0ELin1ELin1EEENS_9TransposeIKS4_EELi1EEELi8ENS_10DenseShapeES9_ddE6packetILi0E19__simd128_float64_tEEKT0_ll, symObjAddr: 0x4A834, symBinAddr: 0x10004E024, symSize: 0x284 }
  - { offsetInCU: 0xDFF1B, offset: 0xDFF1B, size: 0x8, addend: 0x0, symName: __ZN5Eigen8internal24etor_product_packet_implILi0ELin1ENS0_9evaluatorINS_6MatrixIdLin1ELin1ELi0ELin1ELin1EEEEENS2_INS_9TransposeIKS4_EEEE19__simd128_float64_tLi0EE3runEllRKS5_RKS9_lRSA_, symObjAddr: 0x4AAB8, symBinAddr: 0x10004E2A8, symSize: 0x478 }
  - { offsetInCU: 0xDFFAE, offset: 0xDFFAE, size: 0x8, addend: 0x0, symName: __ZNK5Eigen8internal15unary_evaluatorINS_9TransposeIKNS_6MatrixIdLin1ELin1ELi0ELin1ELin1EEEEENS0_10IndexBasedEdE5coeffEll, symObjAddr: 0x4B0D8, symBinAddr: 0x10004E8C8, symSize: 0x7C }
  - { offsetInCU: 0xDFFF2, offset: 0xDFFF2, size: 0x8, addend: 0x0, symName: __ZN5Eigen8internal9evaluatorINS_7ProductINS_6MatrixIdLin1ELin1ELi0ELin1ELin1EEENS_9TransposeIKS4_EELi1EEEED2Ev, symObjAddr: 0x4B154, symBinAddr: 0x10004E944, symSize: 0x2C }
  - { offsetInCU: 0xE001E, offset: 0xE001E, size: 0x8, addend: 0x0, symName: __ZN5Eigen8internal17product_evaluatorINS_7ProductINS_6MatrixIdLin1ELin1ELi0ELin1ELin1EEENS_9TransposeIKS4_EELi1EEELi8ENS_10DenseShapeES9_ddED2Ev, symObjAddr: 0x4B180, symBinAddr: 0x10004E970, symSize: 0x44 }
  - { offsetInCU: 0xE004A, offset: 0xE004A, size: 0x8, addend: 0x0, symName: __ZN5Eigen7ProductINS_6MatrixIdLin1ELin1ELi0ELin1ELin1EEENS_9TransposeIKS2_EELi1EEC1ERS4_RKS5_, symObjAddr: 0x4B1C4, symBinAddr: 0x10004E9B4, symSize: 0x3C }
  - { offsetInCU: 0xE0090, offset: 0xE0090, size: 0x8, addend: 0x0, symName: __ZN5Eigen7ProductINS_6MatrixIdLin1ELin1ELi0ELin1ELin1EEENS_9TransposeIKS2_EELi1EEC2ERS4_RKS5_, symObjAddr: 0x4B200, symBinAddr: 0x10004E9F0, symSize: 0x114 }
  - { offsetInCU: 0xE00DB, offset: 0xE00DB, size: 0x8, addend: 0x0, symName: __ZN5Eigen11ProductImplINS_6MatrixIdLin1ELin1ELi0ELin1ELin1EEENS_9TransposeIKS2_EELi1ENS_5DenseEEC2Ev, symObjAddr: 0x4B314, symBinAddr: 0x10004EB04, symSize: 0x2C }
  - { offsetInCU: 0xE010C, offset: 0xE010C, size: 0x8, addend: 0x0, symName: __ZN5Eigen8internal18dense_product_baseINS_6MatrixIdLin1ELin1ELi0ELin1ELin1EEENS_9TransposeIKS3_EELi1ELi8EEC2Ev, symObjAddr: 0x4B340, symBinAddr: 0x10004EB30, symSize: 0x2C }
  - { offsetInCU: 0xE0138, offset: 0xE0138, size: 0x8, addend: 0x0, symName: __ZN5Eigen10MatrixBaseINS_7ProductINS_6MatrixIdLin1ELin1ELi0ELin1ELin1EEENS_9TransposeIKS3_EELi1EEEEC2Ev, symObjAddr: 0x4B36C, symBinAddr: 0x10004EB5C, symSize: 0x2C }
  - { offsetInCU: 0xE0162, offset: 0xE0162, size: 0x8, addend: 0x0, symName: __ZN5Eigen9DenseBaseINS_7ProductINS_6MatrixIdLin1ELin1ELi0ELin1ELin1EEENS_9TransposeIKS3_EELi1EEEEC2Ev, symObjAddr: 0x4B398, symBinAddr: 0x10004EB88, symSize: 0x14 }
  - { offsetInCU: 0xE018C, offset: 0xE018C, size: 0x8, addend: 0x0, symName: __ZN5Eigen9DenseBaseINS_6MatrixIdLin1ELin1ELi0ELin1ELin1EEEE11setConstantERKd, symObjAddr: 0x4B3AC, symBinAddr: 0x10004EB9C, symSize: 0x24C }
  - { offsetInCU: 0xE01C6, offset: 0xE01C6, size: 0x8, addend: 0x0, symName: __ZN5Eigen9DenseBaseINS_6MatrixIdLin1ELin1ELi0ELin1ELin1EEEE8ConstantEllRKd, symObjAddr: 0x4B5F8, symBinAddr: 0x10004EDE8, symSize: 0x204 }
  - { offsetInCU: 0xE020D, offset: 0xE020D, size: 0x8, addend: 0x0, symName: __ZN5Eigen6MatrixIdLin1ELin1ELi0ELin1ELin1EEaSINS_14CwiseNullaryOpINS_8internal18scalar_constant_opIdEES1_EEEERS1_RKNS_9DenseBaseIT_EE, symObjAddr: 0x4B7FC, symBinAddr: 0x10004EFEC, symSize: 0x2C }
  - { offsetInCU: 0xE024A, offset: 0xE024A, size: 0x8, addend: 0x0, symName: __ZN5Eigen9DenseBaseINS_6MatrixIdLin1ELin1ELi0ELin1ELin1EEEE11NullaryExprINS_8internal18scalar_constant_opIdEEEEKNS_14CwiseNullaryOpIT_S2_EEllRKS9_, symObjAddr: 0x4B828, symBinAddr: 0x10004F018, symSize: 0x48 }
  - { offsetInCU: 0xE0297, offset: 0xE0297, size: 0x8, addend: 0x0, symName: __ZN5Eigen14CwiseNullaryOpINS_8internal18scalar_constant_opIdEENS_6MatrixIdLin1ELin1ELi0ELin1ELin1EEEEC1EllRKS3_, symObjAddr: 0x4B870, symBinAddr: 0x10004F060, symSize: 0x44 }
  - { offsetInCU: 0xE02EB, offset: 0xE02EB, size: 0x8, addend: 0x0, symName: __ZN5Eigen14CwiseNullaryOpINS_8internal18scalar_constant_opIdEENS_6MatrixIdLin1ELin1ELi0ELin1ELin1EEEEC2EllRKS3_, symObjAddr: 0x4B8B4, symBinAddr: 0x10004F0A4, symSize: 0xE0 }
  - { offsetInCU: 0xE033F, offset: 0xE033F, size: 0x8, addend: 0x0, symName: __ZN5Eigen10MatrixBaseINS_14CwiseNullaryOpINS_8internal18scalar_constant_opIdEENS_6MatrixIdLin1ELin1ELi0ELin1ELin1EEEEEEC2Ev, symObjAddr: 0x4B994, symBinAddr: 0x10004F184, symSize: 0x2C }
  - { offsetInCU: 0xE0369, offset: 0xE0369, size: 0x8, addend: 0x0, symName: __ZN5Eigen9DenseBaseINS_14CwiseNullaryOpINS_8internal18scalar_constant_opIdEENS_6MatrixIdLin1ELin1ELi0ELin1ELin1EEEEEEC2Ev, symObjAddr: 0x4B9C0, symBinAddr: 0x10004F1B0, symSize: 0x14 }
  - { offsetInCU: 0xE0393, offset: 0xE0393, size: 0x8, addend: 0x0, symName: __ZN5Eigen15PlainObjectBaseINS_6MatrixIdLin1ELin1ELi0ELin1ELin1EEEE4_setINS_14CwiseNullaryOpINS_8internal18scalar_constant_opIdEES2_EEEERS2_RKNS_9DenseBaseIT_EE, symObjAddr: 0x4B9D4, symBinAddr: 0x10004F1C4, symSize: 0x4C }
  - { offsetInCU: 0xE03D1, offset: 0xE03D1, size: 0x8, addend: 0x0, symName: __ZNK5Eigen9EigenBaseINS_14CwiseNullaryOpINS_8internal18scalar_constant_opIdEENS_6MatrixIdLin1ELin1ELi0ELin1ELin1EEEEEE7derivedEv, symObjAddr: 0x4BC18, symBinAddr: 0x10004F408, symSize: 0x14 }
  - { offsetInCU: 0xE03F7, offset: 0xE03F7, size: 0x8, addend: 0x0, symName: __ZN5Eigen8internal10AssignmentINS_6MatrixIdLin1ELin1ELi0ELin1ELin1EEENS_14CwiseNullaryOpINS0_18scalar_constant_opIdEES3_EENS0_9assign_opIddEENS0_11Dense2DenseEvE3runERS3_RKS7_RKS9_, symObjAddr: 0x4BCA0, symBinAddr: 0x10004F490, symSize: 0x40 }
  - { offsetInCU: 0xE0439, offset: 0xE0439, size: 0x8, addend: 0x0, symName: __ZN5Eigen8internal27checkTransposeAliasing_implINS_6MatrixIdLin1ELin1ELi0ELin1ELin1EEENS_14CwiseNullaryOpINS0_18scalar_constant_opIdEES3_EELb0EE3runERKS3_RKS7_, symObjAddr: 0x4BF94, symBinAddr: 0x10004F784, symSize: 0x14 }
  - { offsetInCU: 0xE0464, offset: 0xE0464, size: 0x8, addend: 0x0, symName: __ZNK5Eigen14CwiseNullaryOpINS_8internal18scalar_constant_opIdEENS_6MatrixIdLin1ELin1ELi0ELin1ELin1EEEE7functorEv, symObjAddr: 0x4C0E8, symBinAddr: 0x10004F8D8, symSize: 0x18 }
  - { offsetInCU: 0xE048A, offset: 0xE048A, size: 0x8, addend: 0x0, symName: __ZNK5Eigen8internal18scalar_constant_opIdEclEv, symObjAddr: 0x4C100, symBinAddr: 0x10004F8F0, symSize: 0x60 }
  - { offsetInCU: 0xE04B0, offset: 0xE04B0, size: 0x8, addend: 0x0, symName: __ZNK5Eigen14CwiseNullaryOpINS_8internal18scalar_constant_opIdEENS_6MatrixIdLin1ELin1ELi0ELin1ELin1EEEE4rowsEv, symObjAddr: 0x4C160, symBinAddr: 0x10004F950, symSize: 0x24 }
  - { offsetInCU: 0xE04D6, offset: 0xE04D6, size: 0x8, addend: 0x0, symName: __ZNK5Eigen14CwiseNullaryOpINS_8internal18scalar_constant_opIdEENS_6MatrixIdLin1ELin1ELi0ELin1ELin1EEEE4colsEv, symObjAddr: 0x4C184, symBinAddr: 0x10004F974, symSize: 0x28 }
  - { offsetInCU: 0xE04FC, offset: 0xE04FC, size: 0x8, addend: 0x0, symName: __ZN5Eigen9DenseBaseINS_6MatrixIdLin1ELin1ELi0ELin1ELin1EEEE3colEl, symObjAddr: 0x4C2B0, symBinAddr: 0x10004FAA0, symSize: 0x3C }
  - { offsetInCU: 0xE06EE, offset: 0xE06EE, size: 0x8, addend: 0x0, symName: __ZN5Eigen8internal20generic_product_implINS_6MatrixIdLin1ELin1ELi0ELin1ELin1EEEKNS_5BlockIKNS_9TransposeIKS3_EELin1ELi1ELb0EEENS_10DenseShapeESB_Li7EE13scaleAndAddToINS4_IS3_Lin1ELi1ELb1EEEEEvRT_RS6_RSA_RKd, symObjAddr: 0x4C2EC, symBinAddr: 0x10004FADC, symSize: 0x480 }
  - { offsetInCU: 0xE0770, offset: 0xE0770, size: 0x8, addend: 0x0, symName: __ZN5Eigen9DenseBaseINS_6MatrixIdLin1ELin1ELi0ELin1ELin1EEEE3rowEl, symObjAddr: 0x4C76C, symBinAddr: 0x10004FF5C, symSize: 0x3C }
  - { offsetInCU: 0xE0962, offset: 0xE0962, size: 0x8, addend: 0x0, symName: __ZN5Eigen8internal20generic_product_implIKNS_5BlockIKNS_6MatrixIdLin1ELin1ELi0ELin1ELin1EEELi1ELin1ELb0EEENS_9TransposeIS5_EENS_10DenseShapeESA_Li7EE13scaleAndAddToINS2_IS4_Li1ELin1ELb0EEEEEvRT_RS7_RKS9_RKd, symObjAddr: 0x4C7A8, symBinAddr: 0x10004FF98, symSize: 0x4C0 }
  - { offsetInCU: 0xE0A06, offset: 0xE0A06, size: 0x8, addend: 0x0, symName: __ZN5Eigen8internal19gemm_blocking_spaceILi0EddLin1ELin1ELin1ELi1ELb0EEC1Ellllb, symObjAddr: 0x4CC68, symBinAddr: 0x100050458, symSize: 0x60 }
  - { offsetInCU: 0xE0A9E, offset: 0xE0A9E, size: 0x8, addend: 0x0, symName: __ZN5Eigen8internal12gemm_functorIdlNS0_29general_matrix_matrix_productIldLi0ELb0EdLi1ELb0ELi0ELi1EEENS_6MatrixIdLin1ELin1ELi0ELin1ELin1EEENS_9TransposeIKS5_EES5_NS0_19gemm_blocking_spaceILi0EddLin1ELin1ELin1ELi1ELb0EEEEC1ERS7_RKS8_RS5_RKdRSA_, symObjAddr: 0x4CF88, symBinAddr: 0x100050778, symSize: 0x54 }
  - { offsetInCU: 0xE0B0E, offset: 0xE0B0E, size: 0x8, addend: 0x0, symName: __ZN5Eigen8internal19gemm_blocking_spaceILi0EddLin1ELin1ELin1ELi1ELb0EED1Ev, symObjAddr: 0x4CFDC, symBinAddr: 0x1000507CC, symSize: 0x2C }
  - { offsetInCU: 0xE0B38, offset: 0xE0B38, size: 0x8, addend: 0x0, symName: __ZN5Eigen5BlockINS_6MatrixIdLin1ELin1ELi0ELin1ELin1EEELin1ELi1ELb1EEC1ERS2_l, symObjAddr: 0x4D008, symBinAddr: 0x1000507F8, symSize: 0x3C }
  - { offsetInCU: 0xE0B7E, offset: 0xE0B7E, size: 0x8, addend: 0x0, symName: __ZN5Eigen5BlockINS_6MatrixIdLin1ELin1ELi0ELin1ELin1EEELin1ELi1ELb1EEC2ERS2_l, symObjAddr: 0x4D044, symBinAddr: 0x100050834, symSize: 0xB0 }
  - { offsetInCU: 0xE0BC4, offset: 0xE0BC4, size: 0x8, addend: 0x0, symName: __ZN5Eigen9BlockImplINS_6MatrixIdLin1ELin1ELi0ELin1ELin1EEELin1ELi1ELb1ENS_5DenseEEC2ERS2_l, symObjAddr: 0x4D0F4, symBinAddr: 0x1000508E4, symSize: 0x3C }
  - { offsetInCU: 0xE0C0A, offset: 0xE0C0A, size: 0x8, addend: 0x0, symName: __ZN5Eigen8internal15BlockImpl_denseINS_6MatrixIdLin1ELin1ELi0ELin1ELin1EEELin1ELi1ELb1ELb1EEC2ERS3_l, symObjAddr: 0x4D130, symBinAddr: 0x100050920, symSize: 0xF8 }
  - { offsetInCU: 0xE0C52, offset: 0xE0C52, size: 0x8, addend: 0x0, symName: __ZN5Eigen7MapBaseINS_5BlockINS_6MatrixIdLin1ELin1ELi0ELin1ELin1EEELin1ELi1ELb1EEELi1EEC2EPdll, symObjAddr: 0x4D228, symBinAddr: 0x100050A18, symSize: 0x44 }
  - { offsetInCU: 0xE0CA9, offset: 0xE0CA9, size: 0x8, addend: 0x0, symName: __ZN5Eigen8internal15BlockImpl_denseINS_6MatrixIdLin1ELin1ELi0ELin1ELin1EEELin1ELi1ELb1ELb1EE4initEv, symObjAddr: 0x4D26C, symBinAddr: 0x100050A5C, symSize: 0xB0 }
  - { offsetInCU: 0xE0CCF, offset: 0xE0CCF, size: 0x8, addend: 0x0, symName: __ZN5Eigen7MapBaseINS_5BlockINS_6MatrixIdLin1ELin1ELi0ELin1ELin1EEELin1ELi1ELb1EEELi0EEC2EPdll, symObjAddr: 0x4D31C, symBinAddr: 0x100050B0C, symSize: 0x168 }
  - { offsetInCU: 0xE0D23, offset: 0xE0D23, size: 0x8, addend: 0x0, symName: __ZN5Eigen10MatrixBaseINS_5BlockINS_6MatrixIdLin1ELin1ELi0ELin1ELin1EEELin1ELi1ELb1EEEEC2Ev, symObjAddr: 0x4D484, symBinAddr: 0x100050C74, symSize: 0x2C }
  - { offsetInCU: 0xE0D4D, offset: 0xE0D4D, size: 0x8, addend: 0x0, symName: __ZNK5Eigen7MapBaseINS_5BlockINS_6MatrixIdLin1ELin1ELi0ELin1ELin1EEELin1ELi1ELb1EEELi0EE11checkSanityIS4_EEvNS_8internal9enable_ifIXeqsr8internal6traitsIT_EE9AlignmentLi0EEPvE4typeE, symObjAddr: 0x4D4B0, symBinAddr: 0x100050CA0, symSize: 0x14 }
  - { offsetInCU: 0xE0D86, offset: 0xE0D86, size: 0x8, addend: 0x0, symName: __ZN5Eigen9DenseBaseINS_5BlockINS_6MatrixIdLin1ELin1ELi0ELin1ELin1EEELin1ELi1ELb1EEEEC2Ev, symObjAddr: 0x4D4C4, symBinAddr: 0x100050CB4, symSize: 0x14 }
  - { offsetInCU: 0xE0DB0, offset: 0xE0DB0, size: 0x8, addend: 0x0, symName: __ZNK5Eigen9DenseBaseINS_5BlockIKNS_6MatrixIdLin1ELin1ELi0ELin1ELin1EEELi1ELin1ELb0EEEE9conjugateEv, symObjAddr: 0x4D4D8, symBinAddr: 0x100050CC8, symSize: 0x24 }
  - { offsetInCU: 0xE0DD6, offset: 0xE0DD6, size: 0x8, addend: 0x0, symName: __ZNK5Eigen10MatrixBaseINS_5BlockIKNS_6MatrixIdLin1ELin1ELi0ELin1ELin1EEELi1ELin1ELb0EEEE3dotINS1_IKNS1_IKNS_9TransposeIS4_EELin1ELi1ELb0EEELin1ELi1ELb1EEEEENS_20ScalarBinaryOpTraitsIdNS_8internal6traitsIT_E6ScalarENSF_17scalar_product_opIdSJ_EEE10ReturnTypeERKNS0_ISH_EE, symObjAddr: 0x4D4FC, symBinAddr: 0x100050CEC, symSize: 0x84 }
  - { offsetInCU: 0xE0E15, offset: 0xE0E15, size: 0x8, addend: 0x0, symName: __ZNK5Eigen9DenseBaseINS_5BlockIKNS_9TransposeIKNS_6MatrixIdLin1ELin1ELi0ELin1ELin1EEEEELin1ELi1ELb0EEEE3colEl, symObjAddr: 0x4D580, symBinAddr: 0x100050D70, symSize: 0x3C }
  - { offsetInCU: 0xE0E4A, offset: 0xE0E4A, size: 0x8, addend: 0x0, symName: __ZN5Eigen7MapBaseINS_5BlockINS_6MatrixIdLin1ELin1ELi0ELin1ELin1EEELin1ELi1ELb1EEELi1EE8coeffRefEll, symObjAddr: 0x4D5BC, symBinAddr: 0x100050DAC, symSize: 0xB0 }
  - { offsetInCU: 0xE101C, offset: 0xE101C, size: 0x8, addend: 0x0, symName: __ZN5Eigen8internal19gemv_dense_selectorILi2ELi0ELb1EE3runINS_6MatrixIdLin1ELin1ELi0ELin1ELin1EEENS_5BlockIKNS_9TransposeIKS5_EELin1ELi1ELb0EEENS6_IS5_Lin1ELi1ELb1EEEEEvRKT_RKT0_RT1_RKNSJ_6ScalarE, symObjAddr: 0x4D66C, symBinAddr: 0x100050E5C, symSize: 0x5D8 }
  - { offsetInCU: 0xE128B, offset: 0xE128B, size: 0x8, addend: 0x0, symName: __ZNK5Eigen9EigenBaseINS_5BlockIKNS_6MatrixIdLin1ELin1ELi0ELin1ELin1EEELi1ELin1ELb0EEEE4sizeEv, symObjAddr: 0x4DC44, symBinAddr: 0x100051434, symSize: 0x44 }
  - { offsetInCU: 0xE12B1, offset: 0xE12B1, size: 0x8, addend: 0x0, symName: __ZNK5Eigen9EigenBaseINS_5BlockIKNS1_IKNS_9TransposeIKNS_6MatrixIdLin1ELin1ELi0ELin1ELin1EEEEELin1ELi1ELb0EEELin1ELi1ELb1EEEE4sizeEv, symObjAddr: 0x4DC88, symBinAddr: 0x100051478, symSize: 0x44 }
  - { offsetInCU: 0xE12D7, offset: 0xE12D7, size: 0x8, addend: 0x0, symName: __ZN5Eigen8internal11dot_nocheckINS_5BlockIKNS_6MatrixIdLin1ELin1ELi0ELin1ELin1EEELi1ELin1ELb0EEENS2_IKNS2_IKNS_9TransposeIS5_EELin1ELi1ELb0EEELin1ELi1ELb1EEELb1EE3runERKNS_10MatrixBaseIS6_EERKNSE_ISC_EE, symObjAddr: 0x4DCCC, symBinAddr: 0x1000514BC, symSize: 0x314 }
  - { offsetInCU: 0xE130A, offset: 0xE130A, size: 0x8, addend: 0x0, symName: __ZNK5Eigen9EigenBaseINS_5BlockIKNS_6MatrixIdLin1ELin1ELi0ELin1ELin1EEELi1ELin1ELb0EEEE4rowsEv, symObjAddr: 0x4DFE0, symBinAddr: 0x1000517D0, symSize: 0x28 }
  - { offsetInCU: 0xE1330, offset: 0xE1330, size: 0x8, addend: 0x0, symName: __ZNK5Eigen9EigenBaseINS_5BlockIKNS_6MatrixIdLin1ELin1ELi0ELin1ELin1EEELi1ELin1ELb0EEEE4colsEv, symObjAddr: 0x4E008, symBinAddr: 0x1000517F8, symSize: 0x28 }
  - { offsetInCU: 0xE1356, offset: 0xE1356, size: 0x8, addend: 0x0, symName: __ZNK5Eigen9EigenBaseINS_5BlockIKNS1_IKNS_9TransposeIKNS_6MatrixIdLin1ELin1ELi0ELin1ELin1EEEEELin1ELi1ELb0EEELin1ELi1ELb1EEEE4rowsEv, symObjAddr: 0x4E030, symBinAddr: 0x100051820, symSize: 0x44 }
  - { offsetInCU: 0xE137C, offset: 0xE137C, size: 0x8, addend: 0x0, symName: __ZNK5Eigen9EigenBaseINS_5BlockIKNS1_IKNS_9TransposeIKNS_6MatrixIdLin1ELin1ELi0ELin1ELin1EEEEELin1ELi1ELb0EEELin1ELi1ELb1EEEE4colsEv, symObjAddr: 0x4E074, symBinAddr: 0x100051864, symSize: 0x28 }
  - { offsetInCU: 0xE13A2, offset: 0xE13A2, size: 0x8, addend: 0x0, symName: __ZNK5Eigen9EigenBaseINS_5BlockIKNS1_IKNS_9TransposeIKNS_6MatrixIdLin1ELin1ELi0ELin1ELin1EEEEELin1ELi1ELb0EEELin1ELi1ELb1EEEE7derivedEv, symObjAddr: 0x4E09C, symBinAddr: 0x10005188C, symSize: 0x14 }
  - { offsetInCU: 0xE13C8, offset: 0xE13C8, size: 0x8, addend: 0x0, symName: __ZNK5Eigen7MapBaseINS_5BlockIKNS1_IKNS_9TransposeIKNS_6MatrixIdLin1ELin1ELi0ELin1ELin1EEEEELin1ELi1ELb0EEELin1ELi1ELb1EEELi0EE4rowsEv, symObjAddr: 0x4E0B0, symBinAddr: 0x1000518A0, symSize: 0x28 }
  - { offsetInCU: 0xE13EE, offset: 0xE13EE, size: 0x8, addend: 0x0, symName: __ZNK5Eigen7MapBaseINS_5BlockIKNS1_IKNS_9TransposeIKNS_6MatrixIdLin1ELin1ELi0ELin1ELin1EEEEELin1ELi1ELb0EEELin1ELi1ELb1EEELi0EE4colsEv, symObjAddr: 0x4E0D8, symBinAddr: 0x1000518C8, symSize: 0x20 }
  - { offsetInCU: 0xE1414, offset: 0xE1414, size: 0x8, addend: 0x0, symName: __ZNK5Eigen10MatrixBaseINS_9TransposeIKNS_5BlockIKNS_6MatrixIdLin1ELin1ELi0ELin1ELin1EEELi1ELin1ELb0EEEEEE10binaryExprINS_8internal22scalar_conj_product_opIddEENS2_IKNS2_IKNS1_IS5_EELin1ELi1ELb0EEELin1ELi1ELb1EEEEEKNS_13CwiseBinaryOpIT_KS8_KT0_EERKNS0_ISM_EERKSK_, symObjAddr: 0x4E0F8, symBinAddr: 0x1000518E8, symSize: 0x54 }
  - { offsetInCU: 0xE1468, offset: 0xE1468, size: 0x8, addend: 0x0, symName: __ZN5Eigen8internal22scalar_conj_product_opIddEC1Ev, symObjAddr: 0x4E14C, symBinAddr: 0x10005193C, symSize: 0x2C }
  - { offsetInCU: 0xE1492, offset: 0xE1492, size: 0x8, addend: 0x0, symName: __ZNK5Eigen9DenseBaseINS_13CwiseBinaryOpINS_8internal22scalar_conj_product_opIddEEKNS_9TransposeIKNS_5BlockIKNS_6MatrixIdLin1ELin1ELi0ELin1ELin1EEELi1ELin1ELb0EEEEEKNS6_IKNS6_IKNS5_IS9_EELin1ELi1ELb0EEELin1ELi1ELb1EEEEEE3sumEv, symObjAddr: 0x4E178, symBinAddr: 0x100051968, symSize: 0x230 }
  - { offsetInCU: 0xE14BC, offset: 0xE14BC, size: 0x8, addend: 0x0, symName: __ZN5Eigen13CwiseBinaryOpINS_8internal22scalar_conj_product_opIddEEKNS_9TransposeIKNS_5BlockIKNS_6MatrixIdLin1ELin1ELi0ELin1ELin1EEELi1ELin1ELb0EEEEEKNS5_IKNS5_IKNS4_IS8_EELin1ELi1ELb0EEELin1ELi1ELb1EEEEC1ERSC_RSI_RKS3_, symObjAddr: 0x4E3A8, symBinAddr: 0x100051B98, symSize: 0x44 }
  - { offsetInCU: 0xE1510, offset: 0xE1510, size: 0x8, addend: 0x0, symName: __ZN5Eigen13CwiseBinaryOpINS_8internal22scalar_conj_product_opIddEEKNS_9TransposeIKNS_5BlockIKNS_6MatrixIdLin1ELin1ELi0ELin1ELin1EEELi1ELin1ELb0EEEEEKNS5_IKNS5_IKNS4_IS8_EELin1ELi1ELb0EEELin1ELi1ELb1EEEEC2ERSC_RSI_RKS3_, symObjAddr: 0x4E3EC, symBinAddr: 0x100051BDC, symSize: 0x104 }
  - { offsetInCU: 0xE1569, offset: 0xE1569, size: 0x8, addend: 0x0, symName: __ZN5Eigen17CwiseBinaryOpImplINS_8internal22scalar_conj_product_opIddEEKNS_9TransposeIKNS_5BlockIKNS_6MatrixIdLin1ELin1ELi0ELin1ELin1EEELi1ELin1ELb0EEEEEKNS5_IKNS5_IKNS4_IS8_EELin1ELi1ELb0EEELin1ELi1ELb1EEENS_5DenseEEC2Ev, symObjAddr: 0x4E4F0, symBinAddr: 0x100051CE0, symSize: 0x2C }
  - { offsetInCU: 0xE1595, offset: 0xE1595, size: 0x8, addend: 0x0, symName: __ZN5Eigen8internal22scalar_conj_product_opIddEC1ERKS2_, symObjAddr: 0x4E51C, symBinAddr: 0x100051D0C, symSize: 0x34 }
  - { offsetInCU: 0xE15C9, offset: 0xE15C9, size: 0x8, addend: 0x0, symName: __ZN5Eigen10MatrixBaseINS_13CwiseBinaryOpINS_8internal22scalar_conj_product_opIddEEKNS_9TransposeIKNS_5BlockIKNS_6MatrixIdLin1ELin1ELi0ELin1ELin1EEELi1ELin1ELb0EEEEEKNS6_IKNS6_IKNS5_IS9_EELin1ELi1ELb0EEELin1ELi1ELb1EEEEEEC2Ev, symObjAddr: 0x4E550, symBinAddr: 0x100051D40, symSize: 0x2C }
  - { offsetInCU: 0xE15F3, offset: 0xE15F3, size: 0x8, addend: 0x0, symName: __ZN5Eigen9DenseBaseINS_13CwiseBinaryOpINS_8internal22scalar_conj_product_opIddEEKNS_9TransposeIKNS_5BlockIKNS_6MatrixIdLin1ELin1ELi0ELin1ELin1EEELi1ELin1ELb0EEEEEKNS6_IKNS6_IKNS5_IS9_EELin1ELi1ELb0EEELin1ELi1ELb1EEEEEEC2Ev, symObjAddr: 0x4E57C, symBinAddr: 0x100051D6C, symSize: 0x14 }
  - { offsetInCU: 0xE161D, offset: 0xE161D, size: 0x8, addend: 0x0, symName: __ZN5Eigen8internal22scalar_conj_product_opIddEC2ERKS2_, symObjAddr: 0x4E590, symBinAddr: 0x100051D80, symSize: 0x18 }
  - { offsetInCU: 0xE1651, offset: 0xE1651, size: 0x8, addend: 0x0, symName: __ZN5Eigen8internal22scalar_conj_product_opIddEC2Ev, symObjAddr: 0x4E5A8, symBinAddr: 0x100051D98, symSize: 0x14 }
  - { offsetInCU: 0xE167B, offset: 0xE167B, size: 0x8, addend: 0x0, symName: __ZNK5Eigen9EigenBaseINS_13CwiseBinaryOpINS_8internal22scalar_conj_product_opIddEEKNS_9TransposeIKNS_5BlockIKNS_6MatrixIdLin1ELin1ELi0ELin1ELin1EEELi1ELin1ELb0EEEEEKNS6_IKNS6_IKNS5_IS9_EELin1ELi1ELb0EEELin1ELi1ELb1EEEEEE4sizeEv, symObjAddr: 0x4E5BC, symBinAddr: 0x100051DAC, symSize: 0x44 }
  - { offsetInCU: 0xE16A1, offset: 0xE16A1, size: 0x8, addend: 0x0, symName: __ZNK5Eigen9EigenBaseINS_13CwiseBinaryOpINS_8internal22scalar_conj_product_opIddEEKNS_9TransposeIKNS_5BlockIKNS_6MatrixIdLin1ELin1ELi0ELin1ELin1EEELi1ELin1ELb0EEEEEKNS6_IKNS6_IKNS5_IS9_EELin1ELi1ELb0EEELin1ELi1ELb1EEEEEE7derivedEv, symObjAddr: 0x4E600, symBinAddr: 0x100051DF0, symSize: 0x14 }
  - { offsetInCU: 0xE16C7, offset: 0xE16C7, size: 0x8, addend: 0x0, symName: __ZNK5Eigen9DenseBaseINS_13CwiseBinaryOpINS_8internal22scalar_conj_product_opIddEEKNS_9TransposeIKNS_5BlockIKNS_6MatrixIdLin1ELin1ELi0ELin1ELin1EEELi1ELin1ELb0EEEEEKNS6_IKNS6_IKNS5_IS9_EELin1ELi1ELb0EEELin1ELi1ELb1EEEEEE5reduxINS2_13scalar_sum_opIddEEEEdRKT_, symObjAddr: 0x4E614, symBinAddr: 0x100051E04, symSize: 0x3AC }
  - { offsetInCU: 0xE1729, offset: 0xE1729, size: 0x8, addend: 0x0, symName: __ZNK5Eigen9EigenBaseINS_13CwiseBinaryOpINS_8internal22scalar_conj_product_opIddEEKNS_9TransposeIKNS_5BlockIKNS_6MatrixIdLin1ELin1ELi0ELin1ELin1EEELi1ELin1ELb0EEEEEKNS6_IKNS6_IKNS5_IS9_EELin1ELi1ELb0EEELin1ELi1ELb1EEEEEE4rowsEv, symObjAddr: 0x4E9C0, symBinAddr: 0x1000521B0, symSize: 0x44 }
  - { offsetInCU: 0xE174F, offset: 0xE174F, size: 0x8, addend: 0x0, symName: __ZNK5Eigen9EigenBaseINS_13CwiseBinaryOpINS_8internal22scalar_conj_product_opIddEEKNS_9TransposeIKNS_5BlockIKNS_6MatrixIdLin1ELin1ELi0ELin1ELin1EEELi1ELin1ELb0EEEEEKNS6_IKNS6_IKNS5_IS9_EELin1ELi1ELb0EEELin1ELi1ELb1EEEEEE4colsEv, symObjAddr: 0x4EA04, symBinAddr: 0x1000521F4, symSize: 0x44 }
  - { offsetInCU: 0xE1775, offset: 0xE1775, size: 0x8, addend: 0x0, symName: __ZNK5Eigen13CwiseBinaryOpINS_8internal22scalar_conj_product_opIddEEKNS_9TransposeIKNS_5BlockIKNS_6MatrixIdLin1ELin1ELi0ELin1ELin1EEELi1ELin1ELb0EEEEEKNS5_IKNS5_IKNS4_IS8_EELin1ELi1ELb0EEELin1ELi1ELb1EEEE4rowsEv, symObjAddr: 0x4EA48, symBinAddr: 0x100052238, symSize: 0x28 }
  - { offsetInCU: 0xE179B, offset: 0xE179B, size: 0x8, addend: 0x0, symName: __ZNK5Eigen13CwiseBinaryOpINS_8internal22scalar_conj_product_opIddEEKNS_9TransposeIKNS_5BlockIKNS_6MatrixIdLin1ELin1ELi0ELin1ELin1EEELi1ELin1ELb0EEEEEKNS5_IKNS5_IKNS4_IS8_EELin1ELi1ELb0EEELin1ELi1ELb1EEEE4colsEv, symObjAddr: 0x4EA70, symBinAddr: 0x100052260, symSize: 0x24 }
  - { offsetInCU: 0xE1843, offset: 0xE1843, size: 0x8, addend: 0x0, symName: __ZN5Eigen8internal15redux_evaluatorINS_13CwiseBinaryOpINS0_22scalar_conj_product_opIddEEKNS_9TransposeIKNS_5BlockIKNS_6MatrixIdLin1ELin1ELi0ELin1ELin1EEELi1ELin1ELb0EEEEEKNS6_IKNS6_IKNS5_IS9_EELin1ELi1ELb0EEELin1ELi1ELb1EEEEEEC1ERKSK_, symObjAddr: 0x4EA94, symBinAddr: 0x100052284, symSize: 0x34 }
  - { offsetInCU: 0xE1881, offset: 0xE1881, size: 0x8, addend: 0x0, symName: __ZN5Eigen8internal10redux_implINS0_13scalar_sum_opIddEENS0_15redux_evaluatorINS_13CwiseBinaryOpINS0_22scalar_conj_product_opIddEEKNS_9TransposeIKNS_5BlockIKNS_6MatrixIdLin1ELin1ELi0ELin1ELin1EEELi1ELin1ELb0EEEEEKNS9_IKNS9_IKNS8_ISC_EELin1ELi1ELb0EEELin1ELi1ELb1EEEEEEELi0ELi0EE3runISN_EEdRKSO_RKS3_RKT_, symObjAddr: 0x4EAC8, symBinAddr: 0x1000522B8, symSize: 0x594 }
  - { offsetInCU: 0xE1935, offset: 0xE1935, size: 0x8, addend: 0x0, symName: __ZN5Eigen8internal15redux_evaluatorINS_13CwiseBinaryOpINS0_22scalar_conj_product_opIddEEKNS_9TransposeIKNS_5BlockIKNS_6MatrixIdLin1ELin1ELi0ELin1ELin1EEELi1ELin1ELb0EEEEEKNS6_IKNS6_IKNS5_IS9_EELin1ELi1ELb0EEELin1ELi1ELb1EEEEEED1Ev, symObjAddr: 0x4F05C, symBinAddr: 0x10005284C, symSize: 0x2C }
  - { offsetInCU: 0xE1962, offset: 0xE1962, size: 0x8, addend: 0x0, symName: __ZN5Eigen8internal15redux_evaluatorINS_13CwiseBinaryOpINS0_22scalar_conj_product_opIddEEKNS_9TransposeIKNS_5BlockIKNS_6MatrixIdLin1ELin1ELi0ELin1ELin1EEELi1ELin1ELb0EEEEEKNS6_IKNS6_IKNS5_IS9_EELin1ELi1ELb0EEELin1ELi1ELb1EEEEEEC2ERKSK_, symObjAddr: 0x4F088, symBinAddr: 0x100052878, symSize: 0x34 }
  - { offsetInCU: 0xE199B, offset: 0xE199B, size: 0x8, addend: 0x0, symName: __ZN5Eigen8internal9evaluatorINS_13CwiseBinaryOpINS0_22scalar_conj_product_opIddEEKNS_9TransposeIKNS_5BlockIKNS_6MatrixIdLin1ELin1ELi0ELin1ELin1EEELi1ELin1ELb0EEEEEKNS6_IKNS6_IKNS5_IS9_EELin1ELi1ELb0EEELin1ELi1ELb1EEEEEEC2ERKSK_, symObjAddr: 0x4F0BC, symBinAddr: 0x1000528AC, symSize: 0x34 }
  - { offsetInCU: 0xE19D4, offset: 0xE19D4, size: 0x8, addend: 0x0, symName: __ZN5Eigen8internal16binary_evaluatorINS_13CwiseBinaryOpINS0_22scalar_conj_product_opIddEEKNS_9TransposeIKNS_5BlockIKNS_6MatrixIdLin1ELin1ELi0ELin1ELin1EEELi1ELin1ELb0EEEEEKNS6_IKNS6_IKNS5_IS9_EELin1ELi1ELb0EEELin1ELi1ELb1EEEEENS0_10IndexBasedESL_ddEC2ERKSK_, symObjAddr: 0x4F0F0, symBinAddr: 0x1000528E0, symSize: 0x64 }
  - { offsetInCU: 0xE1A0D, offset: 0xE1A0D, size: 0x8, addend: 0x0, symName: __ZN5Eigen8internal14evaluator_baseINS_13CwiseBinaryOpINS0_22scalar_conj_product_opIddEEKNS_9TransposeIKNS_5BlockIKNS_6MatrixIdLin1ELin1ELi0ELin1ELin1EEELi1ELin1ELb0EEEEEKNS6_IKNS6_IKNS5_IS9_EELin1ELi1ELb0EEELin1ELi1ELb1EEEEEEC2Ev, symObjAddr: 0x4F154, symBinAddr: 0x100052944, symSize: 0x14 }
  - { offsetInCU: 0xE1A37, offset: 0xE1A37, size: 0x8, addend: 0x0, symName: __ZN5Eigen8internal16binary_evaluatorINS_13CwiseBinaryOpINS0_22scalar_conj_product_opIddEEKNS_9TransposeIKNS_5BlockIKNS_6MatrixIdLin1ELin1ELi0ELin1ELin1EEELi1ELin1ELb0EEEEEKNS6_IKNS6_IKNS5_IS9_EELin1ELi1ELb0EEELin1ELi1ELb1EEEEENS0_10IndexBasedESL_ddE4DataC1ERKSK_, symObjAddr: 0x4F168, symBinAddr: 0x100052958, symSize: 0x34 }
  - { offsetInCU: 0xE1A70, offset: 0xE1A70, size: 0x8, addend: 0x0, symName: __ZN5Eigen8internal14evaluator_baseINS_13CwiseBinaryOpINS0_22scalar_conj_product_opIddEEKNS_9TransposeIKNS_5BlockIKNS_6MatrixIdLin1ELin1ELi0ELin1ELin1EEELi1ELin1ELb0EEEEEKNS6_IKNS6_IKNS5_IS9_EELin1ELi1ELb0EEELin1ELi1ELb1EEEEEED2Ev, symObjAddr: 0x4F19C, symBinAddr: 0x10005298C, symSize: 0x14 }
  - { offsetInCU: 0xE1A9A, offset: 0xE1A9A, size: 0x8, addend: 0x0, symName: __ZN5Eigen8internal16binary_evaluatorINS_13CwiseBinaryOpINS0_22scalar_conj_product_opIddEEKNS_9TransposeIKNS_5BlockIKNS_6MatrixIdLin1ELin1ELi0ELin1ELin1EEELi1ELin1ELb0EEEEEKNS6_IKNS6_IKNS5_IS9_EELin1ELi1ELb0EEELin1ELi1ELb1EEEEENS0_10IndexBasedESL_ddE4DataC2ERKSK_, symObjAddr: 0x4F1B0, symBinAddr: 0x1000529A0, symSize: 0xA8 }
  - { offsetInCU: 0xE1AD3, offset: 0xE1AD3, size: 0x8, addend: 0x0, symName: __ZNK5Eigen13CwiseBinaryOpINS_8internal22scalar_conj_product_opIddEEKNS_9TransposeIKNS_5BlockIKNS_6MatrixIdLin1ELin1ELi0ELin1ELin1EEELi1ELin1ELb0EEEEEKNS5_IKNS5_IKNS4_IS8_EELin1ELi1ELb0EEELin1ELi1ELb1EEEE7functorEv, symObjAddr: 0x4F258, symBinAddr: 0x100052A48, symSize: 0x18 }
  - { offsetInCU: 0xE1AF9, offset: 0xE1AF9, size: 0x8, addend: 0x0, symName: __ZNK5Eigen13CwiseBinaryOpINS_8internal22scalar_conj_product_opIddEEKNS_9TransposeIKNS_5BlockIKNS_6MatrixIdLin1ELin1ELi0ELin1ELin1EEELi1ELin1ELb0EEEEEKNS5_IKNS5_IKNS4_IS8_EELin1ELi1ELb0EEELin1ELi1ELb1EEEE3lhsEv, symObjAddr: 0x4F270, symBinAddr: 0x100052A60, symSize: 0x14 }
  - { offsetInCU: 0xE1B1F, offset: 0xE1B1F, size: 0x8, addend: 0x0, symName: __ZNK5Eigen13CwiseBinaryOpINS_8internal22scalar_conj_product_opIddEEKNS_9TransposeIKNS_5BlockIKNS_6MatrixIdLin1ELin1ELi0ELin1ELin1EEELi1ELin1ELb0EEEEEKNS5_IKNS5_IKNS4_IS8_EELin1ELi1ELb0EEELin1ELi1ELb1EEEE3rhsEv, symObjAddr: 0x4F284, symBinAddr: 0x100052A74, symSize: 0x18 }
  - { offsetInCU: 0xE1B45, offset: 0xE1B45, size: 0x8, addend: 0x0, symName: __ZN5Eigen8internal9evaluatorIKNS_5BlockIKNS2_IKNS_9TransposeIKNS_6MatrixIdLin1ELin1ELi0ELin1ELin1EEEEELin1ELi1ELb0EEELin1ELi1ELb1EEEEC1ERSC_, symObjAddr: 0x4F29C, symBinAddr: 0x100052A8C, symSize: 0x34 }
  - { offsetInCU: 0xE1B7D, offset: 0xE1B7D, size: 0x8, addend: 0x0, symName: __ZN5Eigen8internal9evaluatorIKNS_5BlockIKNS2_IKNS_9TransposeIKNS_6MatrixIdLin1ELin1ELi0ELin1ELin1EEEEELin1ELi1ELb0EEELin1ELi1ELb1EEEEC2ERSC_, symObjAddr: 0x4F2D0, symBinAddr: 0x100052AC0, symSize: 0x34 }
  - { offsetInCU: 0xE1BB5, offset: 0xE1BB5, size: 0x8, addend: 0x0, symName: __ZN5Eigen8internal9evaluatorINS_5BlockIKNS2_IKNS_9TransposeIKNS_6MatrixIdLin1ELin1ELi0ELin1ELin1EEEEELin1ELi1ELb0EEELin1ELi1ELb1EEEEC2ERKSB_, symObjAddr: 0x4F304, symBinAddr: 0x100052AF4, symSize: 0x34 }
  - { offsetInCU: 0xE1BEE, offset: 0xE1BEE, size: 0x8, addend: 0x0, symName: __ZN5Eigen8internal15block_evaluatorIKNS_5BlockIKNS_9TransposeIKNS_6MatrixIdLin1ELin1ELi0ELin1ELin1EEEEELin1ELi1ELb0EEELin1ELi1ELb1ELb1EEC2ERKNS2_ISA_Lin1ELi1ELb1EEE, symObjAddr: 0x4F338, symBinAddr: 0x100052B28, symSize: 0xE0 }
  - { offsetInCU: 0xE1C27, offset: 0xE1C27, size: 0x8, addend: 0x0, symName: __ZN5Eigen8internal17mapbase_evaluatorINS_5BlockIKNS2_IKNS_9TransposeIKNS_6MatrixIdLin1ELin1ELi0ELin1ELin1EEEEELin1ELi1ELb0EEELin1ELi1ELb1EEENS4_IdLin1ELi1ELi0ELin1ELi1EEEEC2ERKSB_, symObjAddr: 0x4F418, symBinAddr: 0x100052C08, symSize: 0xF0 }
  - { offsetInCU: 0xE1C60, offset: 0xE1C60, size: 0x8, addend: 0x0, symName: __ZNK5Eigen7MapBaseINS_5BlockIKNS1_IKNS_9TransposeIKNS_6MatrixIdLin1ELin1ELi0ELin1ELin1EEEEELin1ELi1ELb0EEELin1ELi1ELb1EEELi0EE4dataEv, symObjAddr: 0x4F508, symBinAddr: 0x100052CF8, symSize: 0x60 }
  - { offsetInCU: 0xE1C86, offset: 0xE1C86, size: 0x8, addend: 0x0, symName: __ZN5Eigen8internal17mapbase_evaluatorINS_5BlockIKNS2_IKNS_9TransposeIKNS_6MatrixIdLin1ELin1ELi0ELin1ELin1EEEEELin1ELi1ELb0EEELin1ELi1ELb1EEENS4_IdLin1ELi1ELi0ELin1ELi1EEEED2Ev, symObjAddr: 0x4F568, symBinAddr: 0x100052D58, symSize: 0x2C }
  - { offsetInCU: 0xE1CB3, offset: 0xE1CB3, size: 0x8, addend: 0x0, symName: __ZN5Eigen8internal14evaluator_baseINS_5BlockIKNS2_IKNS_9TransposeIKNS_6MatrixIdLin1ELin1ELi0ELin1ELin1EEEEELin1ELi1ELb0EEELin1ELi1ELb1EEEEC2Ev, symObjAddr: 0x4F594, symBinAddr: 0x100052D84, symSize: 0x14 }
  - { offsetInCU: 0xE1CDD, offset: 0xE1CDD, size: 0x8, addend: 0x0, symName: __ZNK5Eigen8internal15BlockImpl_denseIKNS_5BlockIKNS_9TransposeIKNS_6MatrixIdLin1ELin1ELi0ELin1ELin1EEEEELin1ELi1ELb0EEELin1ELi1ELb1ELb1EE11innerStrideEv, symObjAddr: 0x4F5A8, symBinAddr: 0x100052D98, symSize: 0x28 }
  - { offsetInCU: 0xE1D03, offset: 0xE1D03, size: 0x8, addend: 0x0, symName: __ZNK5Eigen8internal15BlockImpl_denseIKNS_5BlockIKNS_9TransposeIKNS_6MatrixIdLin1ELin1ELi0ELin1ELin1EEEEELin1ELi1ELb0EEELin1ELi1ELb1ELb1EE11outerStrideEv, symObjAddr: 0x4F5D0, symBinAddr: 0x100052DC0, symSize: 0x28 }
  - { offsetInCU: 0xE1D29, offset: 0xE1D29, size: 0x8, addend: 0x0, symName: __ZN5Eigen8internal14evaluator_baseINS_5BlockIKNS2_IKNS_9TransposeIKNS_6MatrixIdLin1ELin1ELi0ELin1ELin1EEEEELin1ELi1ELb0EEELin1ELi1ELb1EEEED2Ev, symObjAddr: 0x4F5F8, symBinAddr: 0x100052DE8, symSize: 0x14 }
  - { offsetInCU: 0xE1D53, offset: 0xE1D53, size: 0x8, addend: 0x0, symName: __ZNK5Eigen8internal15redux_evaluatorINS_13CwiseBinaryOpINS0_22scalar_conj_product_opIddEEKNS_9TransposeIKNS_5BlockIKNS_6MatrixIdLin1ELin1ELi0ELin1ELin1EEELi1ELin1ELb0EEEEEKNS6_IKNS6_IKNS5_IS9_EELin1ELi1ELb0EEELin1ELi1ELb1EEEEEE17coeffByOuterInnerEll, symObjAddr: 0x4F60C, symBinAddr: 0x100052DFC, symSize: 0x34 }
  - { offsetInCU: 0xE1D97, offset: 0xE1D97, size: 0x8, addend: 0x0, symName: __ZNK5Eigen9DenseBaseINS_13CwiseBinaryOpINS_8internal22scalar_conj_product_opIddEEKNS_9TransposeIKNS_5BlockIKNS_6MatrixIdLin1ELin1ELi0ELin1ELin1EEELi1ELin1ELb0EEEEEKNS6_IKNS6_IKNS5_IS9_EELin1ELi1ELb0EEELin1ELi1ELb1EEEEEE9innerSizeEv, symObjAddr: 0x4F640, symBinAddr: 0x100052E30, symSize: 0x24 }
  - { offsetInCU: 0xE1DBD, offset: 0xE1DBD, size: 0x8, addend: 0x0, symName: __ZNK5Eigen9DenseBaseINS_13CwiseBinaryOpINS_8internal22scalar_conj_product_opIddEEKNS_9TransposeIKNS_5BlockIKNS_6MatrixIdLin1ELin1ELi0ELin1ELin1EEELi1ELin1ELb0EEEEEKNS6_IKNS6_IKNS5_IS9_EELin1ELi1ELb0EEELin1ELi1ELb1EEEEEE9outerSizeEv, symObjAddr: 0x4F664, symBinAddr: 0x100052E54, symSize: 0x14 }
  - { offsetInCU: 0xE1DE3, offset: 0xE1DE3, size: 0x8, addend: 0x0, symName: __ZNK5Eigen8internal16binary_evaluatorINS_13CwiseBinaryOpINS0_22scalar_conj_product_opIddEEKNS_9TransposeIKNS_5BlockIKNS_6MatrixIdLin1ELin1ELi0ELin1ELin1EEELi1ELin1ELb0EEEEEKNS6_IKNS6_IKNS5_IS9_EELin1ELi1ELb0EEELin1ELi1ELb1EEEEENS0_10IndexBasedESL_ddE5coeffEll, symObjAddr: 0x4F678, symBinAddr: 0x100052E68, symSize: 0x2E4 }
  - { offsetInCU: 0xE1E2A, offset: 0xE1E2A, size: 0x8, addend: 0x0, symName: __ZNK5Eigen8internal16binary_evaluatorINS_13CwiseBinaryOpINS0_22scalar_conj_product_opIddEEKNS_9TransposeIKNS_5BlockIKNS_6MatrixIdLin1ELin1ELi0ELin1ELin1EEELi1ELin1ELb0EEEEEKNS6_IKNS6_IKNS5_IS9_EELin1ELi1ELb0EEELin1ELi1ELb1EEEEENS0_10IndexBasedESL_ddE4Data4funcEv, symObjAddr: 0x4F95C, symBinAddr: 0x10005314C, symSize: 0x14 }
  - { offsetInCU: 0xE1E50, offset: 0xE1E50, size: 0x8, addend: 0x0, symName: __ZNK5Eigen8internal22scalar_conj_product_opIddEclERKdS4_, symObjAddr: 0x4F970, symBinAddr: 0x100053160, symSize: 0x1E4 }
  - { offsetInCU: 0xE1E95, offset: 0xE1E95, size: 0x8, addend: 0x0, symName: __ZNK5Eigen8internal17mapbase_evaluatorINS_5BlockIKNS2_IKNS_9TransposeIKNS_6MatrixIdLin1ELin1ELi0ELin1ELin1EEEEELin1ELi1ELb0EEELin1ELi1ELb1EEENS4_IdLin1ELi1ELi0ELin1ELi1EEEE5coeffEll, symObjAddr: 0x4FB54, symBinAddr: 0x100053344, symSize: 0xEC }
  - { offsetInCU: 0xE1EE3, offset: 0xE1EE3, size: 0x8, addend: 0x0, symName: __ZNK5Eigen8internal11conj_helperIddLb0ELb0EE4pmulERKdS4_, symObjAddr: 0x4FC40, symBinAddr: 0x100053430, symSize: 0x224 }
  - { offsetInCU: 0xE1F32, offset: 0xE1F32, size: 0x8, addend: 0x0, symName: __ZNK5Eigen8internal7conj_ifILb0EE5pconjIdEERKT_S6_, symObjAddr: 0x4FF14, symBinAddr: 0x100053704, symSize: 0x18 }
  - { offsetInCU: 0xE1F6F, offset: 0xE1F6F, size: 0x8, addend: 0x0, symName: __ZNK5Eigen8internal17mapbase_evaluatorINS_5BlockIKNS2_IKNS_9TransposeIKNS_6MatrixIdLin1ELin1ELi0ELin1ELin1EEEEELin1ELi1ELb0EEELin1ELi1ELb1EEENS4_IdLin1ELi1ELi0ELin1ELi1EEEE9colStrideEv, symObjAddr: 0x4FF2C, symBinAddr: 0x10005371C, symSize: 0x20 }
  - { offsetInCU: 0xE1F95, offset: 0xE1F95, size: 0x8, addend: 0x0, symName: __ZNK5Eigen8internal17mapbase_evaluatorINS_5BlockIKNS2_IKNS_9TransposeIKNS_6MatrixIdLin1ELin1ELi0ELin1ELin1EEEEELin1ELi1ELb0EEELin1ELi1ELb1EEENS4_IdLin1ELi1ELi0ELin1ELi1EEEE9rowStrideEv, symObjAddr: 0x4FF4C, symBinAddr: 0x10005373C, symSize: 0x28 }
  - { offsetInCU: 0xE1FBB, offset: 0xE1FBB, size: 0x8, addend: 0x0, symName: __ZN5Eigen8internal15redux_evaluatorINS_13CwiseBinaryOpINS0_22scalar_conj_product_opIddEEKNS_9TransposeIKNS_5BlockIKNS_6MatrixIdLin1ELin1ELi0ELin1ELin1EEELi1ELin1ELb0EEEEEKNS6_IKNS6_IKNS5_IS9_EELin1ELi1ELb0EEELin1ELi1ELb1EEEEEED2Ev, symObjAddr: 0x4FF74, symBinAddr: 0x100053764, symSize: 0x2C }
  - { offsetInCU: 0xE1FE8, offset: 0xE1FE8, size: 0x8, addend: 0x0, symName: __ZN5Eigen8internal9evaluatorINS_13CwiseBinaryOpINS0_22scalar_conj_product_opIddEEKNS_9TransposeIKNS_5BlockIKNS_6MatrixIdLin1ELin1ELi0ELin1ELin1EEELi1ELin1ELb0EEEEEKNS6_IKNS6_IKNS5_IS9_EELin1ELi1ELb0EEELin1ELi1ELb1EEEEEED2Ev, symObjAddr: 0x4FFA0, symBinAddr: 0x100053790, symSize: 0x2C }
  - { offsetInCU: 0xE2015, offset: 0xE2015, size: 0x8, addend: 0x0, symName: __ZN5Eigen8internal16binary_evaluatorINS_13CwiseBinaryOpINS0_22scalar_conj_product_opIddEEKNS_9TransposeIKNS_5BlockIKNS_6MatrixIdLin1ELin1ELi0ELin1ELin1EEELi1ELin1ELb0EEEEEKNS6_IKNS6_IKNS5_IS9_EELin1ELi1ELb0EEELin1ELi1ELb1EEEEENS0_10IndexBasedESL_ddED2Ev, symObjAddr: 0x4FFCC, symBinAddr: 0x1000537BC, symSize: 0x34 }
  - { offsetInCU: 0xE2041, offset: 0xE2041, size: 0x8, addend: 0x0, symName: __ZN5Eigen8internal16binary_evaluatorINS_13CwiseBinaryOpINS0_22scalar_conj_product_opIddEEKNS_9TransposeIKNS_5BlockIKNS_6MatrixIdLin1ELin1ELi0ELin1ELin1EEELi1ELin1ELb0EEEEEKNS6_IKNS6_IKNS5_IS9_EELin1ELi1ELb0EEELin1ELi1ELb1EEEEENS0_10IndexBasedESL_ddE4DataD1Ev, symObjAddr: 0x50000, symBinAddr: 0x1000537F0, symSize: 0x2C }
  - { offsetInCU: 0xE206E, offset: 0xE206E, size: 0x8, addend: 0x0, symName: __ZN5Eigen8internal16binary_evaluatorINS_13CwiseBinaryOpINS0_22scalar_conj_product_opIddEEKNS_9TransposeIKNS_5BlockIKNS_6MatrixIdLin1ELin1ELi0ELin1ELin1EEELi1ELin1ELb0EEEEEKNS6_IKNS6_IKNS5_IS9_EELin1ELi1ELb0EEELin1ELi1ELb1EEEEENS0_10IndexBasedESL_ddE4DataD2Ev, symObjAddr: 0x5002C, symBinAddr: 0x10005381C, symSize: 0x3C }
  - { offsetInCU: 0xE209B, offset: 0xE209B, size: 0x8, addend: 0x0, symName: __ZN5Eigen8internal9evaluatorIKNS_5BlockIKNS2_IKNS_9TransposeIKNS_6MatrixIdLin1ELin1ELi0ELin1ELin1EEEEELin1ELi1ELb0EEELin1ELi1ELb1EEEED1Ev, symObjAddr: 0x50068, symBinAddr: 0x100053858, symSize: 0x2C }
  - { offsetInCU: 0xE20C7, offset: 0xE20C7, size: 0x8, addend: 0x0, symName: __ZN5Eigen8internal9evaluatorIKNS_5BlockIKNS2_IKNS_9TransposeIKNS_6MatrixIdLin1ELin1ELi0ELin1ELin1EEEEELin1ELi1ELb0EEELin1ELi1ELb1EEEED2Ev, symObjAddr: 0x50094, symBinAddr: 0x100053884, symSize: 0x2C }
  - { offsetInCU: 0xE20F3, offset: 0xE20F3, size: 0x8, addend: 0x0, symName: __ZN5Eigen8internal9evaluatorINS_5BlockIKNS2_IKNS_9TransposeIKNS_6MatrixIdLin1ELin1ELi0ELin1ELin1EEEEELin1ELi1ELb0EEELin1ELi1ELb1EEEED2Ev, symObjAddr: 0x500C0, symBinAddr: 0x1000538B0, symSize: 0x2C }
  - { offsetInCU: 0xE2120, offset: 0xE2120, size: 0x8, addend: 0x0, symName: __ZN5Eigen8internal15block_evaluatorIKNS_5BlockIKNS_9TransposeIKNS_6MatrixIdLin1ELin1ELi0ELin1ELin1EEEEELin1ELi1ELb0EEELin1ELi1ELb1ELb1EED2Ev, symObjAddr: 0x500EC, symBinAddr: 0x1000538DC, symSize: 0x2C }
  - { offsetInCU: 0xE214D, offset: 0xE214D, size: 0x8, addend: 0x0, symName: __ZN5Eigen5BlockIKNS0_IKNS_9TransposeIKNS_6MatrixIdLin1ELin1ELi0ELin1ELin1EEEEELin1ELi1ELb0EEELin1ELi1ELb1EEC1ERS8_l, symObjAddr: 0x50118, symBinAddr: 0x100053908, symSize: 0x3C }
  - { offsetInCU: 0xE2193, offset: 0xE2193, size: 0x8, addend: 0x0, symName: __ZN5Eigen5BlockIKNS0_IKNS_9TransposeIKNS_6MatrixIdLin1ELin1ELi0ELin1ELin1EEEEELin1ELi1ELb0EEELin1ELi1ELb1EEC2ERS8_l, symObjAddr: 0x50154, symBinAddr: 0x100053944, symSize: 0xB0 }
  - { offsetInCU: 0xE21D9, offset: 0xE21D9, size: 0x8, addend: 0x0, symName: __ZN5Eigen9BlockImplIKNS_5BlockIKNS_9TransposeIKNS_6MatrixIdLin1ELin1ELi0ELin1ELin1EEEEELin1ELi1ELb0EEELin1ELi1ELb1ENS_5DenseEEC2ERS9_l, symObjAddr: 0x50204, symBinAddr: 0x1000539F4, symSize: 0x3C }
  - { offsetInCU: 0xE221F, offset: 0xE221F, size: 0x8, addend: 0x0, symName: __ZN5Eigen8internal15BlockImpl_denseIKNS_5BlockIKNS_9TransposeIKNS_6MatrixIdLin1ELin1ELi0ELin1ELin1EEEEELin1ELi1ELb0EEELin1ELi1ELb1ELb1EEC2ERSA_l, symObjAddr: 0x50240, symBinAddr: 0x100053A30, symSize: 0xB8 }
  - { offsetInCU: 0xE2267, offset: 0xE2267, size: 0x8, addend: 0x0, symName: __ZN5Eigen7MapBaseINS_5BlockIKNS1_IKNS_9TransposeIKNS_6MatrixIdLin1ELin1ELi0ELin1ELin1EEEEELin1ELi1ELb0EEELin1ELi1ELb1EEELi0EEC2EPKdll, symObjAddr: 0x502F8, symBinAddr: 0x100053AE8, symSize: 0x168 }
  - { offsetInCU: 0xE22BB, offset: 0xE22BB, size: 0x8, addend: 0x0, symName: __ZN5Eigen8internal19variable_if_dynamicIlLi0EEC1El, symObjAddr: 0x50460, symBinAddr: 0x100053C50, symSize: 0x34 }
  - { offsetInCU: 0xE22F3, offset: 0xE22F3, size: 0x8, addend: 0x0, symName: __ZN5Eigen8internal15BlockImpl_denseIKNS_5BlockIKNS_9TransposeIKNS_6MatrixIdLin1ELin1ELi0ELin1ELin1EEEEELin1ELi1ELb0EEELin1ELi1ELb1ELb1EE4initEv, symObjAddr: 0x50494, symBinAddr: 0x100053C84, symSize: 0x80 }
  - { offsetInCU: 0xE2319, offset: 0xE2319, size: 0x8, addend: 0x0, symName: __ZN5Eigen10MatrixBaseINS_5BlockIKNS1_IKNS_9TransposeIKNS_6MatrixIdLin1ELin1ELi0ELin1ELin1EEEEELin1ELi1ELb0EEELin1ELi1ELb1EEEEC2Ev, symObjAddr: 0x50514, symBinAddr: 0x100053D04, symSize: 0x2C }
  - { offsetInCU: 0xE2343, offset: 0xE2343, size: 0x8, addend: 0x0, symName: __ZNK5Eigen7MapBaseINS_5BlockIKNS1_IKNS_9TransposeIKNS_6MatrixIdLin1ELin1ELi0ELin1ELin1EEEEELin1ELi1ELb0EEELin1ELi1ELb1EEELi0EE11checkSanityISA_EEvNS_8internal9enable_ifIXeqsr8internal6traitsIT_EE9AlignmentLi0EEPvE4typeE, symObjAddr: 0x50540, symBinAddr: 0x100053D30, symSize: 0x14 }
  - { offsetInCU: 0xE237C, offset: 0xE237C, size: 0x8, addend: 0x0, symName: __ZN5Eigen9DenseBaseINS_5BlockIKNS1_IKNS_9TransposeIKNS_6MatrixIdLin1ELin1ELi0ELin1ELin1EEEEELin1ELi1ELb0EEELin1ELi1ELb1EEEEC2Ev, symObjAddr: 0x50554, symBinAddr: 0x100053D44, symSize: 0x14 }
  - { offsetInCU: 0xE23A6, offset: 0xE23A6, size: 0x8, addend: 0x0, symName: __ZN5Eigen8internal19variable_if_dynamicIlLi0EEC2El, symObjAddr: 0x50568, symBinAddr: 0x100053D58, symSize: 0x68 }
  - { offsetInCU: 0xE23DE, offset: 0xE23DE, size: 0x8, addend: 0x0, symName: __ZNK5Eigen15DenseCoeffsBaseINS_5BlockINS_6MatrixIdLin1ELin1ELi0ELin1ELin1EEELin1ELi1ELb1EEELi3EE9colStrideEv, symObjAddr: 0x505D0, symBinAddr: 0x100053DC0, symSize: 0x24 }
  - { offsetInCU: 0xE2404, offset: 0xE2404, size: 0x8, addend: 0x0, symName: __ZNK5Eigen15DenseCoeffsBaseINS_5BlockINS_6MatrixIdLin1ELin1ELi0ELin1ELin1EEELin1ELi1ELb1EEELi3EE9rowStrideEv, symObjAddr: 0x505F4, symBinAddr: 0x100053DE4, symSize: 0x24 }
  - { offsetInCU: 0xE242A, offset: 0xE242A, size: 0x8, addend: 0x0, symName: __ZNK5Eigen15DenseCoeffsBaseINS_5BlockINS_6MatrixIdLin1ELin1ELi0ELin1ELin1EEELin1ELi1ELb1EEELi3EE11outerStrideEv, symObjAddr: 0x50618, symBinAddr: 0x100053E08, symSize: 0x44 }
  - { offsetInCU: 0xE2450, offset: 0xE2450, size: 0x8, addend: 0x0, symName: __ZNK5Eigen9EigenBaseINS_5BlockINS_6MatrixIdLin1ELin1ELi0ELin1ELin1EEELin1ELi1ELb1EEEE7derivedEv, symObjAddr: 0x5065C, symBinAddr: 0x100053E4C, symSize: 0x14 }
  - { offsetInCU: 0xE2476, offset: 0xE2476, size: 0x8, addend: 0x0, symName: __ZNK5Eigen8internal15BlockImpl_denseINS_6MatrixIdLin1ELin1ELi0ELin1ELin1EEELin1ELi1ELb1ELb1EE11outerStrideEv, symObjAddr: 0x50670, symBinAddr: 0x100053E60, symSize: 0x68 }
  - { offsetInCU: 0xE249C, offset: 0xE249C, size: 0x8, addend: 0x0, symName: __ZNK5Eigen15DenseCoeffsBaseINS_5BlockINS_6MatrixIdLin1ELin1ELi0ELin1ELin1EEELin1ELi1ELb1EEELi3EE11innerStrideEv, symObjAddr: 0x506D8, symBinAddr: 0x100053EC8, symSize: 0x28 }
  - { offsetInCU: 0xE24C2, offset: 0xE24C2, size: 0x8, addend: 0x0, symName: __ZNK5Eigen8internal15BlockImpl_denseINS_6MatrixIdLin1ELin1ELi0ELin1ELin1EEELin1ELi1ELb1ELb1EE11innerStrideEv, symObjAddr: 0x50700, symBinAddr: 0x100053EF0, symSize: 0x68 }
  - { offsetInCU: 0xE24E8, offset: 0xE24E8, size: 0x8, addend: 0x0, symName: __ZN5Eigen8internal11blas_traitsINS_5BlockIKNS_9TransposeIKNS_6MatrixIdLin1ELin1ELi0ELin1ELin1EEEEELin1ELi1ELb0EEEE7extractERKS9_, symObjAddr: 0x50768, symBinAddr: 0x100053F58, symSize: 0x14 }
  - { offsetInCU: 0xE250C, offset: 0xE250C, size: 0x8, addend: 0x0, symName: __ZN5Eigen8internal10get_factorIddE3runERKd, symObjAddr: 0x5077C, symBinAddr: 0x100053F6C, symSize: 0x24 }
  - { offsetInCU: 0xE25D6, offset: 0xE25D6, size: 0x8, addend: 0x0, symName: __ZN5Eigen7MapBaseINS_5BlockINS_6MatrixIdLin1ELin1ELi0ELin1ELin1EEELin1ELi1ELb1EEELi1EE4dataEv, symObjAddr: 0x554A8, symBinAddr: 0x100058C98, symSize: 0x60 }
  - { offsetInCU: 0xE25FC, offset: 0xE25FC, size: 0x8, addend: 0x0, symName: __ZN5Eigen8internal11blas_traitsINS_5BlockIKNS_9TransposeIKNS_6MatrixIdLin1ELin1ELi0ELin1ELin1EEEEELin1ELi1ELb0EEEE19extractScalarFactorERKS9_, symObjAddr: 0x55508, symBinAddr: 0x100058CF8, symSize: 0x14 }
  - { offsetInCU: 0xE261C, offset: 0xE261C, size: 0x8, addend: 0x0, symName: __ZN5Eigen8internal17real_default_implIdLb0EE3runERKd, symObjAddr: 0x55540, symBinAddr: 0x100058D30, symSize: 0x60 }
  - { offsetInCU: 0xE263F, offset: 0xE263F, size: 0x8, addend: 0x0, symName: __ZNK5Eigen8internal16blas_data_mapperIKdlLi0ELi0ELi1EE6strideEv, symObjAddr: 0x555A0, symBinAddr: 0x100058D90, symSize: 0x64 }
  - { offsetInCU: 0xE266F, offset: 0xE266F, size: 0x8, addend: 0x0, symName: __ZNK5Eigen8internal11conj_helperI19__simd128_float64_tS2_Lb0ELb0EE5pmaddERKS2_S5_S5_, symObjAddr: 0x55604, symBinAddr: 0x100058DF4, symSize: 0x22C }
  - { offsetInCU: 0xE26C3, offset: 0xE26C3, size: 0x8, addend: 0x0, symName: __ZNK5Eigen8internal7conj_ifILb0EE5pconjI19__simd128_float64_tEERKT_S7_, symObjAddr: 0x558E4, symBinAddr: 0x1000590D4, symSize: 0x18 }
  - { offsetInCU: 0xE2700, offset: 0xE2700, size: 0x8, addend: 0x0, symName: __ZN5Eigen5BlockINS_6MatrixIdLin1ELin1ELi0ELin1ELin1EEELi1ELin1ELb0EEC1ERS2_l, symObjAddr: 0x558FC, symBinAddr: 0x1000590EC, symSize: 0x3C }
  - { offsetInCU: 0xE2746, offset: 0xE2746, size: 0x8, addend: 0x0, symName: __ZN5Eigen5BlockINS_6MatrixIdLin1ELin1ELi0ELin1ELin1EEELi1ELin1ELb0EEC2ERS2_l, symObjAddr: 0x55938, symBinAddr: 0x100059128, symSize: 0xD0 }
  - { offsetInCU: 0xE278C, offset: 0xE278C, size: 0x8, addend: 0x0, symName: __ZN5Eigen9BlockImplINS_6MatrixIdLin1ELin1ELi0ELin1ELin1EEELi1ELin1ELb0ENS_5DenseEEC2ERS2_l, symObjAddr: 0x55A08, symBinAddr: 0x1000591F8, symSize: 0x3C }
  - { offsetInCU: 0xE27D2, offset: 0xE27D2, size: 0x8, addend: 0x0, symName: __ZN5Eigen8internal15BlockImpl_denseINS_6MatrixIdLin1ELin1ELi0ELin1ELin1EEELi1ELin1ELb0ELb1EEC2ERS3_l, symObjAddr: 0x55A44, symBinAddr: 0x100059234, symSize: 0xF8 }
  - { offsetInCU: 0xE281A, offset: 0xE281A, size: 0x8, addend: 0x0, symName: __ZN5Eigen7MapBaseINS_5BlockINS_6MatrixIdLin1ELin1ELi0ELin1ELin1EEELi1ELin1ELb0EEELi1EEC2EPdll, symObjAddr: 0x55B3C, symBinAddr: 0x10005932C, symSize: 0x44 }
  - { offsetInCU: 0xE2871, offset: 0xE2871, size: 0x8, addend: 0x0, symName: __ZN5Eigen8internal15BlockImpl_denseINS_6MatrixIdLin1ELin1ELi0ELin1ELin1EEELi1ELin1ELb0ELb1EE4initEv, symObjAddr: 0x55B80, symBinAddr: 0x100059370, symSize: 0xB0 }
  - { offsetInCU: 0xE2897, offset: 0xE2897, size: 0x8, addend: 0x0, symName: __ZN5Eigen7MapBaseINS_5BlockINS_6MatrixIdLin1ELin1ELi0ELin1ELin1EEELi1ELin1ELb0EEELi0EEC2EPdll, symObjAddr: 0x55C30, symBinAddr: 0x100059420, symSize: 0x17C }
  - { offsetInCU: 0xE28EB, offset: 0xE28EB, size: 0x8, addend: 0x0, symName: __ZN5Eigen10MatrixBaseINS_5BlockINS_6MatrixIdLin1ELin1ELi0ELin1ELin1EEELi1ELin1ELb0EEEEC2Ev, symObjAddr: 0x55DAC, symBinAddr: 0x10005959C, symSize: 0x2C }
  - { offsetInCU: 0xE2915, offset: 0xE2915, size: 0x8, addend: 0x0, symName: __ZNK5Eigen7MapBaseINS_5BlockINS_6MatrixIdLin1ELin1ELi0ELin1ELin1EEELi1ELin1ELb0EEELi0EE11checkSanityIS4_EEvNS_8internal9enable_ifIXeqsr8internal6traitsIT_EE9AlignmentLi0EEPvE4typeE, symObjAddr: 0x55DD8, symBinAddr: 0x1000595C8, symSize: 0x14 }
  - { offsetInCU: 0xE294E, offset: 0xE294E, size: 0x8, addend: 0x0, symName: __ZN5Eigen9DenseBaseINS_5BlockINS_6MatrixIdLin1ELin1ELi0ELin1ELin1EEELi1ELin1ELb0EEEEC2Ev, symObjAddr: 0x55DEC, symBinAddr: 0x1000595DC, symSize: 0x14 }
  - { offsetInCU: 0xE2978, offset: 0xE2978, size: 0x8, addend: 0x0, symName: __ZNK5Eigen9DenseBaseINS_5BlockIKNS_6MatrixIdLin1ELin1ELi0ELin1ELin1EEELi1ELin1ELb0EEEE3rowEl, symObjAddr: 0x55E00, symBinAddr: 0x1000595F0, symSize: 0x3C }
  - { offsetInCU: 0xE29AD, offset: 0xE29AD, size: 0x8, addend: 0x0, symName: __ZNK5Eigen9DenseBaseINS_5BlockIKNS1_IKNS_6MatrixIdLin1ELin1ELi0ELin1ELin1EEELi1ELin1ELb0EEELi1ELin1ELb1EEEE9conjugateEv, symObjAddr: 0x55E3C, symBinAddr: 0x10005962C, symSize: 0x24 }
  - { offsetInCU: 0xE29D3, offset: 0xE29D3, size: 0x8, addend: 0x0, symName: __ZNK5Eigen10MatrixBaseINS_5BlockIKNS1_IKNS_6MatrixIdLin1ELin1ELi0ELin1ELin1EEELi1ELin1ELb0EEELi1ELin1ELb1EEEE3dotINS1_IKNS_9TransposeIS4_EELin1ELi1ELb0EEEEENS_20ScalarBinaryOpTraitsIdNS_8internal6traitsIT_E6ScalarENSF_17scalar_product_opIdSJ_EEE10ReturnTypeERKNS0_ISH_EE, symObjAddr: 0x55E60, symBinAddr: 0x100059650, symSize: 0x84 }
  - { offsetInCU: 0xE2A12, offset: 0xE2A12, size: 0x8, addend: 0x0, symName: __ZN5Eigen7MapBaseINS_5BlockINS_6MatrixIdLin1ELin1ELi0ELin1ELin1EEELi1ELin1ELb0EEELi1EE8coeffRefEll, symObjAddr: 0x55EE4, symBinAddr: 0x1000596D4, symSize: 0xB0 }
  - { offsetInCU: 0xE2A60, offset: 0xE2A60, size: 0x8, addend: 0x0, symName: __ZN5Eigen8internal19gemv_dense_selectorILi1ELi1ELb1EE3runINS_5BlockIKNS_6MatrixIdLin1ELin1ELi0ELin1ELin1EEELi1ELin1ELb0EEENS_9TransposeIS7_EENS4_IS6_Li1ELin1ELb0EEEEEvRKT_RKT0_RT1_RKNSI_6ScalarE, symObjAddr: 0x55F94, symBinAddr: 0x100059784, symSize: 0x340 }
  - { offsetInCU: 0xE2ADE, offset: 0xE2ADE, size: 0x8, addend: 0x0, symName: __ZN5Eigen5BlockIKNS0_IKNS_6MatrixIdLin1ELin1ELi0ELin1ELin1EEELi1ELin1ELb0EEELi1ELin1ELb1EEC1ERS5_l, symObjAddr: 0x562D4, symBinAddr: 0x100059AC4, symSize: 0x3C }
  - { offsetInCU: 0xE2B24, offset: 0xE2B24, size: 0x8, addend: 0x0, symName: __ZN5Eigen5BlockIKNS0_IKNS_6MatrixIdLin1ELin1ELi0ELin1ELin1EEELi1ELin1ELb0EEELi1ELin1ELb1EEC2ERS5_l, symObjAddr: 0x56310, symBinAddr: 0x100059B00, symSize: 0xD0 }
  - { offsetInCU: 0xE2B6A, offset: 0xE2B6A, size: 0x8, addend: 0x0, symName: __ZN5Eigen9BlockImplIKNS_5BlockIKNS_6MatrixIdLin1ELin1ELi0ELin1ELin1EEELi1ELin1ELb0EEELi1ELin1ELb1ENS_5DenseEEC2ERS6_l, symObjAddr: 0x563E0, symBinAddr: 0x100059BD0, symSize: 0x3C }
  - { offsetInCU: 0xE2BB0, offset: 0xE2BB0, size: 0x8, addend: 0x0, symName: __ZN5Eigen8internal15BlockImpl_denseIKNS_5BlockIKNS_6MatrixIdLin1ELin1ELi0ELin1ELin1EEELi1ELin1ELb0EEELi1ELin1ELb1ELb1EEC2ERS7_l, symObjAddr: 0x5641C, symBinAddr: 0x100059C0C, symSize: 0xB8 }
  - { offsetInCU: 0xE2BF8, offset: 0xE2BF8, size: 0x8, addend: 0x0, symName: __ZN5Eigen7MapBaseINS_5BlockIKNS1_IKNS_6MatrixIdLin1ELin1ELi0ELin1ELin1EEELi1ELin1ELb0EEELi1ELin1ELb1EEELi0EEC2EPKdll, symObjAddr: 0x564D4, symBinAddr: 0x100059CC4, symSize: 0x17C }
  - { offsetInCU: 0xE2C4C, offset: 0xE2C4C, size: 0x8, addend: 0x0, symName: __ZN5Eigen8internal15BlockImpl_denseIKNS_5BlockIKNS_6MatrixIdLin1ELin1ELi0ELin1ELin1EEELi1ELin1ELb0EEELi1ELin1ELb1ELb1EE4initEv, symObjAddr: 0x56650, symBinAddr: 0x100059E40, symSize: 0x80 }
  - { offsetInCU: 0xE2C72, offset: 0xE2C72, size: 0x8, addend: 0x0, symName: __ZN5Eigen10MatrixBaseINS_5BlockIKNS1_IKNS_6MatrixIdLin1ELin1ELi0ELin1ELin1EEELi1ELin1ELb0EEELi1ELin1ELb1EEEEC2Ev, symObjAddr: 0x566D0, symBinAddr: 0x100059EC0, symSize: 0x2C }
  - { offsetInCU: 0xE2C9C, offset: 0xE2C9C, size: 0x8, addend: 0x0, symName: __ZNK5Eigen7MapBaseINS_5BlockIKNS1_IKNS_6MatrixIdLin1ELin1ELi0ELin1ELin1EEELi1ELin1ELb0EEELi1ELin1ELb1EEELi0EE11checkSanityIS7_EEvNS_8internal9enable_ifIXeqsr8internal6traitsIT_EE9AlignmentLi0EEPvE4typeE, symObjAddr: 0x566FC, symBinAddr: 0x100059EEC, symSize: 0x14 }
  - { offsetInCU: 0xE2CD5, offset: 0xE2CD5, size: 0x8, addend: 0x0, symName: __ZN5Eigen9DenseBaseINS_5BlockIKNS1_IKNS_6MatrixIdLin1ELin1ELi0ELin1ELin1EEELi1ELin1ELb0EEELi1ELin1ELb1EEEEC2Ev, symObjAddr: 0x56710, symBinAddr: 0x100059F00, symSize: 0x14 }
  - { offsetInCU: 0xE2CFF, offset: 0xE2CFF, size: 0x8, addend: 0x0, symName: __ZNK5Eigen9EigenBaseINS_5BlockIKNS1_IKNS_6MatrixIdLin1ELin1ELi0ELin1ELin1EEELi1ELin1ELb0EEELi1ELin1ELb1EEEE7derivedEv, symObjAddr: 0x56724, symBinAddr: 0x100059F14, symSize: 0x14 }
  - { offsetInCU: 0xE2D25, offset: 0xE2D25, size: 0x8, addend: 0x0, symName: __ZNK5Eigen9EigenBaseINS_5BlockIKNS1_IKNS_6MatrixIdLin1ELin1ELi0ELin1ELin1EEELi1ELin1ELb0EEELi1ELin1ELb1EEEE4sizeEv, symObjAddr: 0x56738, symBinAddr: 0x100059F28, symSize: 0x44 }
  - { offsetInCU: 0xE2D4B, offset: 0xE2D4B, size: 0x8, addend: 0x0, symName: __ZNK5Eigen9EigenBaseINS_5BlockIKNS_9TransposeIKNS_6MatrixIdLin1ELin1ELi0ELin1ELin1EEEEELin1ELi1ELb0EEEE4sizeEv, symObjAddr: 0x5677C, symBinAddr: 0x100059F6C, symSize: 0x44 }
  - { offsetInCU: 0xE2D71, offset: 0xE2D71, size: 0x8, addend: 0x0, symName: __ZN5Eigen8internal11dot_nocheckINS_5BlockIKNS2_IKNS_6MatrixIdLin1ELin1ELi0ELin1ELin1EEELi1ELin1ELb0EEELi1ELin1ELb1EEENS2_IKNS_9TransposeIS5_EELin1ELi1ELb0EEELb1EE3runERKNS_10MatrixBaseIS8_EERKNSE_ISC_EE, symObjAddr: 0x567C0, symBinAddr: 0x100059FB0, symSize: 0x328 }
  - { offsetInCU: 0xE2DA4, offset: 0xE2DA4, size: 0x8, addend: 0x0, symName: __ZNK5Eigen9EigenBaseINS_5BlockIKNS1_IKNS_6MatrixIdLin1ELin1ELi0ELin1ELin1EEELi1ELin1ELb0EEELi1ELin1ELb1EEEE4rowsEv, symObjAddr: 0x56AE8, symBinAddr: 0x10005A2D8, symSize: 0x28 }
  - { offsetInCU: 0xE2DCA, offset: 0xE2DCA, size: 0x8, addend: 0x0, symName: __ZNK5Eigen9EigenBaseINS_5BlockIKNS1_IKNS_6MatrixIdLin1ELin1ELi0ELin1ELin1EEELi1ELin1ELb0EEELi1ELin1ELb1EEEE4colsEv, symObjAddr: 0x56B10, symBinAddr: 0x10005A300, symSize: 0x28 }
  - { offsetInCU: 0xE2DF0, offset: 0xE2DF0, size: 0x8, addend: 0x0, symName: __ZNK5Eigen7MapBaseINS_5BlockIKNS1_IKNS_6MatrixIdLin1ELin1ELi0ELin1ELin1EEELi1ELin1ELb0EEELi1ELin1ELb1EEELi0EE4rowsEv, symObjAddr: 0x56B38, symBinAddr: 0x10005A328, symSize: 0x20 }
  - { offsetInCU: 0xE2E16, offset: 0xE2E16, size: 0x8, addend: 0x0, symName: __ZNK5Eigen7MapBaseINS_5BlockIKNS1_IKNS_6MatrixIdLin1ELin1ELi0ELin1ELin1EEELi1ELin1ELb0EEELi1ELin1ELb1EEELi0EE4colsEv, symObjAddr: 0x56B58, symBinAddr: 0x10005A348, symSize: 0x28 }
  - { offsetInCU: 0xE2E3C, offset: 0xE2E3C, size: 0x8, addend: 0x0, symName: __ZNK5Eigen9EigenBaseINS_5BlockIKNS_9TransposeIKNS_6MatrixIdLin1ELin1ELi0ELin1ELin1EEEEELin1ELi1ELb0EEEE4rowsEv, symObjAddr: 0x56B80, symBinAddr: 0x10005A370, symSize: 0x28 }
  - { offsetInCU: 0xE2E62, offset: 0xE2E62, size: 0x8, addend: 0x0, symName: __ZNK5Eigen9EigenBaseINS_5BlockIKNS_9TransposeIKNS_6MatrixIdLin1ELin1ELi0ELin1ELin1EEEEELin1ELi1ELb0EEEE4colsEv, symObjAddr: 0x56BA8, symBinAddr: 0x10005A398, symSize: 0x28 }
  - { offsetInCU: 0xE2E88, offset: 0xE2E88, size: 0x8, addend: 0x0, symName: __ZNK5Eigen9DenseBaseINS_5BlockIKNS1_IKNS_6MatrixIdLin1ELin1ELi0ELin1ELin1EEELi1ELin1ELb0EEELi1ELin1ELb1EEEE9transposeEv, symObjAddr: 0x56BD0, symBinAddr: 0x10005A3C0, symSize: 0x34 }
  - { offsetInCU: 0xE2EB0, offset: 0xE2EB0, size: 0x8, addend: 0x0, symName: __ZNK5Eigen10MatrixBaseINS_9TransposeIKNS_5BlockIKNS2_IKNS_6MatrixIdLin1ELin1ELi0ELin1ELin1EEELi1ELin1ELb0EEELi1ELin1ELb1EEEEEE10binaryExprINS_8internal22scalar_conj_product_opIddEENS2_IKNS1_IS5_EELin1ELi1ELb0EEEEEKNS_13CwiseBinaryOpIT_KSA_KT0_EERKNS0_ISM_EERKSK_, symObjAddr: 0x56C04, symBinAddr: 0x10005A3F4, symSize: 0x54 }
  - { offsetInCU: 0xE2F04, offset: 0xE2F04, size: 0x8, addend: 0x0, symName: __ZNK5Eigen9DenseBaseINS_13CwiseBinaryOpINS_8internal22scalar_conj_product_opIddEEKNS_9TransposeIKNS_5BlockIKNS6_IKNS_6MatrixIdLin1ELin1ELi0ELin1ELin1EEELi1ELin1ELb0EEELi1ELin1ELb1EEEEEKNS6_IKNS5_IS9_EELin1ELi1ELb0EEEEEE3sumEv, symObjAddr: 0x56C58, symBinAddr: 0x10005A448, symSize: 0x230 }
  - { offsetInCU: 0xE2F2E, offset: 0xE2F2E, size: 0x8, addend: 0x0, symName: __ZN5Eigen9TransposeIKNS_5BlockIKNS1_IKNS_6MatrixIdLin1ELin1ELi0ELin1ELin1EEELi1ELin1ELb0EEELi1ELin1ELb1EEEEC1ERS8_, symObjAddr: 0x56E88, symBinAddr: 0x10005A678, symSize: 0x34 }
  - { offsetInCU: 0xE2F66, offset: 0xE2F66, size: 0x8, addend: 0x0, symName: __ZN5Eigen9TransposeIKNS_5BlockIKNS1_IKNS_6MatrixIdLin1ELin1ELi0ELin1ELin1EEELi1ELin1ELb0EEELi1ELin1ELb1EEEEC2ERS8_, symObjAddr: 0x56EBC, symBinAddr: 0x10005A6AC, symSize: 0x40 }
  - { offsetInCU: 0xE2F9E, offset: 0xE2F9E, size: 0x8, addend: 0x0, symName: __ZN5Eigen13TransposeImplIKNS_5BlockIKNS1_IKNS_6MatrixIdLin1ELin1ELi0ELin1ELin1EEELi1ELin1ELb0EEELi1ELin1ELb1EEENS_5DenseEEC2Ev, symObjAddr: 0x56EFC, symBinAddr: 0x10005A6EC, symSize: 0x2C }
  - { offsetInCU: 0xE2FC8, offset: 0xE2FC8, size: 0x8, addend: 0x0, symName: __ZN5Eigen10MatrixBaseINS_9TransposeIKNS_5BlockIKNS2_IKNS_6MatrixIdLin1ELin1ELi0ELin1ELin1EEELi1ELin1ELb0EEELi1ELin1ELb1EEEEEEC2Ev, symObjAddr: 0x56F28, symBinAddr: 0x10005A718, symSize: 0x2C }
  - { offsetInCU: 0xE2FF2, offset: 0xE2FF2, size: 0x8, addend: 0x0, symName: __ZN5Eigen9DenseBaseINS_9TransposeIKNS_5BlockIKNS2_IKNS_6MatrixIdLin1ELin1ELi0ELin1ELin1EEELi1ELin1ELb0EEELi1ELin1ELb1EEEEEEC2Ev, symObjAddr: 0x56F54, symBinAddr: 0x10005A744, symSize: 0x14 }
  - { offsetInCU: 0xE301C, offset: 0xE301C, size: 0x8, addend: 0x0, symName: __ZNK5Eigen9EigenBaseINS_9TransposeIKNS_5BlockIKNS2_IKNS_6MatrixIdLin1ELin1ELi0ELin1ELin1EEELi1ELin1ELb0EEELi1ELin1ELb1EEEEEE7derivedEv, symObjAddr: 0x56F68, symBinAddr: 0x10005A758, symSize: 0x14 }
  - { offsetInCU: 0xE3042, offset: 0xE3042, size: 0x8, addend: 0x0, symName: __ZN5Eigen13CwiseBinaryOpINS_8internal22scalar_conj_product_opIddEEKNS_9TransposeIKNS_5BlockIKNS5_IKNS_6MatrixIdLin1ELin1ELi0ELin1ELin1EEELi1ELin1ELb0EEELi1ELin1ELb1EEEEEKNS5_IKNS4_IS8_EELin1ELi1ELb0EEEEC1ERSE_RSI_RKS3_, symObjAddr: 0x56F7C, symBinAddr: 0x10005A76C, symSize: 0x44 }
  - { offsetInCU: 0xE3096, offset: 0xE3096, size: 0x8, addend: 0x0, symName: __ZN5Eigen13CwiseBinaryOpINS_8internal22scalar_conj_product_opIddEEKNS_9TransposeIKNS_5BlockIKNS5_IKNS_6MatrixIdLin1ELin1ELi0ELin1ELin1EEELi1ELin1ELb0EEELi1ELin1ELb1EEEEEKNS5_IKNS4_IS8_EELin1ELi1ELb0EEEEC2ERSE_RSI_RKS3_, symObjAddr: 0x56FC0, symBinAddr: 0x10005A7B0, symSize: 0x104 }
  - { offsetInCU: 0xE30EF, offset: 0xE30EF, size: 0x8, addend: 0x0, symName: __ZN5Eigen17CwiseBinaryOpImplINS_8internal22scalar_conj_product_opIddEEKNS_9TransposeIKNS_5BlockIKNS5_IKNS_6MatrixIdLin1ELin1ELi0ELin1ELin1EEELi1ELin1ELb0EEELi1ELin1ELb1EEEEEKNS5_IKNS4_IS8_EELin1ELi1ELb0EEENS_5DenseEEC2Ev, symObjAddr: 0x570C4, symBinAddr: 0x10005A8B4, symSize: 0x2C }
  - { offsetInCU: 0xE311B, offset: 0xE311B, size: 0x8, addend: 0x0, symName: __ZNK5Eigen9TransposeIKNS_5BlockIKNS1_IKNS_6MatrixIdLin1ELin1ELi0ELin1ELin1EEELi1ELin1ELb0EEELi1ELin1ELb1EEEE4rowsEv, symObjAddr: 0x570F0, symBinAddr: 0x10005A8E0, symSize: 0x24 }
  - { offsetInCU: 0xE3141, offset: 0xE3141, size: 0x8, addend: 0x0, symName: __ZNK5Eigen9TransposeIKNS_5BlockIKNS1_IKNS_6MatrixIdLin1ELin1ELi0ELin1ELin1EEELi1ELin1ELb0EEELi1ELin1ELb1EEEE4colsEv, symObjAddr: 0x57114, symBinAddr: 0x10005A904, symSize: 0x24 }
  - { offsetInCU: 0xE3167, offset: 0xE3167, size: 0x8, addend: 0x0, symName: __ZN5Eigen10MatrixBaseINS_13CwiseBinaryOpINS_8internal22scalar_conj_product_opIddEEKNS_9TransposeIKNS_5BlockIKNS6_IKNS_6MatrixIdLin1ELin1ELi0ELin1ELin1EEELi1ELin1ELb0EEELi1ELin1ELb1EEEEEKNS6_IKNS5_IS9_EELin1ELi1ELb0EEEEEEC2Ev, symObjAddr: 0x57138, symBinAddr: 0x10005A928, symSize: 0x2C }
  - { offsetInCU: 0xE3191, offset: 0xE3191, size: 0x8, addend: 0x0, symName: __ZN5Eigen9DenseBaseINS_13CwiseBinaryOpINS_8internal22scalar_conj_product_opIddEEKNS_9TransposeIKNS_5BlockIKNS6_IKNS_6MatrixIdLin1ELin1ELi0ELin1ELin1EEELi1ELin1ELb0EEELi1ELin1ELb1EEEEEKNS6_IKNS5_IS9_EELin1ELi1ELb0EEEEEEC2Ev, symObjAddr: 0x57164, symBinAddr: 0x10005A954, symSize: 0x14 }
  - { offsetInCU: 0xE31BB, offset: 0xE31BB, size: 0x8, addend: 0x0, symName: __ZNK5Eigen9EigenBaseINS_13CwiseBinaryOpINS_8internal22scalar_conj_product_opIddEEKNS_9TransposeIKNS_5BlockIKNS6_IKNS_6MatrixIdLin1ELin1ELi0ELin1ELin1EEELi1ELin1ELb0EEELi1ELin1ELb1EEEEEKNS6_IKNS5_IS9_EELin1ELi1ELb0EEEEEE4sizeEv, symObjAddr: 0x57178, symBinAddr: 0x10005A968, symSize: 0x44 }
  - { offsetInCU: 0xE31E1, offset: 0xE31E1, size: 0x8, addend: 0x0, symName: __ZNK5Eigen9EigenBaseINS_13CwiseBinaryOpINS_8internal22scalar_conj_product_opIddEEKNS_9TransposeIKNS_5BlockIKNS6_IKNS_6MatrixIdLin1ELin1ELi0ELin1ELin1EEELi1ELin1ELb0EEELi1ELin1ELb1EEEEEKNS6_IKNS5_IS9_EELin1ELi1ELb0EEEEEE7derivedEv, symObjAddr: 0x571BC, symBinAddr: 0x10005A9AC, symSize: 0x14 }
  - { offsetInCU: 0xE3207, offset: 0xE3207, size: 0x8, addend: 0x0, symName: __ZNK5Eigen9DenseBaseINS_13CwiseBinaryOpINS_8internal22scalar_conj_product_opIddEEKNS_9TransposeIKNS_5BlockIKNS6_IKNS_6MatrixIdLin1ELin1ELi0ELin1ELin1EEELi1ELin1ELb0EEELi1ELin1ELb1EEEEEKNS6_IKNS5_IS9_EELin1ELi1ELb0EEEEEE5reduxINS2_13scalar_sum_opIddEEEEdRKT_, symObjAddr: 0x571D0, symBinAddr: 0x10005A9C0, symSize: 0x3AC }
  - { offsetInCU: 0xE3269, offset: 0xE3269, size: 0x8, addend: 0x0, symName: __ZNK5Eigen9EigenBaseINS_13CwiseBinaryOpINS_8internal22scalar_conj_product_opIddEEKNS_9TransposeIKNS_5BlockIKNS6_IKNS_6MatrixIdLin1ELin1ELi0ELin1ELin1EEELi1ELin1ELb0EEELi1ELin1ELb1EEEEEKNS6_IKNS5_IS9_EELin1ELi1ELb0EEEEEE4rowsEv, symObjAddr: 0x5757C, symBinAddr: 0x10005AD6C, symSize: 0x44 }
  - { offsetInCU: 0xE328F, offset: 0xE328F, size: 0x8, addend: 0x0, symName: __ZNK5Eigen9EigenBaseINS_13CwiseBinaryOpINS_8internal22scalar_conj_product_opIddEEKNS_9TransposeIKNS_5BlockIKNS6_IKNS_6MatrixIdLin1ELin1ELi0ELin1ELin1EEELi1ELin1ELb0EEELi1ELin1ELb1EEEEEKNS6_IKNS5_IS9_EELin1ELi1ELb0EEEEEE4colsEv, symObjAddr: 0x575C0, symBinAddr: 0x10005ADB0, symSize: 0x44 }
  - { offsetInCU: 0xE32B5, offset: 0xE32B5, size: 0x8, addend: 0x0, symName: __ZNK5Eigen13CwiseBinaryOpINS_8internal22scalar_conj_product_opIddEEKNS_9TransposeIKNS_5BlockIKNS5_IKNS_6MatrixIdLin1ELin1ELi0ELin1ELin1EEELi1ELin1ELb0EEELi1ELin1ELb1EEEEEKNS5_IKNS4_IS8_EELin1ELi1ELb0EEEE4rowsEv, symObjAddr: 0x57604, symBinAddr: 0x10005ADF4, symSize: 0x28 }
  - { offsetInCU: 0xE32DB, offset: 0xE32DB, size: 0x8, addend: 0x0, symName: __ZNK5Eigen13CwiseBinaryOpINS_8internal22scalar_conj_product_opIddEEKNS_9TransposeIKNS_5BlockIKNS5_IKNS_6MatrixIdLin1ELin1ELi0ELin1ELin1EEELi1ELin1ELb0EEELi1ELin1ELb1EEEEEKNS5_IKNS4_IS8_EELin1ELi1ELb0EEEE4colsEv, symObjAddr: 0x5762C, symBinAddr: 0x10005AE1C, symSize: 0x24 }
  - { offsetInCU: 0xE33BF, offset: 0xE33BF, size: 0x8, addend: 0x0, symName: __ZN5Eigen8internal15redux_evaluatorINS_13CwiseBinaryOpINS0_22scalar_conj_product_opIddEEKNS_9TransposeIKNS_5BlockIKNS6_IKNS_6MatrixIdLin1ELin1ELi0ELin1ELin1EEELi1ELin1ELb0EEELi1ELin1ELb1EEEEEKNS6_IKNS5_IS9_EELin1ELi1ELb0EEEEEEC1ERKSK_, symObjAddr: 0x57650, symBinAddr: 0x10005AE40, symSize: 0x34 }
  - { offsetInCU: 0xE33FD, offset: 0xE33FD, size: 0x8, addend: 0x0, symName: __ZN5Eigen8internal10redux_implINS0_13scalar_sum_opIddEENS0_15redux_evaluatorINS_13CwiseBinaryOpINS0_22scalar_conj_product_opIddEEKNS_9TransposeIKNS_5BlockIKNS9_IKNS_6MatrixIdLin1ELin1ELi0ELin1ELin1EEELi1ELin1ELb0EEELi1ELin1ELb1EEEEEKNS9_IKNS8_ISC_EELin1ELi1ELb0EEEEEEELi0ELi0EE3runISN_EEdRKSO_RKS3_RKT_, symObjAddr: 0x57684, symBinAddr: 0x10005AE74, symSize: 0x594 }
  - { offsetInCU: 0xE34B1, offset: 0xE34B1, size: 0x8, addend: 0x0, symName: __ZN5Eigen8internal15redux_evaluatorINS_13CwiseBinaryOpINS0_22scalar_conj_product_opIddEEKNS_9TransposeIKNS_5BlockIKNS6_IKNS_6MatrixIdLin1ELin1ELi0ELin1ELin1EEELi1ELin1ELb0EEELi1ELin1ELb1EEEEEKNS6_IKNS5_IS9_EELin1ELi1ELb0EEEEEED1Ev, symObjAddr: 0x57C18, symBinAddr: 0x10005B408, symSize: 0x2C }
  - { offsetInCU: 0xE34DE, offset: 0xE34DE, size: 0x8, addend: 0x0, symName: __ZN5Eigen8internal15redux_evaluatorINS_13CwiseBinaryOpINS0_22scalar_conj_product_opIddEEKNS_9TransposeIKNS_5BlockIKNS6_IKNS_6MatrixIdLin1ELin1ELi0ELin1ELin1EEELi1ELin1ELb0EEELi1ELin1ELb1EEEEEKNS6_IKNS5_IS9_EELin1ELi1ELb0EEEEEEC2ERKSK_, symObjAddr: 0x57C44, symBinAddr: 0x10005B434, symSize: 0x34 }
  - { offsetInCU: 0xE3517, offset: 0xE3517, size: 0x8, addend: 0x0, symName: __ZN5Eigen8internal9evaluatorINS_13CwiseBinaryOpINS0_22scalar_conj_product_opIddEEKNS_9TransposeIKNS_5BlockIKNS6_IKNS_6MatrixIdLin1ELin1ELi0ELin1ELin1EEELi1ELin1ELb0EEELi1ELin1ELb1EEEEEKNS6_IKNS5_IS9_EELin1ELi1ELb0EEEEEEC2ERKSK_, symObjAddr: 0x57C78, symBinAddr: 0x10005B468, symSize: 0x34 }
  - { offsetInCU: 0xE3550, offset: 0xE3550, size: 0x8, addend: 0x0, symName: __ZN5Eigen8internal16binary_evaluatorINS_13CwiseBinaryOpINS0_22scalar_conj_product_opIddEEKNS_9TransposeIKNS_5BlockIKNS6_IKNS_6MatrixIdLin1ELin1ELi0ELin1ELin1EEELi1ELin1ELb0EEELi1ELin1ELb1EEEEEKNS6_IKNS5_IS9_EELin1ELi1ELb0EEEEENS0_10IndexBasedESL_ddEC2ERKSK_, symObjAddr: 0x57CAC, symBinAddr: 0x10005B49C, symSize: 0x64 }
  - { offsetInCU: 0xE3589, offset: 0xE3589, size: 0x8, addend: 0x0, symName: __ZN5Eigen8internal14evaluator_baseINS_13CwiseBinaryOpINS0_22scalar_conj_product_opIddEEKNS_9TransposeIKNS_5BlockIKNS6_IKNS_6MatrixIdLin1ELin1ELi0ELin1ELin1EEELi1ELin1ELb0EEELi1ELin1ELb1EEEEEKNS6_IKNS5_IS9_EELin1ELi1ELb0EEEEEEC2Ev, symObjAddr: 0x57D10, symBinAddr: 0x10005B500, symSize: 0x14 }
  - { offsetInCU: 0xE35B3, offset: 0xE35B3, size: 0x8, addend: 0x0, symName: __ZN5Eigen8internal16binary_evaluatorINS_13CwiseBinaryOpINS0_22scalar_conj_product_opIddEEKNS_9TransposeIKNS_5BlockIKNS6_IKNS_6MatrixIdLin1ELin1ELi0ELin1ELin1EEELi1ELin1ELb0EEELi1ELin1ELb1EEEEEKNS6_IKNS5_IS9_EELin1ELi1ELb0EEEEENS0_10IndexBasedESL_ddE4DataC1ERKSK_, symObjAddr: 0x57D24, symBinAddr: 0x10005B514, symSize: 0x34 }
  - { offsetInCU: 0xE35EC, offset: 0xE35EC, size: 0x8, addend: 0x0, symName: __ZN5Eigen8internal14evaluator_baseINS_13CwiseBinaryOpINS0_22scalar_conj_product_opIddEEKNS_9TransposeIKNS_5BlockIKNS6_IKNS_6MatrixIdLin1ELin1ELi0ELin1ELin1EEELi1ELin1ELb0EEELi1ELin1ELb1EEEEEKNS6_IKNS5_IS9_EELin1ELi1ELb0EEEEEED2Ev, symObjAddr: 0x57D58, symBinAddr: 0x10005B548, symSize: 0x14 }
  - { offsetInCU: 0xE3616, offset: 0xE3616, size: 0x8, addend: 0x0, symName: __ZN5Eigen8internal16binary_evaluatorINS_13CwiseBinaryOpINS0_22scalar_conj_product_opIddEEKNS_9TransposeIKNS_5BlockIKNS6_IKNS_6MatrixIdLin1ELin1ELi0ELin1ELin1EEELi1ELin1ELb0EEELi1ELin1ELb1EEEEEKNS6_IKNS5_IS9_EELin1ELi1ELb0EEEEENS0_10IndexBasedESL_ddE4DataC2ERKSK_, symObjAddr: 0x57D6C, symBinAddr: 0x10005B55C, symSize: 0xA8 }
  - { offsetInCU: 0xE364F, offset: 0xE364F, size: 0x8, addend: 0x0, symName: __ZNK5Eigen13CwiseBinaryOpINS_8internal22scalar_conj_product_opIddEEKNS_9TransposeIKNS_5BlockIKNS5_IKNS_6MatrixIdLin1ELin1ELi0ELin1ELin1EEELi1ELin1ELb0EEELi1ELin1ELb1EEEEEKNS5_IKNS4_IS8_EELin1ELi1ELb0EEEE7functorEv, symObjAddr: 0x57E14, symBinAddr: 0x10005B604, symSize: 0x18 }
  - { offsetInCU: 0xE3675, offset: 0xE3675, size: 0x8, addend: 0x0, symName: __ZNK5Eigen13CwiseBinaryOpINS_8internal22scalar_conj_product_opIddEEKNS_9TransposeIKNS_5BlockIKNS5_IKNS_6MatrixIdLin1ELin1ELi0ELin1ELin1EEELi1ELin1ELb0EEELi1ELin1ELb1EEEEEKNS5_IKNS4_IS8_EELin1ELi1ELb0EEEE3lhsEv, symObjAddr: 0x57E2C, symBinAddr: 0x10005B61C, symSize: 0x14 }
  - { offsetInCU: 0xE369B, offset: 0xE369B, size: 0x8, addend: 0x0, symName: __ZN5Eigen8internal9evaluatorIKNS_9TransposeIKNS_5BlockIKNS3_IKNS_6MatrixIdLin1ELin1ELi0ELin1ELin1EEELi1ELin1ELb0EEELi1ELin1ELb1EEEEEEC1ERSC_, symObjAddr: 0x57E40, symBinAddr: 0x10005B630, symSize: 0x34 }
  - { offsetInCU: 0xE36D3, offset: 0xE36D3, size: 0x8, addend: 0x0, symName: __ZNK5Eigen13CwiseBinaryOpINS_8internal22scalar_conj_product_opIddEEKNS_9TransposeIKNS_5BlockIKNS5_IKNS_6MatrixIdLin1ELin1ELi0ELin1ELin1EEELi1ELin1ELb0EEELi1ELin1ELb1EEEEEKNS5_IKNS4_IS8_EELin1ELi1ELb0EEEE3rhsEv, symObjAddr: 0x57E74, symBinAddr: 0x10005B664, symSize: 0x18 }
  - { offsetInCU: 0xE36F9, offset: 0xE36F9, size: 0x8, addend: 0x0, symName: __ZN5Eigen8internal9evaluatorIKNS_9TransposeIKNS_5BlockIKNS3_IKNS_6MatrixIdLin1ELin1ELi0ELin1ELin1EEELi1ELin1ELb0EEELi1ELin1ELb1EEEEEED1Ev, symObjAddr: 0x57E8C, symBinAddr: 0x10005B67C, symSize: 0x2C }
  - { offsetInCU: 0xE3725, offset: 0xE3725, size: 0x8, addend: 0x0, symName: __ZN5Eigen8internal9evaluatorIKNS_9TransposeIKNS_5BlockIKNS3_IKNS_6MatrixIdLin1ELin1ELi0ELin1ELin1EEELi1ELin1ELb0EEELi1ELin1ELb1EEEEEEC2ERSC_, symObjAddr: 0x57EB8, symBinAddr: 0x10005B6A8, symSize: 0x34 }
  - { offsetInCU: 0xE375D, offset: 0xE375D, size: 0x8, addend: 0x0, symName: __ZN5Eigen8internal9evaluatorINS_9TransposeIKNS_5BlockIKNS3_IKNS_6MatrixIdLin1ELin1ELi0ELin1ELin1EEELi1ELin1ELb0EEELi1ELin1ELb1EEEEEEC2ERKSB_, symObjAddr: 0x57EEC, symBinAddr: 0x10005B6DC, symSize: 0x34 }
  - { offsetInCU: 0xE3795, offset: 0xE3795, size: 0x8, addend: 0x0, symName: __ZN5Eigen8internal15unary_evaluatorINS_9TransposeIKNS_5BlockIKNS3_IKNS_6MatrixIdLin1ELin1ELi0ELin1ELin1EEELi1ELin1ELb0EEELi1ELin1ELb1EEEEENS0_10IndexBasedEdEC2ERKSB_, symObjAddr: 0x57F20, symBinAddr: 0x10005B710, symSize: 0x74 }
  - { offsetInCU: 0xE37CE, offset: 0xE37CE, size: 0x8, addend: 0x0, symName: __ZN5Eigen8internal14evaluator_baseINS_9TransposeIKNS_5BlockIKNS3_IKNS_6MatrixIdLin1ELin1ELi0ELin1ELin1EEELi1ELin1ELb0EEELi1ELin1ELb1EEEEEEC2Ev, symObjAddr: 0x57F94, symBinAddr: 0x10005B784, symSize: 0x14 }
  - { offsetInCU: 0xE37F8, offset: 0xE37F8, size: 0x8, addend: 0x0, symName: __ZNK5Eigen9TransposeIKNS_5BlockIKNS1_IKNS_6MatrixIdLin1ELin1ELi0ELin1ELin1EEELi1ELin1ELb0EEELi1ELin1ELb1EEEE16nestedExpressionEv, symObjAddr: 0x57FA8, symBinAddr: 0x10005B798, symSize: 0x14 }
  - { offsetInCU: 0xE381E, offset: 0xE381E, size: 0x8, addend: 0x0, symName: __ZN5Eigen8internal9evaluatorIKNS_5BlockIKNS2_IKNS_6MatrixIdLin1ELin1ELi0ELin1ELin1EEELi1ELin1ELb0EEELi1ELin1ELb1EEEEC1ERS9_, symObjAddr: 0x57FBC, symBinAddr: 0x10005B7AC, symSize: 0x34 }
  - { offsetInCU: 0xE3856, offset: 0xE3856, size: 0x8, addend: 0x0, symName: __ZN5Eigen8internal14evaluator_baseINS_9TransposeIKNS_5BlockIKNS3_IKNS_6MatrixIdLin1ELin1ELi0ELin1ELin1EEELi1ELin1ELb0EEELi1ELin1ELb1EEEEEED2Ev, symObjAddr: 0x57FF0, symBinAddr: 0x10005B7E0, symSize: 0x14 }
  - { offsetInCU: 0xE3880, offset: 0xE3880, size: 0x8, addend: 0x0, symName: __ZN5Eigen8internal9evaluatorIKNS_5BlockIKNS2_IKNS_6MatrixIdLin1ELin1ELi0ELin1ELin1EEELi1ELin1ELb0EEELi1ELin1ELb1EEEEC2ERS9_, symObjAddr: 0x58004, symBinAddr: 0x10005B7F4, symSize: 0x34 }
  - { offsetInCU: 0xE38B8, offset: 0xE38B8, size: 0x8, addend: 0x0, symName: __ZN5Eigen8internal9evaluatorINS_5BlockIKNS2_IKNS_6MatrixIdLin1ELin1ELi0ELin1ELin1EEELi1ELin1ELb0EEELi1ELin1ELb1EEEEC2ERKS8_, symObjAddr: 0x58038, symBinAddr: 0x10005B828, symSize: 0x34 }
  - { offsetInCU: 0xE38F1, offset: 0xE38F1, size: 0x8, addend: 0x0, symName: __ZN5Eigen8internal15block_evaluatorIKNS_5BlockIKNS_6MatrixIdLin1ELin1ELi0ELin1ELin1EEELi1ELin1ELb0EEELi1ELin1ELb1ELb1EEC2ERKNS2_IS7_Li1ELin1ELb1EEE, symObjAddr: 0x5806C, symBinAddr: 0x10005B85C, symSize: 0xE0 }
  - { offsetInCU: 0xE392A, offset: 0xE392A, size: 0x8, addend: 0x0, symName: __ZN5Eigen8internal17mapbase_evaluatorINS_5BlockIKNS2_IKNS_6MatrixIdLin1ELin1ELi0ELin1ELin1EEELi1ELin1ELb0EEELi1ELin1ELb1EEENS3_IdLi1ELin1ELi1ELi1ELin1EEEEC2ERKS8_, symObjAddr: 0x5814C, symBinAddr: 0x10005B93C, symSize: 0xF0 }
  - { offsetInCU: 0xE3963, offset: 0xE3963, size: 0x8, addend: 0x0, symName: __ZNK5Eigen7MapBaseINS_5BlockIKNS1_IKNS_6MatrixIdLin1ELin1ELi0ELin1ELin1EEELi1ELin1ELb0EEELi1ELin1ELb1EEELi0EE4dataEv, symObjAddr: 0x5823C, symBinAddr: 0x10005BA2C, symSize: 0x60 }
  - { offsetInCU: 0xE3989, offset: 0xE3989, size: 0x8, addend: 0x0, symName: __ZN5Eigen8internal17mapbase_evaluatorINS_5BlockIKNS2_IKNS_6MatrixIdLin1ELin1ELi0ELin1ELin1EEELi1ELin1ELb0EEELi1ELin1ELb1EEENS3_IdLi1ELin1ELi1ELi1ELin1EEEED2Ev, symObjAddr: 0x5829C, symBinAddr: 0x10005BA8C, symSize: 0x2C }
  - { offsetInCU: 0xE39B6, offset: 0xE39B6, size: 0x8, addend: 0x0, symName: __ZN5Eigen8internal14evaluator_baseINS_5BlockIKNS2_IKNS_6MatrixIdLin1ELin1ELi0ELin1ELin1EEELi1ELin1ELb0EEELi1ELin1ELb1EEEEC2Ev, symObjAddr: 0x582C8, symBinAddr: 0x10005BAB8, symSize: 0x14 }
