---
triple:          'arm64-apple-darwin'
binary-path:     t2
relocations:
  - { offsetInCU: 0x44, offset: 0x44, size: 0x8, addend: 0x0, symName: __ZN5EigenL4lastE, symObjAddr: 0xA56AC0, symBinAddr: 0x100141F60, symSize: 0x0 }
  - { offsetInCU: 0x72D, offset: 0x72D, size: 0x8, addend: 0x0, symName: __ZN5Eigen8internal20manage_caching_sizesENS_6ActionEPlS2_S2_, symObjAddr: 0x67814, symBinAddr: 0x10006B41C, symSize: 0x2A8 }
  - { offsetInCU: 0x752, offset: 0x752, size: 0x8, addend: 0x0, symName: __ZZN5Eigen8internal20manage_caching_sizesENS_6ActionEPlS2_S2_E12m_cacheSizes, symObjAddr: 0xEB120, symBinAddr: 0x100140000, symSize: 0x0 }
  - { offsetInCU: 0xBDA2, offset: 0xBDA2, size: 0x8, addend: 0x0, symName: __ZN5Eigen8internal37evaluateProductBlockingSizesHeuristicIddLi1ElEEvRT2_S3_S3_S2_, symObjAddr: 0x65B7C, symBinAddr: 0x100069784, symSize: 0x1C98 }
  - { offsetInCU: 0xDCF9, offset: 0xDCF9, size: 0x8, addend: 0x0, symName: __ZN5Eigen8internal14pldexp_genericI19__simd128_float64_tEET_RKS3_S5_, symObjAddr: 0x7D384, symBinAddr: 0x100080F8C, symSize: 0x9D0 }
  - { offsetInCU: 0x1B9C5, offset: 0x1B9C5, size: 0x8, addend: 0x0, symName: __ZN5Eigen8internal31conditional_aligned_delete_autoIdLb1EEEvPT_m, symObjAddr: 0x1070C, symBinAddr: 0x100014314, symSize: 0x28 }
  - { offsetInCU: 0x1BA11, offset: 0x1BA11, size: 0x8, addend: 0x0, symName: __ZN5Eigen8internal24conditional_aligned_freeILb1EEEvPv, symObjAddr: 0x10740, symBinAddr: 0x100014348, symSize: 0x24 }
  - { offsetInCU: 0x1BA45, offset: 0x1BA45, size: 0x8, addend: 0x0, symName: __ZN5Eigen8internal12aligned_freeEPv, symObjAddr: 0x10764, symBinAddr: 0x10001436C, symSize: 0x24 }
  - { offsetInCU: 0x1BA74, offset: 0x1BA74, size: 0x8, addend: 0x0, symName: __ZN5Eigen8internal15call_assignmentINS_6MatrixIdLin1ELin1ELi0ELin1ELin1EEENS_13CwiseBinaryOpINS0_17scalar_product_opIddEEKNS_14CwiseNullaryOpINS0_16scalar_random_opIdEES3_EEKNS7_INS0_18scalar_constant_opIdEEKS3_EEEEEEvRT_RKT0_, symObjAddr: 0x1F1EC, symBinAddr: 0x100022DF4, symSize: 0x1F8 }
  - { offsetInCU: 0x1BAC1, offset: 0x1BAC1, size: 0x8, addend: 0x0, symName: __ZN5Eigen8internal15call_assignmentINS_6MatrixIdLin1ELin1ELi0ELin1ELin1EEENS_13CwiseBinaryOpINS0_17scalar_product_opIddEEKNS_14CwiseNullaryOpINS0_16scalar_random_opIdEES3_EEKNS7_INS0_18scalar_constant_opIdEEKS3_EEEENS0_9assign_opIddEEEEvRT_RKT0_RKT1_NS0_9enable_ifIXntsr25evaluator_assume_aliasingISM_EE5valueEPvE4typeE, symObjAddr: 0x1F40C, symBinAddr: 0x100023014, symSize: 0x38 }
  - { offsetInCU: 0x1BB2F, offset: 0x1BB2F, size: 0x8, addend: 0x0, symName: __ZN5Eigen8internal24call_assignment_no_aliasINS_6MatrixIdLin1ELin1ELi0ELin1ELin1EEENS_13CwiseBinaryOpINS0_17scalar_product_opIddEEKNS_14CwiseNullaryOpINS0_16scalar_random_opIdEES3_EEKNS7_INS0_18scalar_constant_opIdEEKS3_EEEENS0_9assign_opIddEEEEvRT_RKT0_RKT1_, symObjAddr: 0x1F470, symBinAddr: 0x100023078, symSize: 0x3C }
  - { offsetInCU: 0x1BC07, offset: 0x1BC07, size: 0x8, addend: 0x0, symName: __ZN5Eigen8internal18check_for_aliasingINS_6MatrixIdLin1ELin1ELi0ELin1ELin1EEENS_13CwiseBinaryOpINS0_17scalar_product_opIddEEKNS_14CwiseNullaryOpINS0_16scalar_random_opIdEES3_EEKNS7_INS0_18scalar_constant_opIdEEKS3_EEEEEEvRKT_RKT0_, symObjAddr: 0x1F4EC, symBinAddr: 0x1000230F4, symSize: 0x60 }
  - { offsetInCU: 0x1BC52, offset: 0x1BC52, size: 0x8, addend: 0x0, symName: __ZN5Eigen8internal26call_dense_assignment_loopINS_6MatrixIdLin1ELin1ELi0ELin1ELin1EEENS_13CwiseBinaryOpINS0_17scalar_product_opIddEEKNS_14CwiseNullaryOpINS0_16scalar_random_opIdEES3_EEKNS7_INS0_18scalar_constant_opIdEEKS3_EEEENS0_9assign_opIddEEEEvRT_RKT0_RKT1_, symObjAddr: 0x1F54C, symBinAddr: 0x100023154, symSize: 0x424 }
  - { offsetInCU: 0x1C0A1, offset: 0x1C0A1, size: 0x8, addend: 0x0, symName: __ZN5Eigen8internal17resize_if_allowedINS_6MatrixIdLin1ELin1ELi0ELin1ELin1EEENS_13CwiseBinaryOpINS0_17scalar_product_opIddEEKNS_14CwiseNullaryOpINS0_16scalar_random_opIdEES3_EEKNS7_INS0_18scalar_constant_opIdEEKS3_EEEEddEEvRT_RKT0_RKNS0_9assign_opIT1_T2_EE, symObjAddr: 0x1FA40, symBinAddr: 0x100023648, symSize: 0xFC }
  - { offsetInCU: 0x1C3AC, offset: 0x1C3AC, size: 0x8, addend: 0x0, symName: __ZN5Eigen8internal19throw_std_bad_allocEv, symObjAddr: 0x207F4, symBinAddr: 0x1000243FC, symSize: 0x38 }
  - { offsetInCU: 0x1C3E8, offset: 0x1C3E8, size: 0x8, addend: 0x0, symName: __ZN5Eigen8internal28conditional_aligned_new_autoIdLb1EEEPT_m, symObjAddr: 0x2082C, symBinAddr: 0x100024434, symSize: 0x84 }
  - { offsetInCU: 0x1C456, offset: 0x1C456, size: 0x8, addend: 0x0, symName: __ZN5Eigen8internal26conditional_aligned_mallocILb1EEEPvm, symObjAddr: 0x208B0, symBinAddr: 0x1000244B8, symSize: 0x24 }
  - { offsetInCU: 0x1C48C, offset: 0x1C48C, size: 0x8, addend: 0x0, symName: __ZN5Eigen8internal14aligned_mallocEm, symObjAddr: 0x208D4, symBinAddr: 0x1000244DC, symSize: 0xE0 }
  - { offsetInCU: 0x1C4CD, offset: 0x1C4CD, size: 0x8, addend: 0x0, symName: __ZN5Eigen8internal28check_that_malloc_is_allowedEv, symObjAddr: 0x209B4, symBinAddr: 0x1000245BC, symSize: 0x4 }
  - { offsetInCU: 0x1C4E6, offset: 0x1C4E6, size: 0x8, addend: 0x0, symName: __ZN5Eigen8internal6randomIdEENS0_13random_retvalINS0_36global_math_functions_filtering_baseIT_vE4typeEE4typeEv, symObjAddr: 0x21770, symBinAddr: 0x100025378, symSize: 0x14 }
  - { offsetInCU: 0x1C561, offset: 0x1C561, size: 0x8, addend: 0x0, symName: __ZN5Eigen8internal24call_assignment_no_aliasINS_6MatrixIdLin1ELi1ELi0ELin1ELi1EEENS_13CwiseBinaryOpINS0_17scalar_product_opIddEEKNS_14CwiseNullaryOpINS0_16scalar_random_opIdEES3_EEKNS7_INS0_18scalar_constant_opIdEEKS3_EEEENS0_9assign_opIddEEEEvRT_RKT0_RKT1_, symObjAddr: 0x22A04, symBinAddr: 0x10002660C, symSize: 0x3C }
  - { offsetInCU: 0x1C62F, offset: 0x1C62F, size: 0x8, addend: 0x0, symName: __ZN5Eigen8internal18check_for_aliasingINS_6MatrixIdLin1ELi1ELi0ELin1ELi1EEENS_13CwiseBinaryOpINS0_17scalar_product_opIddEEKNS_14CwiseNullaryOpINS0_16scalar_random_opIdEES3_EEKNS7_INS0_18scalar_constant_opIdEEKS3_EEEEEEvRKT_RKT0_, symObjAddr: 0x22AA8, symBinAddr: 0x1000266B0, symSize: 0x14 }
  - { offsetInCU: 0x1C67A, offset: 0x1C67A, size: 0x8, addend: 0x0, symName: __ZN5Eigen8internal26call_dense_assignment_loopINS_6MatrixIdLin1ELi1ELi0ELin1ELi1EEENS_13CwiseBinaryOpINS0_17scalar_product_opIddEEKNS_14CwiseNullaryOpINS0_16scalar_random_opIdEES3_EEKNS7_INS0_18scalar_constant_opIdEEKS3_EEEENS0_9assign_opIddEEEEvRT_RKT0_RKT1_, symObjAddr: 0x22ABC, symBinAddr: 0x1000266C4, symSize: 0x424 }
  - { offsetInCU: 0x1CA22, offset: 0x1CA22, size: 0x8, addend: 0x0, symName: __ZN5Eigen8internal17resize_if_allowedINS_6MatrixIdLin1ELi1ELi0ELin1ELi1EEENS_13CwiseBinaryOpINS0_17scalar_product_opIddEEKNS_14CwiseNullaryOpINS0_16scalar_random_opIdEES3_EEKNS7_INS0_18scalar_constant_opIdEEKS3_EEEEddEEvRT_RKT0_RKNS0_9assign_opIT1_T2_EE, symObjAddr: 0x22F14, symBinAddr: 0x100026B1C, symSize: 0xFC }
  - { offsetInCU: 0x1CCFA, offset: 0x1CCFA, size: 0x8, addend: 0x0, symName: __ZN5Eigen8internal22ignore_unused_variableIlEEvRKT_, symObjAddr: 0x23EE4, symBinAddr: 0x100027AEC, symSize: 0x10 }
  - { offsetInCU: 0x1CD29, offset: 0x1CD29, size: 0x8, addend: 0x0, symName: __ZN5Eigen8internal10smart_copyIdEEvPKT_S4_PS2_, symObjAddr: 0x2CBC4, symBinAddr: 0x1000307CC, symSize: 0x34 }
  - { offsetInCU: 0x1CDDE, offset: 0x1CDDE, size: 0x8, addend: 0x0, symName: __ZN5Eigen8internal17get_runtime_valueIlEElRKT_, symObjAddr: 0x39CD0, symBinAddr: 0x10003D8D8, symSize: 0x60 }
  - { offsetInCU: 0x1CE3D, offset: 0x1CE3D, size: 0x8, addend: 0x0, symName: __ZN5Eigen8internal15call_assignmentINS_5BlockINS_6MatrixIdLin1ELin1ELi0ELin1ELin1EEELin1ELin1ELb0EEES4_EEvRT_RKT0_, symObjAddr: 0x3A4EC, symBinAddr: 0x10003E0F4, symSize: 0x1F8 }
  - { offsetInCU: 0x1CE8A, offset: 0x1CE8A, size: 0x8, addend: 0x0, symName: __ZN5Eigen8internal15call_assignmentINS_5BlockINS_6MatrixIdLin1ELin1ELi0ELin1ELin1EEELin1ELin1ELb0EEES4_NS0_9assign_opIddEEEEvRT_RKT0_RKT1_NS0_9enable_ifIXntsr25evaluator_assume_aliasingISA_EE5valueEPvE4typeE, symObjAddr: 0x3A6F8, symBinAddr: 0x10003E300, symSize: 0x38 }
  - { offsetInCU: 0x1CEF8, offset: 0x1CEF8, size: 0x8, addend: 0x0, symName: __ZN5Eigen8internal24call_assignment_no_aliasINS_5BlockINS_6MatrixIdLin1ELin1ELi0ELin1ELin1EEELin1ELin1ELb0EEES4_NS0_9assign_opIddEEEEvRT_RKT0_RKT1_, symObjAddr: 0x3A730, symBinAddr: 0x10003E338, symSize: 0x3C }
  - { offsetInCU: 0x1CFC6, offset: 0x1CFC6, size: 0x8, addend: 0x0, symName: __ZN5Eigen8internal18check_for_aliasingINS_5BlockINS_6MatrixIdLin1ELin1ELi0ELin1ELin1EEELin1ELin1ELb0EEES4_EEvRKT_RKT0_, symObjAddr: 0x3A7AC, symBinAddr: 0x10003E3B4, symSize: 0x60 }
  - { offsetInCU: 0x1D011, offset: 0x1D011, size: 0x8, addend: 0x0, symName: __ZN5Eigen8internal26call_dense_assignment_loopINS_5BlockINS_6MatrixIdLin1ELin1ELi0ELin1ELin1EEELin1ELin1ELb0EEES4_NS0_9assign_opIddEEEEvRT_RKT0_RKT1_, symObjAddr: 0x3A80C, symBinAddr: 0x10003E414, symSize: 0x424 }
  - { offsetInCU: 0x1D113, offset: 0x1D113, size: 0x8, addend: 0x0, symName: __ZN5Eigen8internal17resize_if_allowedINS_5BlockINS_6MatrixIdLin1ELin1ELi0ELin1ELin1EEELin1ELin1ELb0EEES4_ddEEvRT_RKT0_RKNS0_9assign_opIT1_T2_EE, symObjAddr: 0x3AC94, symBinAddr: 0x10003E89C, symSize: 0xFC }
  - { offsetInCU: 0x1D1D3, offset: 0x1D1D3, size: 0x8, addend: 0x0, symName: __ZN5Eigen8internal13first_alignedILi16EdlEET1_PKT0_S2_, symObjAddr: 0x3BD50, symBinAddr: 0x10003F958, symSize: 0xBC }
  - { offsetInCU: 0x1D316, offset: 0x1D316, size: 0x8, addend: 0x0, symName: __ZN5Eigen8internal6pstoreId19__simd128_float64_tEEvPT_RKT0_, symObjAddr: 0x3C670, symBinAddr: 0x100040278, symSize: 0xB4 }
  - { offsetInCU: 0x1D37E, offset: 0x1D37E, size: 0x8, addend: 0x0, symName: __ZN5Eigen8internal6ploaduI19__simd128_float64_tEET_PKNS0_15unpacket_traitsIS3_E4typeE, symObjAddr: 0x3C724, symBinAddr: 0x10004032C, symSize: 0x70 }
  - { offsetInCU: 0x1D3D2, offset: 0x1D3D2, size: 0x8, addend: 0x0, symName: __ZN5Eigen8internal24call_assignment_no_aliasINS_6MatrixIdLin1ELin1ELi0ELin1ELin1EEENS_13CwiseBinaryOpINS0_13scalar_sum_opIddEEKS3_S7_EENS0_9assign_opIddEEEEvRT_RKT0_RKT1_, symObjAddr: 0x3DA7C, symBinAddr: 0x100041684, symSize: 0x3C }
  - { offsetInCU: 0x1D4A0, offset: 0x1D4A0, size: 0x8, addend: 0x0, symName: __ZN5Eigen8internal18check_for_aliasingINS_6MatrixIdLin1ELin1ELi0ELin1ELin1EEENS_13CwiseBinaryOpINS0_13scalar_sum_opIddEEKS3_S7_EEEEvRKT_RKT0_, symObjAddr: 0x3DAF8, symBinAddr: 0x100041700, symSize: 0x60 }
  - { offsetInCU: 0x1D4EB, offset: 0x1D4EB, size: 0x8, addend: 0x0, symName: __ZN5Eigen8internal26call_dense_assignment_loopINS_6MatrixIdLin1ELin1ELi0ELin1ELin1EEENS_13CwiseBinaryOpINS0_13scalar_sum_opIddEEKS3_S7_EENS0_9assign_opIddEEEEvRT_RKT0_RKT1_, symObjAddr: 0x3DB58, symBinAddr: 0x100041760, symSize: 0x43C }
  - { offsetInCU: 0x1D5ED, offset: 0x1D5ED, size: 0x8, addend: 0x0, symName: __ZN5Eigen8internal17resize_if_allowedINS_6MatrixIdLin1ELin1ELi0ELin1ELin1EEENS_13CwiseBinaryOpINS0_13scalar_sum_opIddEEKS3_S7_EEddEEvRT_RKT0_RKNS0_9assign_opIT1_T2_EE, symObjAddr: 0x3DFDC, symBinAddr: 0x100041BE4, symSize: 0xFC }
  - { offsetInCU: 0x1DB6E, offset: 0x1DB6E, size: 0x8, addend: 0x0, symName: __ZN5Eigen8internal4paddI19__simd128_float64_tEET_RKS3_S5_, symObjAddr: 0x3EDE0, symBinAddr: 0x1000429E8, symSize: 0xC8 }
  - { offsetInCU: 0x1DBB5, offset: 0x1DBB5, size: 0x8, addend: 0x0, symName: __ZN5Eigen8internal5ploadI19__simd128_float64_tEET_PKNS0_15unpacket_traitsIS3_E4typeE, symObjAddr: 0x3EEA8, symBinAddr: 0x100042AB0, symSize: 0x70 }
  - { offsetInCU: 0x1DC09, offset: 0x1DC09, size: 0x8, addend: 0x0, symName: __ZN5Eigen8internal24call_assignment_no_aliasINS_6MatrixIdLin1ELin1ELi0ELin1ELin1EEENS_13CwiseBinaryOpINS0_18scalar_quotient_opIddEEKNS_7ProductIS3_NS_9TransposeIKS3_EELi0EEEKNS_14CwiseNullaryOpINS0_18scalar_constant_opIdEES9_EEEENS0_9assign_opIddEEEEvRT_RKT0_RKT1_, symObjAddr: 0x4B548, symBinAddr: 0x10004F150, symSize: 0x3C }
  - { offsetInCU: 0x1DCD7, offset: 0x1DCD7, size: 0x8, addend: 0x0, symName: __ZN5Eigen8internal18check_for_aliasingINS_6MatrixIdLin1ELin1ELi0ELin1ELin1EEENS_13CwiseBinaryOpINS0_18scalar_quotient_opIddEEKNS_7ProductIS3_NS_9TransposeIKS3_EELi0EEEKNS_14CwiseNullaryOpINS0_18scalar_constant_opIdEES9_EEEEEEvRKT_RKT0_, symObjAddr: 0x4B5C4, symBinAddr: 0x10004F1CC, symSize: 0x60 }
  - { offsetInCU: 0x1DD22, offset: 0x1DD22, size: 0x8, addend: 0x0, symName: __ZN5Eigen8internal26call_dense_assignment_loopINS_6MatrixIdLin1ELin1ELi0ELin1ELin1EEENS_13CwiseBinaryOpINS0_18scalar_quotient_opIddEEKNS_7ProductIS3_NS_9TransposeIKS3_EELi0EEEKNS_14CwiseNullaryOpINS0_18scalar_constant_opIdEES9_EEEENS0_9assign_opIddEEEEvRT_RKT0_RKT1_, symObjAddr: 0x4B624, symBinAddr: 0x10004F22C, symSize: 0x40C }
  - { offsetInCU: 0x1DE25, offset: 0x1DE25, size: 0x8, addend: 0x0, symName: __ZN5Eigen8internal17resize_if_allowedINS_6MatrixIdLin1ELin1ELi0ELin1ELin1EEENS_13CwiseBinaryOpINS0_18scalar_quotient_opIddEEKNS_7ProductIS3_NS_9TransposeIKS3_EELi0EEEKNS_14CwiseNullaryOpINS0_18scalar_constant_opIdEES9_EEEEddEEvRT_RKT0_RKNS0_9assign_opIT1_T2_EE, symObjAddr: 0x4BA78, symBinAddr: 0x10004F680, symSize: 0xFC }
  - { offsetInCU: 0x1E19E, offset: 0x1E19E, size: 0x8, addend: 0x0, symName: __ZN5Eigen8internal22ignore_unused_variableIdEEvRKT_, symObjAddr: 0x4DBCC, symBinAddr: 0x1000517D4, symSize: 0x10 }
  - { offsetInCU: 0x1E1CD, offset: 0x1E1CD, size: 0x8, addend: 0x0, symName: __ZN5Eigen8internal42call_restricted_packet_assignment_no_aliasINS_6MatrixIdLin1ELin1ELi0ELin1ELin1EEENS_7ProductIS3_NS_9TransposeIKS3_EELi1EEENS0_9assign_opIddEEEEvRT_RKT0_RKT1_, symObjAddr: 0x4DBDC, symBinAddr: 0x1000517E4, symSize: 0x45C }
  - { offsetInCU: 0x1E292, offset: 0x1E292, size: 0x8, addend: 0x0, symName: __ZN5Eigen8internal17resize_if_allowedINS_6MatrixIdLin1ELin1ELi0ELin1ELin1EEENS_7ProductIS3_NS_9TransposeIKS3_EELi1EEEddEEvRT_RKT0_RKNS0_9assign_opIT1_T2_EE, symObjAddr: 0x4E290, symBinAddr: 0x100051E98, symSize: 0xFC }
  - { offsetInCU: 0x1E9B5, offset: 0x1E9B5, size: 0x8, addend: 0x0, symName: __ZN5Eigen8internal5pset1I19__simd128_float64_tEET_RKNS0_15unpacket_traitsIS3_E4typeE, symObjAddr: 0x53490, symBinAddr: 0x100057098, symSize: 0x90 }
  - { offsetInCU: 0x1E9EC, offset: 0x1E9EC, size: 0x8, addend: 0x0, symName: __ZN5Eigen8internal5pmaddI19__simd128_float64_tEET_RKS3_S5_S5_, symObjAddr: 0x53520, symBinAddr: 0x100057128, symSize: 0x118 }
  - { offsetInCU: 0x1EA44, offset: 0x1EA44, size: 0x8, addend: 0x0, symName: __ZN5Eigen8internal15call_assignmentINS_6MatrixIdLin1ELin1ELi0ELin1ELin1EEENS_14CwiseNullaryOpINS0_18scalar_constant_opIdEES3_EEEEvRT_RKT0_, symObjAddr: 0x53F80, symBinAddr: 0x100057B88, symSize: 0x1F8 }
  - { offsetInCU: 0x1EA91, offset: 0x1EA91, size: 0x8, addend: 0x0, symName: __ZN5Eigen8internal15call_assignmentINS_6MatrixIdLin1ELin1ELi0ELin1ELin1EEENS_14CwiseNullaryOpINS0_18scalar_constant_opIdEES3_EENS0_9assign_opIddEEEEvRT_RKT0_RKT1_NS0_9enable_ifIXntsr25evaluator_assume_aliasingISC_EE5valueEPvE4typeE, symObjAddr: 0x5418C, symBinAddr: 0x100057D94, symSize: 0x38 }
  - { offsetInCU: 0x1EAFF, offset: 0x1EAFF, size: 0x8, addend: 0x0, symName: __ZN5Eigen8internal24call_assignment_no_aliasINS_6MatrixIdLin1ELin1ELi0ELin1ELin1EEENS_14CwiseNullaryOpINS0_18scalar_constant_opIdEES3_EENS0_9assign_opIddEEEEvRT_RKT0_RKT1_, symObjAddr: 0x541C4, symBinAddr: 0x100057DCC, symSize: 0x3C }
  - { offsetInCU: 0x1EBCD, offset: 0x1EBCD, size: 0x8, addend: 0x0, symName: __ZN5Eigen8internal18check_for_aliasingINS_6MatrixIdLin1ELin1ELi0ELin1ELin1EEENS_14CwiseNullaryOpINS0_18scalar_constant_opIdEES3_EEEEvRKT_RKT0_, symObjAddr: 0x54240, symBinAddr: 0x100057E48, symSize: 0x60 }
  - { offsetInCU: 0x1EC18, offset: 0x1EC18, size: 0x8, addend: 0x0, symName: __ZN5Eigen8internal26call_dense_assignment_loopINS_6MatrixIdLin1ELin1ELi0ELin1ELin1EEEEEvRT_RKNS_14CwiseNullaryOpINS0_18scalar_constant_opINS4_6ScalarEEES4_EERKNS0_9assign_opIS8_S8_EE, symObjAddr: 0x542A0, symBinAddr: 0x100057EA8, symSize: 0x254 }
  - { offsetInCU: 0x1ECAA, offset: 0x1ECAA, size: 0x8, addend: 0x0, symName: __ZN5Eigen8internal17resize_if_allowedINS_6MatrixIdLin1ELin1ELi0ELin1ELin1EEENS_14CwiseNullaryOpINS0_18scalar_constant_opIdEES3_EEddEEvRT_RKT0_RKNS0_9assign_opIT1_T2_EE, symObjAddr: 0x54508, symBinAddr: 0x100058110, symSize: 0xFC }
  - { offsetInCU: 0x1F4A1, offset: 0x1F4A1, size: 0x8, addend: 0x0, symName: __ZN5Eigen8internal16parallelize_gemmILb1ENS0_12gemm_functorIdlNS0_29general_matrix_matrix_productIldLi0ELb0EdLi1ELb0ELi0ELi1EEENS_6MatrixIdLin1ELin1ELi0ELin1ELin1EEENS_9TransposeIKS6_EES6_NS0_19gemm_blocking_spaceILi0EddLin1ELin1ELin1ELi1ELb0EEEEElEEvRKT0_T1_SG_SG_b, symObjAddr: 0x551C8, symBinAddr: 0x100058DD0, symSize: 0x2C0 }
  - { offsetInCU: 0x1FBD5, offset: 0x1FBD5, size: 0x8, addend: 0x0, symName: __ZN5Eigen8internal4pmulIdEET_RKS2_S4_, symObjAddr: 0x58364, symBinAddr: 0x10005BF6C, symSize: 0xB0 }
  - { offsetInCU: 0x1FD76, offset: 0x1FD76, size: 0x8, addend: 0x0, symName: __ZN5Eigen8internal7pstoreuId19__simd128_float64_tEEvPT_RKT0_, symObjAddr: 0x5DD30, symBinAddr: 0x100061938, symSize: 0xB4 }
  - { offsetInCU: 0x20594, offset: 0x20594, size: 0x8, addend: 0x0, symName: __ZN5Eigen8internal15call_assignmentINS_3MapINS_6MatrixIdLin1ELi1ELi0ELin1ELi1EEELi2ENS_6StrideILi0ELi0EEEEENS_9TransposeINS_5BlockINS3_IdLin1ELin1ELi0ELin1ELin1EEELi1ELin1ELb0EEEEEEEvRT_RKT0_, symObjAddr: 0x62E44, symBinAddr: 0x100066A4C, symSize: 0x1F8 }
  - { offsetInCU: 0x205E1, offset: 0x205E1, size: 0x8, addend: 0x0, symName: __ZN5Eigen8internal15call_assignmentINS_3MapINS_6MatrixIdLin1ELi1ELi0ELin1ELi1EEELi2ENS_6StrideILi0ELi0EEEEENS_9TransposeINS_5BlockINS3_IdLin1ELin1ELi0ELin1ELin1EEELi1ELin1ELb0EEEEENS0_9assign_opIddEEEEvRT_RKT0_RKT1_NS0_9enable_ifIXntsr25evaluator_assume_aliasingISH_EE5valueEPvE4typeE, symObjAddr: 0x63050, symBinAddr: 0x100066C58, symSize: 0x38 }
  - { offsetInCU: 0x2064F, offset: 0x2064F, size: 0x8, addend: 0x0, symName: __ZN5Eigen8internal24call_assignment_no_aliasINS_3MapINS_6MatrixIdLin1ELi1ELi0ELin1ELi1EEELi2ENS_6StrideILi0ELi0EEEEENS_9TransposeINS_5BlockINS3_IdLin1ELin1ELi0ELin1ELin1EEELi1ELin1ELb0EEEEENS0_9assign_opIddEEEEvRT_RKT0_RKT1_, symObjAddr: 0x63088, symBinAddr: 0x100066C90, symSize: 0x3C }
  - { offsetInCU: 0x2071D, offset: 0x2071D, size: 0x8, addend: 0x0, symName: __ZN5Eigen8internal18check_for_aliasingINS_3MapINS_6MatrixIdLin1ELi1ELi0ELin1ELi1EEELi2ENS_6StrideILi0ELi0EEEEENS_9TransposeINS_5BlockINS3_IdLin1ELin1ELi0ELin1ELin1EEELi1ELin1ELb0EEEEEEEvRKT_RKT0_, symObjAddr: 0x63104, symBinAddr: 0x100066D0C, symSize: 0x14 }
  - { offsetInCU: 0x20768, offset: 0x20768, size: 0x8, addend: 0x0, symName: __ZN5Eigen8internal26call_dense_assignment_loopINS_3MapINS_6MatrixIdLin1ELi1ELi0ELin1ELi1EEELi2ENS_6StrideILi0ELi0EEEEENS_9TransposeINS_5BlockINS3_IdLin1ELin1ELi0ELin1ELin1EEELi1ELin1ELb0EEEEENS0_9assign_opIddEEEEvRT_RKT0_RKT1_, symObjAddr: 0x63118, symBinAddr: 0x100066D20, symSize: 0x464 }
  - { offsetInCU: 0x20A5F, offset: 0x20A5F, size: 0x8, addend: 0x0, symName: __ZN5Eigen8internal17resize_if_allowedINS_3MapINS_6MatrixIdLin1ELi1ELi0ELin1ELi1EEELi2ENS_6StrideILi0ELi0EEEEENS_9TransposeINS_5BlockINS3_IdLin1ELin1ELi0ELin1ELin1EEELi1ELin1ELb0EEEEEddEEvRT_RKT0_RKNS0_9assign_opIT1_T2_EE, symObjAddr: 0x635B0, symBinAddr: 0x1000671B8, symSize: 0xFC }
  - { offsetInCU: 0x20D87, offset: 0x20D87, size: 0x8, addend: 0x0, symName: __ZN5Eigen8internal15call_assignmentINS_9TransposeINS_5BlockINS_6MatrixIdLin1ELin1ELi0ELin1ELin1EEELi1ELin1ELb0EEEEENS_3MapINS4_IdLin1ELi1ELi0ELin1ELi1EEELi2ENS_6StrideILi0ELi0EEEEEEEvRT_RKT0_, symObjAddr: 0x64548, symBinAddr: 0x100068150, symSize: 0x1F8 }
  - { offsetInCU: 0x20DD4, offset: 0x20DD4, size: 0x8, addend: 0x0, symName: __ZN5Eigen8internal15call_assignmentINS_9TransposeINS_5BlockINS_6MatrixIdLin1ELin1ELi0ELin1ELin1EEELi1ELin1ELb0EEEEENS_3MapINS4_IdLin1ELi1ELi0ELin1ELi1EEELi2ENS_6StrideILi0ELi0EEEEENS0_9assign_opIddEEEEvRT_RKT0_RKT1_NS0_9enable_ifIXntsr25evaluator_assume_aliasingISH_EE5valueEPvE4typeE, symObjAddr: 0x64754, symBinAddr: 0x10006835C, symSize: 0x38 }
  - { offsetInCU: 0x20E42, offset: 0x20E42, size: 0x8, addend: 0x0, symName: __ZN5Eigen8internal24call_assignment_no_aliasINS_9TransposeINS_5BlockINS_6MatrixIdLin1ELin1ELi0ELin1ELin1EEELi1ELin1ELb0EEEEENS_3MapINS4_IdLin1ELi1ELi0ELin1ELi1EEELi2ENS_6StrideILi0ELi0EEEEENS0_9assign_opIddEEEEvRT_RKT0_RKT1_, symObjAddr: 0x6478C, symBinAddr: 0x100068394, symSize: 0x3C }
  - { offsetInCU: 0x20F10, offset: 0x20F10, size: 0x8, addend: 0x0, symName: __ZN5Eigen8internal18check_for_aliasingINS_9TransposeINS_5BlockINS_6MatrixIdLin1ELin1ELi0ELin1ELin1EEELi1ELin1ELb0EEEEENS_3MapINS4_IdLin1ELi1ELi0ELin1ELi1EEELi2ENS_6StrideILi0ELi0EEEEEEEvRKT_RKT0_, symObjAddr: 0x64808, symBinAddr: 0x100068410, symSize: 0x14 }
  - { offsetInCU: 0x20F5B, offset: 0x20F5B, size: 0x8, addend: 0x0, symName: __ZN5Eigen8internal26call_dense_assignment_loopINS_9TransposeINS_5BlockINS_6MatrixIdLin1ELin1ELi0ELin1ELin1EEELi1ELin1ELb0EEEEENS_3MapINS4_IdLin1ELi1ELi0ELin1ELi1EEELi2ENS_6StrideILi0ELi0EEEEENS0_9assign_opIddEEEEvRT_RKT0_RKT1_, symObjAddr: 0x6481C, symBinAddr: 0x100068424, symSize: 0x464 }
  - { offsetInCU: 0x2101F, offset: 0x2101F, size: 0x8, addend: 0x0, symName: __ZN5Eigen8internal17resize_if_allowedINS_9TransposeINS_5BlockINS_6MatrixIdLin1ELin1ELi0ELin1ELin1EEELi1ELin1ELb0EEEEENS_3MapINS4_IdLin1ELi1ELi0ELin1ELi1EEELi2ENS_6StrideILi0ELi0EEEEEddEEvRT_RKT0_RKNS0_9assign_opIT1_T2_EE, symObjAddr: 0x64C80, symBinAddr: 0x100068888, symSize: 0xFC }
  - { offsetInCU: 0x212F7, offset: 0x212F7, size: 0x8, addend: 0x0, symName: __ZN5Eigen8internal27computeProductBlockingSizesIddLi1ElEEvRT2_S3_S3_S2_, symObjAddr: 0x65AE0, symBinAddr: 0x1000696E8, symSize: 0x58 }
  - { offsetInCU: 0x21373, offset: 0x21373, size: 0x8, addend: 0x0, symName: __ZN5Eigen8internal24useSpecificBlockingSizesIlEEbRT_S3_S3_, symObjAddr: 0x65B38, symBinAddr: 0x100069740, symSize: 0x44 }
  - { offsetInCU: 0x213C8, offset: 0x213C8, size: 0x8, addend: 0x0, symName: __ZN5Eigen8internal15queryCacheSizesERiS1_S1_, symObjAddr: 0x680D8, symBinAddr: 0x10006BCE0, symSize: 0x168 }
  - { offsetInCU: 0x21410, offset: 0x21410, size: 0x8, addend: 0x0, symName: __ZN5Eigen8internal27manage_caching_sizes_helperEll, symObjAddr: 0x68240, symBinAddr: 0x10006BE48, symSize: 0x44 }
  - { offsetInCU: 0x2144A, offset: 0x2144A, size: 0x8, addend: 0x0, symName: __ZN5Eigen8internal22ignore_unused_variableIbEEvRKT_, symObjAddr: 0x68498, symBinAddr: 0x10006C0A0, symSize: 0x10 }
  - { offsetInCU: 0x21479, offset: 0x21479, size: 0x8, addend: 0x0, symName: __ZN5Eigen8internal22ignore_unused_variableIPNS0_16GemmParallelInfoIlEEEEvRKT_, symObjAddr: 0x6A894, symBinAddr: 0x10006E49C, symSize: 0x10 }
  - { offsetInCU: 0x21574, offset: 0x21574, size: 0x8, addend: 0x0, symName: __ZN5Eigen8internal8prefetchIdEEvPKT_, symObjAddr: 0x753D8, symBinAddr: 0x100078FE0, symSize: 0x18 }
  - { offsetInCU: 0x2195D, offset: 0x2195D, size: 0x8, addend: 0x0, symName: __ZN5Eigen8internal5pmaddIdEET_RKS2_S4_S4_, symObjAddr: 0x788CC, symBinAddr: 0x10007C4D4, symSize: 0x22C }
  - { offsetInCU: 0x219B5, offset: 0x219B5, size: 0x8, addend: 0x0, symName: __ZN5Eigen8internal4paddIdEET_RKS2_S4_, symObjAddr: 0x78AF8, symBinAddr: 0x10007C700, symSize: 0xB0 }
  - { offsetInCU: 0x219F8, offset: 0x219F8, size: 0x8, addend: 0x0, symName: __ZN5Eigen8internal14aligned_deleteIdEEvPT_m, symObjAddr: 0x78EC0, symBinAddr: 0x10007CAC8, symSize: 0x34 }
  - { offsetInCU: 0x21A3A, offset: 0x21A3A, size: 0x8, addend: 0x0, symName: __ZN5Eigen8internal26destruct_elements_of_arrayIdEEvPT_m, symObjAddr: 0x78EF4, symBinAddr: 0x10007CAFC, symSize: 0x54 }
  - { offsetInCU: 0x21A7C, offset: 0x21A7C, size: 0x8, addend: 0x0, symName: __ZN5Eigen8internal4pdivI19__simd128_float64_tEET_RKS3_S5_, symObjAddr: 0x79844, symBinAddr: 0x10007D44C, symSize: 0xC8 }
  - { offsetInCU: 0x21AC3, offset: 0x21AC3, size: 0x8, addend: 0x0, symName: __ZN5Eigen8internal24call_assignment_no_aliasINS_6MatrixIdLin1ELin1ELi0ELin1ELin1EEENS_12CwiseUnaryOpINS0_13scalar_exp_opIdEEKNS_12ArrayWrapperIS3_EEEENS0_9assign_opIddEEEEvRT_RKT0_RKT1_, symObjAddr: 0x7A7FC, symBinAddr: 0x10007E404, symSize: 0x3C }
  - { offsetInCU: 0x21B91, offset: 0x21B91, size: 0x8, addend: 0x0, symName: __ZN5Eigen8internal18check_for_aliasingINS_6MatrixIdLin1ELin1ELi0ELin1ELin1EEENS_12CwiseUnaryOpINS0_13scalar_exp_opIdEEKNS_12ArrayWrapperIS3_EEEEEEvRKT_RKT0_, symObjAddr: 0x7A878, symBinAddr: 0x10007E480, symSize: 0x60 }
  - { offsetInCU: 0x21BDC, offset: 0x21BDC, size: 0x8, addend: 0x0, symName: __ZN5Eigen8internal26call_dense_assignment_loopINS_6MatrixIdLin1ELin1ELi0ELin1ELin1EEENS_12CwiseUnaryOpINS0_13scalar_exp_opIdEEKNS_12ArrayWrapperIS3_EEEENS0_9assign_opIddEEEEvRT_RKT0_RKT1_, symObjAddr: 0x7A8D8, symBinAddr: 0x10007E4E0, symSize: 0x41C }
  - { offsetInCU: 0x21CDE, offset: 0x21CDE, size: 0x8, addend: 0x0, symName: __ZN5Eigen8internal17resize_if_allowedINS_6MatrixIdLin1ELin1ELi0ELin1ELin1EEENS_12CwiseUnaryOpINS0_13scalar_exp_opIdEEKNS_12ArrayWrapperIS3_EEEEddEEvRT_RKT0_RKNS0_9assign_opIT1_T2_EE, symObjAddr: 0x7AD3C, symBinAddr: 0x10007E944, symSize: 0xFC }
  - { offsetInCU: 0x21D64, offset: 0x21D64, size: 0x8, addend: 0x0, symName: __ZN5Eigen8internal4pexpI19__simd128_float64_tEET_RKS3_, symObjAddr: 0x7BA5C, symBinAddr: 0x10007F664, symSize: 0x64 }
  - { offsetInCU: 0x21D99, offset: 0x21D99, size: 0x8, addend: 0x0, symName: __ZN5Eigen8internal11pexp_doubleI19__simd128_float64_tEET_S3_, symObjAddr: 0x7BAC0, symBinAddr: 0x10007F6C8, symSize: 0x14FC }
  - { offsetInCU: 0x21F81, offset: 0x21F81, size: 0x8, addend: 0x0, symName: __ZN5Eigen8internal4pmaxI19__simd128_float64_tEET_RKS3_S5_, symObjAddr: 0x7CFBC, symBinAddr: 0x100080BC4, symSize: 0xCC }
  - { offsetInCU: 0x21FC8, offset: 0x21FC8, size: 0x8, addend: 0x0, symName: __ZN5Eigen8internal4pminI19__simd128_float64_tEET_RKS3_S5_, symObjAddr: 0x7D088, symBinAddr: 0x100080C90, symSize: 0xCC }
  - { offsetInCU: 0x2200F, offset: 0x2200F, size: 0x8, addend: 0x0, symName: __ZN5Eigen8internal6pfloorI19__simd128_float64_tEET_RKS3_, symObjAddr: 0x7D154, symBinAddr: 0x100080D5C, symSize: 0x74 }
  - { offsetInCU: 0x22046, offset: 0x22046, size: 0x8, addend: 0x0, symName: __ZN5Eigen8internal4pmulI19__simd128_float64_tEET_RKS3_S5_, symObjAddr: 0x7D1C8, symBinAddr: 0x100080DD0, symSize: 0xC8 }
  - { offsetInCU: 0x2208D, offset: 0x2208D, size: 0x8, addend: 0x0, symName: __ZN5Eigen8internal4psubI19__simd128_float64_tEET_RKS3_S5_, symObjAddr: 0x7D290, symBinAddr: 0x100080E98, symSize: 0xC8 }
  - { offsetInCU: 0x220D4, offset: 0x220D4, size: 0x8, addend: 0x0, symName: __ZN5Eigen8internal6pldexpI19__simd128_float64_tEET_RKS3_S5_, symObjAddr: 0x7D358, symBinAddr: 0x100080F60, symSize: 0x2C }
  - { offsetInCU: 0x2211A, offset: 0x2211A, size: 0x8, addend: 0x0, symName: __ZN5Eigen8internal5pset1I17__simd128_int64_tEET_RKNS0_15unpacket_traitsIS3_E4typeE, symObjAddr: 0x7DD54, symBinAddr: 0x10008195C, symSize: 0x90 }
  - { offsetInCU: 0x22151, offset: 0x22151, size: 0x8, addend: 0x0, symName: __ZN5Eigen8internal5pcastI19__simd128_float64_t17__simd128_int64_tEET0_RKT_, symObjAddr: 0x7DDE4, symBinAddr: 0x1000819EC, symSize: 0x74 }
  - { offsetInCU: 0x22191, offset: 0x22191, size: 0x8, addend: 0x0, symName: __ZN5Eigen8internal7pnegateI19__simd128_float64_tEET_RKS3_, symObjAddr: 0x7DE58, symBinAddr: 0x100081A60, symSize: 0x74 }
  - { offsetInCU: 0x221C8, offset: 0x221C8, size: 0x8, addend: 0x0, symName: __ZN5Eigen8internal23parithmetic_shift_rightILi2EEE17__simd128_int64_tS2_, symObjAddr: 0x7DECC, symBinAddr: 0x100081AD4, symSize: 0x30 }
  - { offsetInCU: 0x2222C, offset: 0x2222C, size: 0x8, addend: 0x0, symName: __ZN5Eigen8internal12preinterpretI19__simd128_float64_t17__simd128_int64_tEET_RKT0_, symObjAddr: 0x7DEFC, symBinAddr: 0x100081B04, symSize: 0x70 }
  - { offsetInCU: 0x2226C, offset: 0x2226C, size: 0x8, addend: 0x0, symName: __ZN5Eigen8internal19plogical_shift_leftILi52EEE17__simd128_int64_tS2_, symObjAddr: 0x7DF6C, symBinAddr: 0x100081B74, symSize: 0x30 }
  - { offsetInCU: 0x222D0, offset: 0x222D0, size: 0x8, addend: 0x0, symName: __ZN5Eigen8internal4paddI17__simd128_int64_tEET_RKS3_S5_, symObjAddr: 0x7DF9C, symBinAddr: 0x100081BA4, symSize: 0xC8 }
  - { offsetInCU: 0x22317, offset: 0x22317, size: 0x8, addend: 0x0, symName: __ZN5Eigen8internal4psubI17__simd128_int64_tEET_RKS3_S5_, symObjAddr: 0x7E064, symBinAddr: 0x100081C6C, symSize: 0xC8 }
  - { offsetInCU: 0x2235E, offset: 0x2235E, size: 0x8, addend: 0x0, symName: __ZN5Eigen8internal24call_assignment_no_aliasINS_6MatrixIdLin1ELi1ELi0ELin1ELi1EEENS_16PartialReduxExprINS2_IdLin1ELin1ELi0ELin1ELin1EEENS0_10member_sumIddEELi1EEENS0_9assign_opIddEEEEvRT_RKT0_RKT1_, symObjAddr: 0x7EE10, symBinAddr: 0x100082A18, symSize: 0x3C }
  - { offsetInCU: 0x2242C, offset: 0x2242C, size: 0x8, addend: 0x0, symName: __ZN5Eigen8internal18check_for_aliasingINS_6MatrixIdLin1ELi1ELi0ELin1ELi1EEENS_16PartialReduxExprINS2_IdLin1ELin1ELi0ELin1ELin1EEENS0_10member_sumIddEELi1EEEEEvRKT_RKT0_, symObjAddr: 0x7EE8C, symBinAddr: 0x100082A94, symSize: 0x14 }
  - { offsetInCU: 0x22477, offset: 0x22477, size: 0x8, addend: 0x0, symName: __ZN5Eigen8internal26call_dense_assignment_loopINS_6MatrixIdLin1ELi1ELi0ELin1ELi1EEENS_16PartialReduxExprINS2_IdLin1ELin1ELi0ELin1ELin1EEENS0_10member_sumIddEELi1EEENS0_9assign_opIddEEEEvRT_RKT0_RKT1_, symObjAddr: 0x7EEA0, symBinAddr: 0x100082AA8, symSize: 0x424 }
  - { offsetInCU: 0x2253B, offset: 0x2253B, size: 0x8, addend: 0x0, symName: __ZN5Eigen8internal17resize_if_allowedINS_6MatrixIdLin1ELi1ELi0ELin1ELi1EEENS_16PartialReduxExprINS2_IdLin1ELin1ELi0ELin1ELin1EEENS0_10member_sumIddEELi1EEEddEEvRT_RKT0_RKNS0_9assign_opIT1_T2_EE, symObjAddr: 0x7F32C, symBinAddr: 0x100082F34, symSize: 0xFC }
  - { offsetInCU: 0x22769, offset: 0x22769, size: 0x8, addend: 0x0, symName: __ZN5Eigen8internal28packetwise_redux_empty_valueI19__simd128_float64_tNS0_13scalar_sum_opIddEEEET_RKT0_, symObjAddr: 0x813F4, symBinAddr: 0x100084FFC, symSize: 0x208 }
  - { offsetInCU: 0x228BB, offset: 0x228BB, size: 0x8, addend: 0x0, symName: __ZN5Eigen8internal24call_assignment_no_aliasINS_6MatrixIdLin1ELin1ELi0ELin1ELin1EEENS_13CwiseBinaryOpINS0_18scalar_quotient_opIddEEKNS_12ArrayWrapperIS3_EEKNS_9ReplicateINS7_INS2_IdLin1ELi1ELi0ELin1ELi1EEEEELi1ELin1EEEEENS0_9assign_opIddEEEEvRT_RKT0_RKT1_, symObjAddr: 0x8366C, symBinAddr: 0x100087274, symSize: 0x3C }
  - { offsetInCU: 0x22989, offset: 0x22989, size: 0x8, addend: 0x0, symName: __ZN5Eigen8internal18check_for_aliasingINS_6MatrixIdLin1ELin1ELi0ELin1ELin1EEENS_13CwiseBinaryOpINS0_18scalar_quotient_opIddEEKNS_12ArrayWrapperIS3_EEKNS_9ReplicateINS7_INS2_IdLin1ELi1ELi0ELin1ELi1EEEEELi1ELin1EEEEEEEvRKT_RKT0_, symObjAddr: 0x836E8, symBinAddr: 0x1000872F0, symSize: 0x60 }
  - { offsetInCU: 0x229D4, offset: 0x229D4, size: 0x8, addend: 0x0, symName: __ZN5Eigen8internal26call_dense_assignment_loopINS_6MatrixIdLin1ELin1ELi0ELin1ELin1EEENS_13CwiseBinaryOpINS0_18scalar_quotient_opIddEEKNS_12ArrayWrapperIS3_EEKNS_9ReplicateINS7_INS2_IdLin1ELi1ELi0ELin1ELi1EEEEELi1ELin1EEEEENS0_9assign_opIddEEEEvRT_RKT0_RKT1_, symObjAddr: 0x83748, symBinAddr: 0x100087350, symSize: 0x45C }
  - { offsetInCU: 0x22EA6, offset: 0x22EA6, size: 0x8, addend: 0x0, symName: __ZN5Eigen8internal17resize_if_allowedINS_6MatrixIdLin1ELin1ELi0ELin1ELin1EEENS_13CwiseBinaryOpINS0_18scalar_quotient_opIddEEKNS_12ArrayWrapperIS3_EEKNS_9ReplicateINS7_INS2_IdLin1ELi1ELi0ELin1ELi1EEEEELi1ELin1EEEEEddEEvRT_RKT0_RKNS0_9assign_opIT1_T2_EE, symObjAddr: 0x83BEC, symBinAddr: 0x1000877F4, symSize: 0xFC }
  - { offsetInCU: 0x2317E, offset: 0x2317E, size: 0x8, addend: 0x0, symName: __ZN5Eigen8internal24call_assignment_no_aliasINS_6MatrixIdLin1ELin1ELi0ELin1ELin1EEENS_7ProductIS3_S3_Li0EEENS0_9assign_opIddEEEEvRT_RKT0_RKT1_, symObjAddr: 0x85680, symBinAddr: 0x100089288, symSize: 0x3C }
  - { offsetInCU: 0x234DD, offset: 0x234DD, size: 0x8, addend: 0x0, symName: __ZN5Eigen8internal42call_restricted_packet_assignment_no_aliasINS_6MatrixIdLin1ELin1ELi0ELin1ELin1EEENS_7ProductIS3_S3_Li1EEENS0_9assign_opIddEEEEvRT_RKT0_RKT1_, symObjAddr: 0x8684C, symBinAddr: 0x10008A454, symSize: 0x45C }
  - { offsetInCU: 0x235A2, offset: 0x235A2, size: 0x8, addend: 0x0, symName: __ZN5Eigen8internal17resize_if_allowedINS_6MatrixIdLin1ELin1ELi0ELin1ELin1EEENS_7ProductIS3_S3_Li1EEEddEEvRT_RKT0_RKNS0_9assign_opIT1_T2_EE, symObjAddr: 0x86F00, symBinAddr: 0x10008AB08, symSize: 0xFC }
  - { offsetInCU: 0x23F8C, offset: 0x23F8C, size: 0x8, addend: 0x0, symName: __ZN5Eigen8internal16parallelize_gemmILb1ENS0_12gemm_functorIdlNS0_29general_matrix_matrix_productIldLi0ELb0EdLi0ELb0ELi0ELi1EEENS_6MatrixIdLin1ELin1ELi0ELin1ELin1EEES6_S6_NS0_19gemm_blocking_spaceILi0EddLin1ELin1ELin1ELi1ELb0EEEEElEEvRKT0_T1_SD_SD_b, symObjAddr: 0x8BC04, symBinAddr: 0x10008F80C, symSize: 0x2C0 }
  - { offsetInCU: 0x24A8C, offset: 0x24A8C, size: 0x8, addend: 0x0, symName: __ZN5Eigen8internal15call_assignmentINS_3MapINS_6MatrixIdLin1ELi1ELi0ELin1ELi1EEELi0ENS_6StrideILi0ELi0EEEEENS_9TransposeIKNS_5BlockIKNS3_IdLin1ELin1ELi0ELin1ELin1EEELi1ELin1ELb0EEEEEEEvRT_RKT0_, symObjAddr: 0x95FBC, symBinAddr: 0x100099BC4, symSize: 0x1F8 }
  - { offsetInCU: 0x24AD9, offset: 0x24AD9, size: 0x8, addend: 0x0, symName: __ZN5Eigen8internal15call_assignmentINS_3MapINS_6MatrixIdLin1ELi1ELi0ELin1ELi1EEELi0ENS_6StrideILi0ELi0EEEEENS_9TransposeIKNS_5BlockIKNS3_IdLin1ELin1ELi0ELin1ELin1EEELi1ELin1ELb0EEEEENS0_9assign_opIddEEEEvRT_RKT0_RKT1_NS0_9enable_ifIXntsr25evaluator_assume_aliasingISJ_EE5valueEPvE4typeE, symObjAddr: 0x961C8, symBinAddr: 0x100099DD0, symSize: 0x38 }
  - { offsetInCU: 0x24B47, offset: 0x24B47, size: 0x8, addend: 0x0, symName: __ZN5Eigen8internal24call_assignment_no_aliasINS_3MapINS_6MatrixIdLin1ELi1ELi0ELin1ELi1EEELi0ENS_6StrideILi0ELi0EEEEENS_9TransposeIKNS_5BlockIKNS3_IdLin1ELin1ELi0ELin1ELin1EEELi1ELin1ELb0EEEEENS0_9assign_opIddEEEEvRT_RKT0_RKT1_, symObjAddr: 0x96200, symBinAddr: 0x100099E08, symSize: 0x3C }
  - { offsetInCU: 0x24C15, offset: 0x24C15, size: 0x8, addend: 0x0, symName: __ZN5Eigen8internal18check_for_aliasingINS_3MapINS_6MatrixIdLin1ELi1ELi0ELin1ELi1EEELi0ENS_6StrideILi0ELi0EEEEENS_9TransposeIKNS_5BlockIKNS3_IdLin1ELin1ELi0ELin1ELin1EEELi1ELin1ELb0EEEEEEEvRKT_RKT0_, symObjAddr: 0x9627C, symBinAddr: 0x100099E84, symSize: 0x14 }
  - { offsetInCU: 0x24C60, offset: 0x24C60, size: 0x8, addend: 0x0, symName: __ZN5Eigen8internal26call_dense_assignment_loopINS_3MapINS_6MatrixIdLin1ELi1ELi0ELin1ELi1EEELi0ENS_6StrideILi0ELi0EEEEENS_9TransposeIKNS_5BlockIKNS3_IdLin1ELin1ELi0ELin1ELin1EEELi1ELin1ELb0EEEEENS0_9assign_opIddEEEEvRT_RKT0_RKT1_, symObjAddr: 0x96290, symBinAddr: 0x100099E98, symSize: 0x464 }
  - { offsetInCU: 0x24D24, offset: 0x24D24, size: 0x8, addend: 0x0, symName: __ZN5Eigen8internal17resize_if_allowedINS_3MapINS_6MatrixIdLin1ELi1ELi0ELin1ELi1EEELi0ENS_6StrideILi0ELi0EEEEENS_9TransposeIKNS_5BlockIKNS3_IdLin1ELin1ELi0ELin1ELin1EEELi1ELin1ELb0EEEEEddEEvRT_RKT0_RKNS0_9assign_opIT1_T2_EE, symObjAddr: 0x96728, symBinAddr: 0x10009A330, symSize: 0xFC }
  - { offsetInCU: 0x2504C, offset: 0x2504C, size: 0x8, addend: 0x0, symName: __ZN5Eigen8internal6preduxI19__simd128_float64_tEENS0_15unpacket_traitsIT_E4typeERKS4_, symObjAddr: 0x97420, symBinAddr: 0x10009B028, symSize: 0xDC }
  - { offsetInCU: 0x25084, offset: 0x25084, size: 0x8, addend: 0x0, symName: __ZN5Eigen8internal24call_assignment_no_aliasINS_6MatrixIdLin1ELin1ELi0ELin1ELin1EEENS_13CwiseBinaryOpINS0_13scalar_sum_opIddEEKNS_7ProductIS3_S3_Li0EEEKNS_9ReplicateINS_9TransposeIKNS2_IdLin1ELi1ELi0ELin1ELi1EEEEELin1ELi1EEEEENS0_9assign_opIddEEEEvRT_RKT0_RKT1_, symObjAddr: 0x9BD50, symBinAddr: 0x10009F958, symSize: 0x3C }
  - { offsetInCU: 0x25152, offset: 0x25152, size: 0x8, addend: 0x0, symName: __ZN5Eigen8internal18check_for_aliasingINS_6MatrixIdLin1ELin1ELi0ELin1ELin1EEENS_13CwiseBinaryOpINS0_13scalar_sum_opIddEEKNS_7ProductIS3_S3_Li0EEEKNS_9ReplicateINS_9TransposeIKNS2_IdLin1ELi1ELi0ELin1ELi1EEEEELin1ELi1EEEEEEEvRKT_RKT0_, symObjAddr: 0x9BDCC, symBinAddr: 0x10009F9D4, symSize: 0x60 }
  - { offsetInCU: 0x2519D, offset: 0x2519D, size: 0x8, addend: 0x0, symName: __ZN5Eigen8internal26call_dense_assignment_loopINS_6MatrixIdLin1ELin1ELi0ELin1ELin1EEENS_13CwiseBinaryOpINS0_13scalar_sum_opIddEEKNS_7ProductIS3_S3_Li0EEEKNS_9ReplicateINS_9TransposeIKNS2_IdLin1ELi1ELi0ELin1ELi1EEEEELin1ELi1EEEEENS0_9assign_opIddEEEEvRT_RKT0_RKT1_, symObjAddr: 0x9BE2C, symBinAddr: 0x10009FA34, symSize: 0x434 }
  - { offsetInCU: 0x25869, offset: 0x25869, size: 0x8, addend: 0x0, symName: __ZN5Eigen8internal17resize_if_allowedINS_6MatrixIdLin1ELin1ELi0ELin1ELin1EEENS_13CwiseBinaryOpINS0_13scalar_sum_opIddEEKNS_7ProductIS3_S3_Li0EEEKNS_9ReplicateINS_9TransposeIKNS2_IdLin1ELi1ELi0ELin1ELi1EEEEELin1ELi1EEEEEddEEvRT_RKT0_RKNS0_9assign_opIT1_T2_EE, symObjAddr: 0x9C2A8, symBinAddr: 0x10009FEB0, symSize: 0xFC }
  - { offsetInCU: 0x25B41, offset: 0x25B41, size: 0x8, addend: 0x0, symName: __ZN5Eigen8internal15call_assignmentINS_6MatrixIdLin1ELin1ELi0ELin1ELin1EEENS_13CwiseBinaryOpINS0_13scalar_max_opIddLi0EEEKNS_12ArrayWrapperIS3_EEKNS_14CwiseNullaryOpINS0_18scalar_constant_opIdEENS_5ArrayIdLin1ELin1ELi0ELin1ELin1EEEEEEEEEvRT_RKT0_, symObjAddr: 0x9E480, symBinAddr: 0x1000A2088, symSize: 0x1F8 }
  - { offsetInCU: 0x25B8E, offset: 0x25B8E, size: 0x8, addend: 0x0, symName: __ZN5Eigen8internal15call_assignmentINS_6MatrixIdLin1ELin1ELi0ELin1ELin1EEENS_13CwiseBinaryOpINS0_13scalar_max_opIddLi0EEEKNS_12ArrayWrapperIS3_EEKNS_14CwiseNullaryOpINS0_18scalar_constant_opIdEENS_5ArrayIdLin1ELin1ELi0ELin1ELin1EEEEEEENS0_9assign_opIddEEEEvRT_RKT0_RKT1_NS0_9enable_ifIXntsr25evaluator_assume_aliasingISM_EE5valueEPvE4typeE, symObjAddr: 0x9E68C, symBinAddr: 0x1000A2294, symSize: 0x38 }
  - { offsetInCU: 0x25BFC, offset: 0x25BFC, size: 0x8, addend: 0x0, symName: __ZN5Eigen8internal24call_assignment_no_aliasINS_6MatrixIdLin1ELin1ELi0ELin1ELin1EEENS_13CwiseBinaryOpINS0_13scalar_max_opIddLi0EEEKNS_12ArrayWrapperIS3_EEKNS_14CwiseNullaryOpINS0_18scalar_constant_opIdEENS_5ArrayIdLin1ELin1ELi0ELin1ELin1EEEEEEENS0_9assign_opIddEEEEvRT_RKT0_RKT1_, symObjAddr: 0x9E6C4, symBinAddr: 0x1000A22CC, symSize: 0x3C }
  - { offsetInCU: 0x25CCA, offset: 0x25CCA, size: 0x8, addend: 0x0, symName: __ZN5Eigen8internal18check_for_aliasingINS_6MatrixIdLin1ELin1ELi0ELin1ELin1EEENS_13CwiseBinaryOpINS0_13scalar_max_opIddLi0EEEKNS_12ArrayWrapperIS3_EEKNS_14CwiseNullaryOpINS0_18scalar_constant_opIdEENS_5ArrayIdLin1ELin1ELi0ELin1ELin1EEEEEEEEEvRKT_RKT0_, symObjAddr: 0x9E740, symBinAddr: 0x1000A2348, symSize: 0x60 }
  - { offsetInCU: 0x25D15, offset: 0x25D15, size: 0x8, addend: 0x0, symName: __ZN5Eigen8internal26call_dense_assignment_loopINS_6MatrixIdLin1ELin1ELi0ELin1ELin1EEENS_13CwiseBinaryOpINS0_13scalar_max_opIddLi0EEEKNS_12ArrayWrapperIS3_EEKNS_14CwiseNullaryOpINS0_18scalar_constant_opIdEENS_5ArrayIdLin1ELin1ELi0ELin1ELin1EEEEEEENS0_9assign_opIddEEEEvRT_RKT0_RKT1_, symObjAddr: 0x9E7A0, symBinAddr: 0x1000A23A8, symSize: 0x43C }
  - { offsetInCU: 0x25E17, offset: 0x25E17, size: 0x8, addend: 0x0, symName: __ZN5Eigen8internal17resize_if_allowedINS_6MatrixIdLin1ELin1ELi0ELin1ELin1EEENS_13CwiseBinaryOpINS0_13scalar_max_opIddLi0EEEKNS_12ArrayWrapperIS3_EEKNS_14CwiseNullaryOpINS0_18scalar_constant_opIdEENS_5ArrayIdLin1ELin1ELi0ELin1ELin1EEEEEEEddEEvRT_RKT0_RKNS0_9assign_opIT1_T2_EE, symObjAddr: 0x9EC24, symBinAddr: 0x1000A282C, symSize: 0xFC }
  - { offsetInCU: 0x25E9D, offset: 0x25E9D, size: 0x8, addend: 0x0, symName: __ZN5Eigen8internal4pmaxILi0E19__simd128_float64_tEET0_RKS3_S5_, symObjAddr: 0x9F9FC, symBinAddr: 0x1000A3604, symSize: 0x34 }
  - { offsetInCU: 0x25F66, offset: 0x25F66, size: 0x8, addend: 0x0, symName: __ZN5Eigen8internal4pmaxILi0EdEET0_RKS2_S4_, symObjAddr: 0xA0004, symBinAddr: 0x1000A3C0C, symSize: 0x34 }
  - { offsetInCU: 0x25FB6, offset: 0x25FB6, size: 0x8, addend: 0x0, symName: __ZN5Eigen8internal4pmaxIdEET_RKS2_S4_, symObjAddr: 0xA006C, symBinAddr: 0x1000A3C74, symSize: 0x84 }
  - { offsetInCU: 0x26022, offset: 0x26022, size: 0x8, addend: 0x0, symName: __ZN5Eigen8internal24call_assignment_no_aliasINS_6MatrixIdLin1ELi1ELi0ELin1ELi1EEENS_13CwiseBinaryOpINS0_18scalar_quotient_opIddEEKNS_16PartialReduxExprIKNS2_IdLin1ELin1ELi0ELin1ELin1EEENS0_10member_sumIddEELi0EEEKNS_14CwiseNullaryOpINS0_18scalar_constant_opIdEEKNS2_IdLi1ELin1ELi1ELi1ELin1EEEEEEENS0_9assign_opIddEEEEvRT_RKT0_RKT1_, symObjAddr: 0xA1650, symBinAddr: 0x1000A5258, symSize: 0x1E8 }
  - { offsetInCU: 0x260F7, offset: 0x260F7, size: 0x8, addend: 0x0, symName: __ZN5Eigen8internal18check_for_aliasingINS_9TransposeINS_6MatrixIdLin1ELi1ELi0ELin1ELi1EEEEENS_13CwiseBinaryOpINS0_18scalar_quotient_opIddEEKNS_16PartialReduxExprIKNS3_IdLin1ELin1ELi0ELin1ELin1EEENS0_10member_sumIddEELi0EEEKNS_14CwiseNullaryOpINS0_18scalar_constant_opIdEEKNS3_IdLi1ELin1ELi1ELi1ELin1EEEEEEEEEvRKT_RKT0_, symObjAddr: 0xA1998, symBinAddr: 0x1000A55A0, symSize: 0x14 }
  - { offsetInCU: 0x26142, offset: 0x26142, size: 0x8, addend: 0x0, symName: __ZN5Eigen8internal26call_dense_assignment_loopINS_9TransposeINS_6MatrixIdLin1ELi1ELi0ELin1ELi1EEEEENS_13CwiseBinaryOpINS0_18scalar_quotient_opIddEEKNS_16PartialReduxExprIKNS3_IdLin1ELin1ELi0ELin1ELin1EEENS0_10member_sumIddEELi0EEEKNS_14CwiseNullaryOpINS0_18scalar_constant_opIdEEKNS3_IdLi1ELin1ELi1ELi1ELin1EEEEEEENS0_9assign_opIddEEEEvRT_RKT0_RKT1_, symObjAddr: 0xA19AC, symBinAddr: 0x1000A55B4, symSize: 0x448 }
  - { offsetInCU: 0x26625, offset: 0x26625, size: 0x8, addend: 0x0, symName: __ZN5Eigen8internal17resize_if_allowedINS_9TransposeINS_6MatrixIdLin1ELi1ELi0ELin1ELi1EEEEENS_13CwiseBinaryOpINS0_18scalar_quotient_opIddEEKNS_16PartialReduxExprIKNS3_IdLin1ELin1ELi0ELin1ELin1EEENS0_10member_sumIddEELi0EEEKNS_14CwiseNullaryOpINS0_18scalar_constant_opIdEEKNS3_IdLi1ELin1ELi1ELi1ELin1EEEEEEEddEEvRT_RKT0_RKNS0_9assign_opIT1_T2_EE, symObjAddr: 0xA1E28, symBinAddr: 0x1000A5A30, symSize: 0xFC }
  - { offsetInCU: 0x26BA2, offset: 0x26BA2, size: 0x8, addend: 0x0, symName: __ZN5Eigen8internalL21first_default_alignedINS_5BlockIKNS_6MatrixIdLin1ELin1ELi0ELin1ELin1EEELin1ELi1ELb1EEEEElRKNS_9DenseBaseIT_EE, symObjAddr: 0xA466C, symBinAddr: 0x1000A8274, symSize: 0x24 }
  - { offsetInCU: 0x26BD9, offset: 0x26BD9, size: 0x8, addend: 0x0, symName: __ZN5Eigen8internalL13first_alignedILi16ENS_5BlockIKNS_6MatrixIdLin1ELin1ELi0ELin1ELin1EEELin1ELi1ELb1EEEEElRKNS_9DenseBaseIT0_EE, symObjAddr: 0xA4808, symBinAddr: 0x1000A8410, symSize: 0x28 }
  - { offsetInCU: 0x26C58, offset: 0x26C58, size: 0x8, addend: 0x0, symName: __ZN5Eigen8internal24call_assignment_no_aliasINS_6MatrixIdLin1ELi1ELi0ELin1ELi1EEENS_13MatrixWrapperIKNS_13CwiseBinaryOpINS0_18scalar_quotient_opIddEEKNS_16PartialReduxExprIKNS_12CwiseUnaryOpINS0_16scalar_square_opIdEEKNS_12ArrayWrapperINS5_INS0_20scalar_difference_opIddEEKNS2_IdLin1ELin1ELi0ELin1ELin1EEEKNS_9ReplicateINS_9TransposeIS3_EELin1ELi1EEEEEEEEENS0_10member_sumIddEELi0EEEKNS_14CwiseNullaryOpINS0_18scalar_constant_opIdEEKNS_5ArrayIdLi1ELin1ELi1ELi1ELin1EEEEEEEEENS0_9assign_opIddEEEEvRT_RKT0_RKT1_, symObjAddr: 0xA67CC, symBinAddr: 0x1000AA3D4, symSize: 0x1E8 }
  - { offsetInCU: 0x26D2D, offset: 0x26D2D, size: 0x8, addend: 0x0, symName: __ZN5Eigen8internal18check_for_aliasingINS_9TransposeINS_6MatrixIdLin1ELi1ELi0ELin1ELi1EEEEENS_13MatrixWrapperIKNS_13CwiseBinaryOpINS0_18scalar_quotient_opIddEEKNS_16PartialReduxExprIKNS_12CwiseUnaryOpINS0_16scalar_square_opIdEEKNS_12ArrayWrapperINS7_INS0_20scalar_difference_opIddEEKNS3_IdLin1ELin1ELi0ELin1ELin1EEEKNS_9ReplicateIS5_Lin1ELi1EEEEEEEEENS0_10member_sumIddEELi0EEEKNS_14CwiseNullaryOpINS0_18scalar_constant_opIdEEKNS_5ArrayIdLi1ELin1ELi1ELi1ELin1EEEEEEEEEEEvRKT_RKT0_, symObjAddr: 0xA69F4, symBinAddr: 0x1000AA5FC, symSize: 0x14 }
  - { offsetInCU: 0x26D78, offset: 0x26D78, size: 0x8, addend: 0x0, symName: __ZN5Eigen8internal26call_dense_assignment_loopINS_9TransposeINS_6MatrixIdLin1ELi1ELi0ELin1ELi1EEEEENS_13MatrixWrapperIKNS_13CwiseBinaryOpINS0_18scalar_quotient_opIddEEKNS_16PartialReduxExprIKNS_12CwiseUnaryOpINS0_16scalar_square_opIdEEKNS_12ArrayWrapperINS7_INS0_20scalar_difference_opIddEEKNS3_IdLin1ELin1ELi0ELin1ELin1EEEKNS_9ReplicateIS5_Lin1ELi1EEEEEEEEENS0_10member_sumIddEELi0EEEKNS_14CwiseNullaryOpINS0_18scalar_constant_opIdEEKNS_5ArrayIdLi1ELin1ELi1ELi1ELin1EEEEEEEEENS0_9assign_opIddEEEEvRT_RKT0_RKT1_, symObjAddr: 0xA6A08, symBinAddr: 0x1000AA610, symSize: 0x45C }
  - { offsetInCU: 0x27441, offset: 0x27441, size: 0x8, addend: 0x0, symName: __ZN5Eigen8internal17resize_if_allowedINS_9TransposeINS_6MatrixIdLin1ELi1ELi0ELin1ELi1EEEEENS_13MatrixWrapperIKNS_13CwiseBinaryOpINS0_18scalar_quotient_opIddEEKNS_16PartialReduxExprIKNS_12CwiseUnaryOpINS0_16scalar_square_opIdEEKNS_12ArrayWrapperINS7_INS0_20scalar_difference_opIddEEKNS3_IdLin1ELin1ELi0ELin1ELin1EEEKNS_9ReplicateIS5_Lin1ELi1EEEEEEEEENS0_10member_sumIddEELi0EEEKNS_14CwiseNullaryOpINS0_18scalar_constant_opIdEEKNS_5ArrayIdLi1ELin1ELi1ELi1ELin1EEEEEEEEEddEEvRT_RKT0_RKNS0_9assign_opIT1_T2_EE, symObjAddr: 0xA6E98, symBinAddr: 0x1000AAAA0, symSize: 0xFC }
  - { offsetInCU: 0x2827C, offset: 0x2827C, size: 0x8, addend: 0x0, symName: __ZN5Eigen8internal24call_assignment_no_aliasINS_6MatrixIdLin1ELin1ELi0ELin1ELin1EEENS_13CwiseBinaryOpINS0_18scalar_quotient_opIddEEKNS_12ArrayWrapperINS4_INS0_20scalar_difference_opIddEEKS3_KNS_9ReplicateINS_9TransposeINS2_IdLin1ELi1ELi0ELin1ELi1EEEEELin1ELi1EEEEEEEKNSB_INSC_IKNS_12CwiseUnaryOpINS0_14scalar_sqrt_opIdEEKNS7_ISD_EEEEEELin1ELi1EEEEENS0_9assign_opIddEEEEvRT_RKT0_RKT1_, symObjAddr: 0xAB9C8, symBinAddr: 0x1000AF5D0, symSize: 0x3C }
  - { offsetInCU: 0x2834A, offset: 0x2834A, size: 0x8, addend: 0x0, symName: __ZN5Eigen8internal18check_for_aliasingINS_6MatrixIdLin1ELin1ELi0ELin1ELin1EEENS_13CwiseBinaryOpINS0_18scalar_quotient_opIddEEKNS_12ArrayWrapperINS4_INS0_20scalar_difference_opIddEEKS3_KNS_9ReplicateINS_9TransposeINS2_IdLin1ELi1ELi0ELin1ELi1EEEEELin1ELi1EEEEEEEKNSB_INSC_IKNS_12CwiseUnaryOpINS0_14scalar_sqrt_opIdEEKNS7_ISD_EEEEEELin1ELi1EEEEEEEvRKT_RKT0_, symObjAddr: 0xABA44, symBinAddr: 0x1000AF64C, symSize: 0x60 }
  - { offsetInCU: 0x28395, offset: 0x28395, size: 0x8, addend: 0x0, symName: __ZN5Eigen8internal26call_dense_assignment_loopINS_6MatrixIdLin1ELin1ELi0ELin1ELin1EEENS_13CwiseBinaryOpINS0_18scalar_quotient_opIddEEKNS_12ArrayWrapperINS4_INS0_20scalar_difference_opIddEEKS3_KNS_9ReplicateINS_9TransposeINS2_IdLin1ELi1ELi0ELin1ELi1EEEEELin1ELi1EEEEEEEKNSB_INSC_IKNS_12CwiseUnaryOpINS0_14scalar_sqrt_opIdEEKNS7_ISD_EEEEEELin1ELi1EEEEENS0_9assign_opIddEEEEvRT_RKT0_RKT1_, symObjAddr: 0xABAA4, symBinAddr: 0x1000AF6AC, symSize: 0x434 }
  - { offsetInCU: 0x28867, offset: 0x28867, size: 0x8, addend: 0x0, symName: __ZN5Eigen8internal17resize_if_allowedINS_6MatrixIdLin1ELin1ELi0ELin1ELin1EEENS_13CwiseBinaryOpINS0_18scalar_quotient_opIddEEKNS_12ArrayWrapperINS4_INS0_20scalar_difference_opIddEEKS3_KNS_9ReplicateINS_9TransposeINS2_IdLin1ELi1ELi0ELin1ELi1EEEEELin1ELi1EEEEEEEKNSB_INSC_IKNS_12CwiseUnaryOpINS0_14scalar_sqrt_opIdEEKNS7_ISD_EEEEEELin1ELi1EEEEEddEEvRT_RKT0_RKNS0_9assign_opIT1_T2_EE, symObjAddr: 0xABF20, symBinAddr: 0x1000AFB28, symSize: 0xFC }
  - { offsetInCU: 0x28B3F, offset: 0x28B3F, size: 0x8, addend: 0x0, symName: __ZN5Eigen8internal24call_assignment_no_aliasINS_5ArrayIdLi1ELin1ELi1ELi1ELin1EEENS_9TransposeIKNS_12CwiseUnaryOpINS0_14scalar_sqrt_opIdEEKNS_12ArrayWrapperINS_6MatrixIdLin1ELi1ELi0ELin1ELi1EEEEEEEEENS0_9assign_opIddEEEEvRT_RKT0_RKT1_, symObjAddr: 0xACA1C, symBinAddr: 0x1000B0624, symSize: 0x3C }
  - { offsetInCU: 0x28C0D, offset: 0x28C0D, size: 0x8, addend: 0x0, symName: __ZN5Eigen8internal18check_for_aliasingINS_5ArrayIdLi1ELin1ELi1ELi1ELin1EEENS_9TransposeIKNS_12CwiseUnaryOpINS0_14scalar_sqrt_opIdEEKNS_12ArrayWrapperINS_6MatrixIdLin1ELi1ELi0ELin1ELi1EEEEEEEEEEEvRKT_RKT0_, symObjAddr: 0xACAAC, symBinAddr: 0x1000B06B4, symSize: 0x14 }
  - { offsetInCU: 0x28C58, offset: 0x28C58, size: 0x8, addend: 0x0, symName: __ZN5Eigen8internal26call_dense_assignment_loopINS_5ArrayIdLi1ELin1ELi1ELi1ELin1EEENS_9TransposeIKNS_12CwiseUnaryOpINS0_14scalar_sqrt_opIdEEKNS_12ArrayWrapperINS_6MatrixIdLin1ELi1ELi0ELin1ELi1EEEEEEEEENS0_9assign_opIddEEEEvRT_RKT0_RKT1_, symObjAddr: 0xACAC0, symBinAddr: 0x1000B06C8, symSize: 0x3F4 }
  - { offsetInCU: 0x28D1B, offset: 0x28D1B, size: 0x8, addend: 0x0, symName: __ZN5Eigen8internal17resize_if_allowedINS_5ArrayIdLi1ELin1ELi1ELi1ELin1EEENS_9TransposeIKNS_12CwiseUnaryOpINS0_14scalar_sqrt_opIdEEKNS_12ArrayWrapperINS_6MatrixIdLin1ELi1ELi0ELin1ELi1EEEEEEEEEddEEvRT_RKT0_RKNS0_9assign_opIT1_T2_EE, symObjAddr: 0xACEE8, symBinAddr: 0x1000B0AF0, symSize: 0xFC }
  - { offsetInCU: 0x28DA1, offset: 0x28DA1, size: 0x8, addend: 0x0, symName: __ZN5Eigen8internal5psqrtI19__simd128_float64_tEET_RKS3_, symObjAddr: 0xAE184, symBinAddr: 0x1000B1D8C, symSize: 0x74 }
  - { offsetInCU: 0x28E22, offset: 0x28E22, size: 0x8, addend: 0x0, symName: __ZN5Eigen8internal24call_assignment_no_aliasINS_6MatrixIdLin1ELin1ELi0ELin1ELin1EEENS_9ReplicateINS_9TransposeIKNS2_IdLin1ELi1ELi0ELin1ELi1EEEEELin1ELin1EEENS0_9assign_opIddEEEEvRT_RKT0_RKT1_, symObjAddr: 0xAFC50, symBinAddr: 0x1000B3858, symSize: 0x3C }
  - { offsetInCU: 0x28EF0, offset: 0x28EF0, size: 0x8, addend: 0x0, symName: __ZN5Eigen8internal18check_for_aliasingINS_6MatrixIdLin1ELin1ELi0ELin1ELin1EEENS_9ReplicateINS_9TransposeIKNS2_IdLin1ELi1ELi0ELin1ELi1EEEEELin1ELin1EEEEEvRKT_RKT0_, symObjAddr: 0xAFCCC, symBinAddr: 0x1000B38D4, symSize: 0x60 }
  - { offsetInCU: 0x28F3B, offset: 0x28F3B, size: 0x8, addend: 0x0, symName: __ZN5Eigen8internal26call_dense_assignment_loopINS_6MatrixIdLin1ELin1ELi0ELin1ELin1EEENS_9ReplicateINS_9TransposeIKNS2_IdLin1ELi1ELi0ELin1ELi1EEEEELin1ELin1EEENS0_9assign_opIddEEEEvRT_RKT0_RKT1_, symObjAddr: 0xAFD2C, symBinAddr: 0x1000B3934, symSize: 0x400 }
  - { offsetInCU: 0x291AF, offset: 0x291AF, size: 0x8, addend: 0x0, symName: __ZN5Eigen8internal17resize_if_allowedINS_6MatrixIdLin1ELin1ELi0ELin1ELin1EEENS_9ReplicateINS_9TransposeIKNS2_IdLin1ELi1ELi0ELin1ELi1EEEEELin1ELin1EEEddEEvRT_RKT0_RKNS0_9assign_opIT1_T2_EE, symObjAddr: 0xB0174, symBinAddr: 0x1000B3D7C, symSize: 0xFC }
  - { offsetInCU: 0x29487, offset: 0x29487, size: 0x8, addend: 0x0, symName: __ZN5Eigen8internal24call_assignment_no_aliasINS_6MatrixIdLin1ELin1ELi0ELin1ELin1EEENS_13CwiseBinaryOpINS0_13scalar_sum_opIddEEKNS4_INS0_17scalar_product_opIddEEKNS_12ArrayWrapperIS3_EESB_EESB_EENS0_9assign_opIddEEEEvRT_RKT0_RKT1_, symObjAddr: 0xB1458, symBinAddr: 0x1000B5060, symSize: 0x3C }
  - { offsetInCU: 0x29555, offset: 0x29555, size: 0x8, addend: 0x0, symName: __ZN5Eigen8internal18check_for_aliasingINS_6MatrixIdLin1ELin1ELi0ELin1ELin1EEENS_13CwiseBinaryOpINS0_13scalar_sum_opIddEEKNS4_INS0_17scalar_product_opIddEEKNS_12ArrayWrapperIS3_EESB_EESB_EEEEvRKT_RKT0_, symObjAddr: 0xB14D4, symBinAddr: 0x1000B50DC, symSize: 0x60 }
  - { offsetInCU: 0x295A0, offset: 0x295A0, size: 0x8, addend: 0x0, symName: __ZN5Eigen8internal26call_dense_assignment_loopINS_6MatrixIdLin1ELin1ELi0ELin1ELin1EEENS_13CwiseBinaryOpINS0_13scalar_sum_opIddEEKNS4_INS0_17scalar_product_opIddEEKNS_12ArrayWrapperIS3_EESB_EESB_EENS0_9assign_opIddEEEEvRT_RKT0_RKT1_, symObjAddr: 0xB1534, symBinAddr: 0x1000B513C, symSize: 0x40C }
  - { offsetInCU: 0x296A3, offset: 0x296A3, size: 0x8, addend: 0x0, symName: __ZN5Eigen8internal17resize_if_allowedINS_6MatrixIdLin1ELin1ELi0ELin1ELin1EEENS_13CwiseBinaryOpINS0_13scalar_sum_opIddEEKNS4_INS0_17scalar_product_opIddEEKNS_12ArrayWrapperIS3_EESB_EESB_EEddEEvRT_RKT0_RKNS0_9assign_opIT1_T2_EE, symObjAddr: 0xB1988, symBinAddr: 0x1000B5590, symSize: 0xFC }
  - { offsetInCU: 0x29844, offset: 0x29844, size: 0x8, addend: 0x0, symName: __ZN5Eigen8internalL21first_default_alignedINS_6MatrixIdLin1ELin1ELi0ELin1ELin1EEEEElRKNS_9DenseBaseIT_EE, symObjAddr: 0xB5024, symBinAddr: 0x1000B8C2C, symSize: 0x24 }
  - { offsetInCU: 0x2987B, offset: 0x2987B, size: 0x8, addend: 0x0, symName: __ZN5Eigen8internalL13first_alignedILi16ENS_6MatrixIdLin1ELin1ELi0ELin1ELin1EEEEElRKNS_9DenseBaseIT0_EE, symObjAddr: 0xB5048, symBinAddr: 0x1000B8C50, symSize: 0x28 }
  - { offsetInCU: 0x29BAF, offset: 0x29BAF, size: 0x8, addend: 0x0, symName: __ZN5Eigen8internalL21first_default_alignedINS_12CwiseUnaryOpINS0_13scalar_abs_opIdEEKNS_12ArrayWrapperINS_6MatrixIdLin1ELin1ELi0ELin1ELin1EEEEEEEEElRKNS_9DenseBaseIT_EE, symObjAddr: 0xB693C, symBinAddr: 0x1000BA544, symSize: 0x24 }
  - { offsetInCU: 0x29BE6, offset: 0x29BE6, size: 0x8, addend: 0x0, symName: __ZN5Eigen8internalL13first_alignedILi16ENS_12CwiseUnaryOpINS0_13scalar_abs_opIdEEKNS_12ArrayWrapperINS_6MatrixIdLin1ELin1ELi0ELin1ELin1EEEEEEEEElRKNS_9DenseBaseIT0_EE, symObjAddr: 0xB6C14, symBinAddr: 0x1000BA81C, symSize: 0x28 }
  - { offsetInCU: 0x29C65, offset: 0x29C65, size: 0x8, addend: 0x0, symName: __ZN5Eigen8internal4pabsI19__simd128_float64_tEET_RKS3_, symObjAddr: 0xB6C8C, symBinAddr: 0x1000BA894, symSize: 0x74 }
  - { offsetInCU: 0x29C9C, offset: 0x29C9C, size: 0x8, addend: 0x0, symName: __ZN5Eigen8internal10predux_maxILi0E19__simd128_float64_tEENS0_15unpacket_traitsIT0_E4typeERKS4_, symObjAddr: 0xB6D00, symBinAddr: 0x1000BA908, symSize: 0x2C }
  - { offsetInCU: 0x29CDD, offset: 0x29CDD, size: 0x8, addend: 0x0, symName: __ZN5Eigen8internal13predux_helperI19__simd128_float64_tPFdRKdS4_EEENS0_15unpacket_traitsIT_E4typeERKS8_T0_, symObjAddr: 0xB6D2C, symBinAddr: 0x1000BA934, symSize: 0x31C }
  - { offsetInCU: 0x29DC4, offset: 0x29DC4, size: 0x8, addend: 0x0, symName: __ZN5Eigen8internal15call_assignmentINS_6MatrixIdLin1ELin1ELi0ELin1ELin1EEENS_13CwiseBinaryOpINS0_18scalar_quotient_opIddEEKNS4_INS0_20scalar_difference_opIddEEKNS_12ArrayWrapperIS3_EEKNS_14CwiseNullaryOpINS0_18scalar_constant_opIdEEKNS_5ArrayIdLin1ELin1ELi0ELin1ELin1EEEEEEESJ_EEEEvRT_RKT0_, symObjAddr: 0xB74AC, symBinAddr: 0x1000BB0B4, symSize: 0x1F8 }
  - { offsetInCU: 0x29E11, offset: 0x29E11, size: 0x8, addend: 0x0, symName: __ZN5Eigen8internal15call_assignmentINS_6MatrixIdLin1ELin1ELi0ELin1ELin1EEENS_13CwiseBinaryOpINS0_18scalar_quotient_opIddEEKNS4_INS0_20scalar_difference_opIddEEKNS_12ArrayWrapperIS3_EEKNS_14CwiseNullaryOpINS0_18scalar_constant_opIdEEKNS_5ArrayIdLin1ELin1ELi0ELin1ELin1EEEEEEESJ_EENS0_9assign_opIddEEEEvRT_RKT0_RKT1_NS0_9enable_ifIXntsr25evaluator_assume_aliasingISR_EE5valueEPvE4typeE, symObjAddr: 0xB76B8, symBinAddr: 0x1000BB2C0, symSize: 0x38 }
  - { offsetInCU: 0x29E7F, offset: 0x29E7F, size: 0x8, addend: 0x0, symName: __ZN5Eigen8internal24call_assignment_no_aliasINS_6MatrixIdLin1ELin1ELi0ELin1ELin1EEENS_13CwiseBinaryOpINS0_18scalar_quotient_opIddEEKNS4_INS0_20scalar_difference_opIddEEKNS_12ArrayWrapperIS3_EEKNS_14CwiseNullaryOpINS0_18scalar_constant_opIdEEKNS_5ArrayIdLin1ELin1ELi0ELin1ELin1EEEEEEESJ_EENS0_9assign_opIddEEEEvRT_RKT0_RKT1_, symObjAddr: 0xB76F0, symBinAddr: 0x1000BB2F8, symSize: 0x3C }
  - { offsetInCU: 0x29F4D, offset: 0x29F4D, size: 0x8, addend: 0x0, symName: __ZN5Eigen8internal18check_for_aliasingINS_6MatrixIdLin1ELin1ELi0ELin1ELin1EEENS_13CwiseBinaryOpINS0_18scalar_quotient_opIddEEKNS4_INS0_20scalar_difference_opIddEEKNS_12ArrayWrapperIS3_EEKNS_14CwiseNullaryOpINS0_18scalar_constant_opIdEEKNS_5ArrayIdLin1ELin1ELi0ELin1ELin1EEEEEEESJ_EEEEvRKT_RKT0_, symObjAddr: 0xB776C, symBinAddr: 0x1000BB374, symSize: 0x60 }
  - { offsetInCU: 0x29F98, offset: 0x29F98, size: 0x8, addend: 0x0, symName: __ZN5Eigen8internal26call_dense_assignment_loopINS_6MatrixIdLin1ELin1ELi0ELin1ELin1EEENS_13CwiseBinaryOpINS0_18scalar_quotient_opIddEEKNS4_INS0_20scalar_difference_opIddEEKNS_12ArrayWrapperIS3_EEKNS_14CwiseNullaryOpINS0_18scalar_constant_opIdEEKNS_5ArrayIdLin1ELin1ELi0ELin1ELin1EEEEEEESJ_EENS0_9assign_opIddEEEEvRT_RKT0_RKT1_, symObjAddr: 0xB77CC, symBinAddr: 0x1000BB3D4, symSize: 0x40C }
  - { offsetInCU: 0x2A09B, offset: 0x2A09B, size: 0x8, addend: 0x0, symName: __ZN5Eigen8internal17resize_if_allowedINS_6MatrixIdLin1ELin1ELi0ELin1ELin1EEENS_13CwiseBinaryOpINS0_18scalar_quotient_opIddEEKNS4_INS0_20scalar_difference_opIddEEKNS_12ArrayWrapperIS3_EEKNS_14CwiseNullaryOpINS0_18scalar_constant_opIdEEKNS_5ArrayIdLin1ELin1ELi0ELin1ELin1EEEEEEESJ_EEddEEvRT_RKT0_RKNS0_9assign_opIT1_T2_EE, symObjAddr: 0xB7C20, symBinAddr: 0x1000BB828, symSize: 0xFC }
  - { offsetInCU: 0x2A121, offset: 0x2A121, size: 0x8, addend: 0x0, symName: __ZN5Eigen8internal15call_assignmentINS_6MatrixIdLin1ELin1ELi0ELin1ELin1EEENS_14CwiseNullaryOpINS0_16scalar_random_opIdEES3_EEEEvRT_RKT0_, symObjAddr: 0xB9A30, symBinAddr: 0x1000BD638, symSize: 0x1F8 }
  - { offsetInCU: 0x2A16E, offset: 0x2A16E, size: 0x8, addend: 0x0, symName: __ZN5Eigen8internal15call_assignmentINS_6MatrixIdLin1ELin1ELi0ELin1ELin1EEENS_14CwiseNullaryOpINS0_16scalar_random_opIdEES3_EENS0_9assign_opIddEEEEvRT_RKT0_RKT1_NS0_9enable_ifIXntsr25evaluator_assume_aliasingISC_EE5valueEPvE4typeE, symObjAddr: 0xB9C28, symBinAddr: 0x1000BD830, symSize: 0x38 }
  - { offsetInCU: 0x2A1DC, offset: 0x2A1DC, size: 0x8, addend: 0x0, symName: __ZN5Eigen8internal24call_assignment_no_aliasINS_6MatrixIdLin1ELin1ELi0ELin1ELin1EEENS_14CwiseNullaryOpINS0_16scalar_random_opIdEES3_EENS0_9assign_opIddEEEEvRT_RKT0_RKT1_, symObjAddr: 0xB9C60, symBinAddr: 0x1000BD868, symSize: 0x3C }
  - { offsetInCU: 0x2A2AA, offset: 0x2A2AA, size: 0x8, addend: 0x0, symName: __ZN5Eigen8internal18check_for_aliasingINS_6MatrixIdLin1ELin1ELi0ELin1ELin1EEENS_14CwiseNullaryOpINS0_16scalar_random_opIdEES3_EEEEvRKT_RKT0_, symObjAddr: 0xB9CDC, symBinAddr: 0x1000BD8E4, symSize: 0x60 }
  - { offsetInCU: 0x2A2F5, offset: 0x2A2F5, size: 0x8, addend: 0x0, symName: __ZN5Eigen8internal26call_dense_assignment_loopINS_6MatrixIdLin1ELin1ELi0ELin1ELin1EEENS_14CwiseNullaryOpINS0_16scalar_random_opIdEES3_EENS0_9assign_opIddEEEEvRT_RKT0_RKT1_, symObjAddr: 0xB9D3C, symBinAddr: 0x1000BD944, symSize: 0x3F0 }
  - { offsetInCU: 0x2A3F6, offset: 0x2A3F6, size: 0x8, addend: 0x0, symName: __ZN5Eigen8internal17resize_if_allowedINS_6MatrixIdLin1ELin1ELi0ELin1ELin1EEENS_14CwiseNullaryOpINS0_16scalar_random_opIdEES3_EEddEEvRT_RKT0_RKNS0_9assign_opIT1_T2_EE, symObjAddr: 0xBA174, symBinAddr: 0x1000BDD7C, symSize: 0xFC }
  - { offsetInCU: 0x2A6CE, offset: 0x2A6CE, size: 0x8, addend: 0x0, symName: __ZN5Eigen8internal15call_assignmentINS_6MatrixIdLin1ELin1ELi0ELin1ELin1EEENS_7ProductIS3_S3_Li0EEEEEvRT_RKT0_, symObjAddr: 0xBA834, symBinAddr: 0x1000BE43C, symSize: 0x1F8 }
  - { offsetInCU: 0x2A71B, offset: 0x2A71B, size: 0x8, addend: 0x0, symName: __ZN5Eigen8internal15call_assignmentINS_6MatrixIdLin1ELin1ELi0ELin1ELin1EEENS_7ProductIS3_S3_Li0EEENS0_9assign_opIddEEEEvRT_RKT0_RKT1_NS0_9enable_ifIXsr25evaluator_assume_aliasingISA_EE5valueEPvE4typeE, symObjAddr: 0xBAA2C, symBinAddr: 0x1000BE634, symSize: 0x2E0 }
  - { offsetInCU: 0x2A7A0, offset: 0x2A7A0, size: 0x8, addend: 0x0, symName: __ZN5Eigen8internal24call_assignment_no_aliasINS_6MatrixIdLin1ELin1ELi0ELin1ELin1EEES3_NS0_9assign_opIddEEEEvRT_RKT0_RKT1_, symObjAddr: 0xBAD40, symBinAddr: 0x1000BE948, symSize: 0x3C }
  - { offsetInCU: 0x2A86E, offset: 0x2A86E, size: 0x8, addend: 0x0, symName: __ZN5Eigen8internal18check_for_aliasingINS_6MatrixIdLin1ELin1ELi0ELin1ELin1EEES3_EEvRKT_RKT0_, symObjAddr: 0xBAE50, symBinAddr: 0x1000BEA58, symSize: 0x60 }
  - { offsetInCU: 0x2A8B9, offset: 0x2A8B9, size: 0x8, addend: 0x0, symName: __ZN5Eigen8internal26call_dense_assignment_loopINS_6MatrixIdLin1ELin1ELi0ELin1ELin1EEES3_NS0_9assign_opIddEEEEvRT_RKT0_RKT1_, symObjAddr: 0xBAEB0, symBinAddr: 0x1000BEAB8, symSize: 0x3EC }
  - { offsetInCU: 0x2A9BA, offset: 0x2A9BA, size: 0x8, addend: 0x0, symName: __ZN5Eigen8internal17resize_if_allowedINS_6MatrixIdLin1ELin1ELi0ELin1ELin1EEES3_ddEEvRT_RKT0_RKNS0_9assign_opIT1_T2_EE, symObjAddr: 0xBB2B0, symBinAddr: 0x1000BEEB8, symSize: 0xFC }
  - { offsetInCU: 0x2AA40, offset: 0x2AA40, size: 0x8, addend: 0x0, symName: __ZN5Eigen8internal15call_assignmentINS_6MatrixIdLin1ELin1ELi0ELin1ELin1EEENS_14TriangularViewIKNS_14CwiseNullaryOpINS0_18scalar_constant_opIdEES3_EELj1EEEEEvRT_RKT0_, symObjAddr: 0xBBEF4, symBinAddr: 0x1000BFAFC, symSize: 0x1F8 }
  - { offsetInCU: 0x2AA8D, offset: 0x2AA8D, size: 0x8, addend: 0x0, symName: __ZN5Eigen8internal15call_assignmentINS_6MatrixIdLin1ELin1ELi0ELin1ELin1EEENS_14TriangularViewIKNS_14CwiseNullaryOpINS0_18scalar_constant_opIdEES3_EELj1EEENS0_9assign_opIddEEEEvRT_RKT0_RKT1_NS0_9enable_ifIXntsr25evaluator_assume_aliasingISF_EE5valueEPvE4typeE, symObjAddr: 0xBC0EC, symBinAddr: 0x1000BFCF4, symSize: 0x38 }
  - { offsetInCU: 0x2AAFB, offset: 0x2AAFB, size: 0x8, addend: 0x0, symName: __ZN5Eigen8internal24call_assignment_no_aliasINS_6MatrixIdLin1ELin1ELi0ELin1ELin1EEENS_14TriangularViewIKNS_14CwiseNullaryOpINS0_18scalar_constant_opIdEES3_EELj1EEENS0_9assign_opIddEEEEvRT_RKT0_RKT1_, symObjAddr: 0xBC124, symBinAddr: 0x1000BFD2C, symSize: 0x3C }
  - { offsetInCU: 0x2ABD3, offset: 0x2ABD3, size: 0x8, addend: 0x0, symName: __ZN5Eigen8internal31call_triangular_assignment_loopILi1ELb1ENS_6MatrixIdLin1ELin1ELi0ELin1ELin1EEENS_14TriangularViewIKNS_14CwiseNullaryOpINS0_18scalar_constant_opIdEES3_EELj1EEENS0_9assign_opIddEEEEvRT1_RKT2_RKT3_, symObjAddr: 0xBC194, symBinAddr: 0x1000BFD9C, symSize: 0x440 }
  - { offsetInCU: 0x2B176, offset: 0x2B176, size: 0x8, addend: 0x0, symName: __ZN5Eigen8internal24call_assignment_no_aliasINS_6MatrixIdLin1ELin1ELi0ELin1ELin1EEENS_13CwiseBinaryOpINS0_20scalar_difference_opIddEEKS3_S7_EENS0_9assign_opIddEEEEvRT_RKT0_RKT1_, symObjAddr: 0xBE24C, symBinAddr: 0x1000C1E54, symSize: 0x3C }
  - { offsetInCU: 0x2B244, offset: 0x2B244, size: 0x8, addend: 0x0, symName: __ZN5Eigen8internal18check_for_aliasingINS_6MatrixIdLin1ELin1ELi0ELin1ELin1EEENS_13CwiseBinaryOpINS0_20scalar_difference_opIddEEKS3_S7_EEEEvRKT_RKT0_, symObjAddr: 0xBE2C8, symBinAddr: 0x1000C1ED0, symSize: 0x60 }
  - { offsetInCU: 0x2B28F, offset: 0x2B28F, size: 0x8, addend: 0x0, symName: __ZN5Eigen8internal26call_dense_assignment_loopINS_6MatrixIdLin1ELin1ELi0ELin1ELin1EEENS_13CwiseBinaryOpINS0_20scalar_difference_opIddEEKS3_S7_EENS0_9assign_opIddEEEEvRT_RKT0_RKT1_, symObjAddr: 0xBE328, symBinAddr: 0x1000C1F30, symSize: 0x43C }
  - { offsetInCU: 0x2B391, offset: 0x2B391, size: 0x8, addend: 0x0, symName: __ZN5Eigen8internal17resize_if_allowedINS_6MatrixIdLin1ELin1ELi0ELin1ELin1EEENS_13CwiseBinaryOpINS0_20scalar_difference_opIddEEKS3_S7_EEddEEvRT_RKT0_RKNS0_9assign_opIT1_T2_EE, symObjAddr: 0xBE7AC, symBinAddr: 0x1000C23B4, symSize: 0xFC }
  - { offsetInCU: 0x2B6CC, offset: 0x2B6CC, size: 0x8, addend: 0x0, symName: __ZN5Eigen8internalL21first_default_alignedINS_12CwiseUnaryOpINS0_16scalar_square_opIdEEKNS_12ArrayWrapperINS_6MatrixIdLin1ELin1ELi0ELin1ELin1EEEEEEEEElRKNS_9DenseBaseIT_EE, symObjAddr: 0xC0AB0, symBinAddr: 0x1000C46B8, symSize: 0x24 }
  - { offsetInCU: 0x2B703, offset: 0x2B703, size: 0x8, addend: 0x0, symName: __ZN5Eigen8internalL13first_alignedILi16ENS_12CwiseUnaryOpINS0_16scalar_square_opIdEEKNS_12ArrayWrapperINS_6MatrixIdLin1ELin1ELi0ELin1ELin1EEEEEEEEElRKNS_9DenseBaseIT0_EE, symObjAddr: 0xC0D60, symBinAddr: 0x1000C4968, symSize: 0x28 }
  - { offsetInCU: 0x2B782, offset: 0x2B782, size: 0x8, addend: 0x0, symName: __ZN5Eigen8internal24call_assignment_no_aliasINS_6MatrixIdLin1ELin1ELi0ELin1ELin1EEENS_13CwiseBinaryOpINS0_18scalar_quotient_opIddEEKNS4_INS0_17scalar_product_opIddEEKNS_14CwiseNullaryOpINS0_18scalar_constant_opIdEEKS3_EESC_EESE_EENS0_9assign_opIddEEEEvRT_RKT0_RKT1_, symObjAddr: 0xC18E4, symBinAddr: 0x1000C54EC, symSize: 0x3C }
  - { offsetInCU: 0x2B850, offset: 0x2B850, size: 0x8, addend: 0x0, symName: __ZN5Eigen8internal18check_for_aliasingINS_6MatrixIdLin1ELin1ELi0ELin1ELin1EEENS_13CwiseBinaryOpINS0_18scalar_quotient_opIddEEKNS4_INS0_17scalar_product_opIddEEKNS_14CwiseNullaryOpINS0_18scalar_constant_opIdEEKS3_EESC_EESE_EEEEvRKT_RKT0_, symObjAddr: 0xC1960, symBinAddr: 0x1000C5568, symSize: 0x60 }
  - { offsetInCU: 0x2B89B, offset: 0x2B89B, size: 0x8, addend: 0x0, symName: __ZN5Eigen8internal26call_dense_assignment_loopINS_6MatrixIdLin1ELin1ELi0ELin1ELin1EEENS_13CwiseBinaryOpINS0_18scalar_quotient_opIddEEKNS4_INS0_17scalar_product_opIddEEKNS_14CwiseNullaryOpINS0_18scalar_constant_opIdEEKS3_EESC_EESE_EENS0_9assign_opIddEEEEvRT_RKT0_RKT1_, symObjAddr: 0xC19C0, symBinAddr: 0x1000C55C8, symSize: 0x40C }
  - { offsetInCU: 0x2B99E, offset: 0x2B99E, size: 0x8, addend: 0x0, symName: __ZN5Eigen8internal17resize_if_allowedINS_6MatrixIdLin1ELin1ELi0ELin1ELin1EEENS_13CwiseBinaryOpINS0_18scalar_quotient_opIddEEKNS4_INS0_17scalar_product_opIddEEKNS_14CwiseNullaryOpINS0_18scalar_constant_opIdEEKS3_EESC_EESE_EEddEEvRT_RKT0_RKNS0_9assign_opIT1_T2_EE, symObjAddr: 0xC1E14, symBinAddr: 0x1000C5A1C, symSize: 0xFC }
  - { offsetInCU: 0x2BA24, offset: 0x2BA24, size: 0x8, addend: 0x0, symName: __ZN5Eigen8internal24call_assignment_no_aliasINS_6MatrixIdLin1ELin1ELi0ELin1ELin1EEENS_13CwiseBinaryOpINS0_18scalar_quotient_opIddEEKNS_12ArrayWrapperIKNS_7ProductINS_9TransposeIS3_EES3_Li0EEEEEKNS_14CwiseNullaryOpINS0_18scalar_constant_opIdEEKNS_5ArrayIdLin1ELin1ELi0ELin1ELin1EEEEEEENS0_9assign_opIddEEEEvRT_RKT0_RKT1_, symObjAddr: 0xC453C, symBinAddr: 0x1000C8144, symSize: 0x3C }
  - { offsetInCU: 0x2BAF2, offset: 0x2BAF2, size: 0x8, addend: 0x0, symName: __ZN5Eigen8internal18check_for_aliasingINS_6MatrixIdLin1ELin1ELi0ELin1ELin1EEENS_13CwiseBinaryOpINS0_18scalar_quotient_opIddEEKNS_12ArrayWrapperIKNS_7ProductINS_9TransposeIS3_EES3_Li0EEEEEKNS_14CwiseNullaryOpINS0_18scalar_constant_opIdEEKNS_5ArrayIdLin1ELin1ELi0ELin1ELin1EEEEEEEEEvRKT_RKT0_, symObjAddr: 0xC45B8, symBinAddr: 0x1000C81C0, symSize: 0x60 }
  - { offsetInCU: 0x2BB3D, offset: 0x2BB3D, size: 0x8, addend: 0x0, symName: __ZN5Eigen8internal26call_dense_assignment_loopINS_6MatrixIdLin1ELin1ELi0ELin1ELin1EEENS_13CwiseBinaryOpINS0_18scalar_quotient_opIddEEKNS_12ArrayWrapperIKNS_7ProductINS_9TransposeIS3_EES3_Li0EEEEEKNS_14CwiseNullaryOpINS0_18scalar_constant_opIdEEKNS_5ArrayIdLin1ELin1ELi0ELin1ELin1EEEEEEENS0_9assign_opIddEEEEvRT_RKT0_RKT1_, symObjAddr: 0xC4618, symBinAddr: 0x1000C8220, symSize: 0x40C }
  - { offsetInCU: 0x2BC40, offset: 0x2BC40, size: 0x8, addend: 0x0, symName: __ZN5Eigen8internal17resize_if_allowedINS_6MatrixIdLin1ELin1ELi0ELin1ELin1EEENS_13CwiseBinaryOpINS0_18scalar_quotient_opIddEEKNS_12ArrayWrapperIKNS_7ProductINS_9TransposeIS3_EES3_Li0EEEEEKNS_14CwiseNullaryOpINS0_18scalar_constant_opIdEEKNS_5ArrayIdLin1ELin1ELi0ELin1ELin1EEEEEEEddEEvRT_RKT0_RKNS0_9assign_opIT1_T2_EE, symObjAddr: 0xC4A6C, symBinAddr: 0x1000C8674, symSize: 0xFC }
  - { offsetInCU: 0x2BF4E, offset: 0x2BF4E, size: 0x8, addend: 0x0, symName: __ZN5Eigen8internal42call_restricted_packet_assignment_no_aliasINS_6MatrixIdLin1ELin1ELi0ELin1ELin1EEENS_7ProductINS_9TransposeIKS3_EES3_Li1EEENS0_9assign_opIddEEEEvRT_RKT0_RKT1_, symObjAddr: 0xC687C, symBinAddr: 0x1000CA484, symSize: 0x45C }
  - { offsetInCU: 0x2C3CA, offset: 0x2C3CA, size: 0x8, addend: 0x0, symName: __ZN5Eigen8internal17resize_if_allowedINS_6MatrixIdLin1ELin1ELi0ELin1ELin1EEENS_7ProductINS_9TransposeIKS3_EES3_Li1EEEddEEvRT_RKT0_RKNS0_9assign_opIT1_T2_EE, symObjAddr: 0xC6F30, symBinAddr: 0x1000CAB38, symSize: 0xFC }
  - { offsetInCU: 0x2CCAE, offset: 0x2CCAE, size: 0x8, addend: 0x0, symName: __ZN5Eigen8internalL21first_default_alignedINS_13CwiseBinaryOpINS0_17scalar_product_opIddEEKNS_9TransposeIKNS_5BlockIKNS5_IKNS_6MatrixIdLin1ELin1ELi0ELin1ELin1EEEEELi1ELin1ELb1EEEEEKNS6_IS9_Lin1ELi1ELb1EEEEEEElRKNS_9DenseBaseIT_EE, symObjAddr: 0xCA2D4, symBinAddr: 0x1000CDEDC, symSize: 0x24 }
  - { offsetInCU: 0x2CCE5, offset: 0x2CCE5, size: 0x8, addend: 0x0, symName: __ZN5Eigen8internalL13first_alignedILi16ENS_13CwiseBinaryOpINS0_17scalar_product_opIddEEKNS_9TransposeIKNS_5BlockIKNS5_IKNS_6MatrixIdLin1ELin1ELi0ELin1ELin1EEEEELi1ELin1ELb1EEEEEKNS6_IS9_Lin1ELi1ELb1EEEEEEElRKNS_9DenseBaseIT0_EE, symObjAddr: 0xCA8A8, symBinAddr: 0x1000CE4B0, symSize: 0x28 }
  - { offsetInCU: 0x2D2CA, offset: 0x2D2CA, size: 0x8, addend: 0x0, symName: __ZN5Eigen8internal16parallelize_gemmILb1ENS0_12gemm_functorIdlNS0_29general_matrix_matrix_productIldLi1ELb0EdLi0ELb0ELi0ELi1EEENS_9TransposeIKNS_6MatrixIdLin1ELin1ELi0ELin1ELin1EEEEES7_S7_NS0_19gemm_blocking_spaceILi0EddLin1ELin1ELin1ELi1ELb0EEEEElEEvRKT0_T1_SG_SG_b, symObjAddr: 0xCB770, symBinAddr: 0x1000CF378, symSize: 0x2C0 }
  - { offsetInCU: 0x2DBA6, offset: 0x2DBA6, size: 0x8, addend: 0x0, symName: __ZN5Eigen8internalL21first_default_alignedINS_13CwiseBinaryOpINS0_22scalar_conj_product_opIddEEKNS_9TransposeIKNS_5BlockIKNS5_INS_6MatrixIdLin1ELin1ELi0ELin1ELin1EEEEELi1ELin1ELb1EEEEEKNS6_IKNS6_IKS8_Lin1ELi1ELb1EEELin1ELi1ELb1EEEEEEElRKNS_9DenseBaseIT_EE, symObjAddr: 0xCE770, symBinAddr: 0x1000D2378, symSize: 0x24 }
  - { offsetInCU: 0x2DBDD, offset: 0x2DBDD, size: 0x8, addend: 0x0, symName: __ZN5Eigen8internalL13first_alignedILi16ENS_13CwiseBinaryOpINS0_22scalar_conj_product_opIddEEKNS_9TransposeIKNS_5BlockIKNS5_INS_6MatrixIdLin1ELin1ELi0ELin1ELin1EEEEELi1ELin1ELb1EEEEEKNS6_IKNS6_IKS8_Lin1ELi1ELb1EEELin1ELi1ELb1EEEEEEElRKNS_9DenseBaseIT0_EE, symObjAddr: 0xCED44, symBinAddr: 0x1000D294C, symSize: 0x28 }
  - { offsetInCU: 0x2E256, offset: 0x2E256, size: 0x8, addend: 0x0, symName: __ZN5Eigen8internalL21first_default_alignedINS_13CwiseBinaryOpINS0_22scalar_conj_product_opIddEEKNS_9TransposeIKNS_5BlockIKNS6_IKNS5_INS_6MatrixIdLin1ELin1ELi0ELin1ELin1EEEEELi1ELin1ELb1EEELi1ELin1ELb1EEEEEKNS6_IKS8_Lin1ELi1ELb1EEEEEEElRKNS_9DenseBaseIT_EE, symObjAddr: 0xD24F4, symBinAddr: 0x1000D60FC, symSize: 0x24 }
  - { offsetInCU: 0x2E28D, offset: 0x2E28D, size: 0x8, addend: 0x0, symName: __ZN5Eigen8internalL13first_alignedILi16ENS_13CwiseBinaryOpINS0_22scalar_conj_product_opIddEEKNS_9TransposeIKNS_5BlockIKNS6_IKNS5_INS_6MatrixIdLin1ELin1ELi0ELin1ELin1EEEEELi1ELin1ELb1EEELi1ELin1ELb1EEEEEKNS6_IKS8_Lin1ELi1ELb1EEEEEEElRKNS_9DenseBaseIT0_EE, symObjAddr: 0xD2AC8, symBinAddr: 0x1000D66D0, symSize: 0x28 }
  - { offsetInCU: 0x2E3BE, offset: 0x2E3BE, size: 0x8, addend: 0x0, symName: __ZN5Eigen8internal10ptransposeERNS0_11PacketBlockI19__simd128_float64_tLi2EEE, symObjAddr: 0xD70F0, symBinAddr: 0x1000DACF8, symSize: 0x20C }
  - { offsetInCU: 0x2E409, offset: 0x2E409, size: 0x8, addend: 0x0, symName: __ZN5Eigen8internal24call_assignment_no_aliasINS_6MatrixIdLin1ELi1ELi0ELin1ELi1EEENS_13CwiseBinaryOpINS0_18scalar_quotient_opIddEEKNS_12ArrayWrapperIKNS_9TransposeIKNS_16PartialReduxExprINS2_IdLin1ELin1ELi0ELin1ELin1EEENS0_10member_sumIddEELi0EEEEEEEKNS_14CwiseNullaryOpINS0_18scalar_constant_opIdEEKNS_5ArrayIdLin1ELi1ELi0ELin1ELi1EEEEEEENS0_9assign_opIddEEEEvRT_RKT0_RKT1_, symObjAddr: 0xD9480, symBinAddr: 0x1000DD088, symSize: 0x3C }
  - { offsetInCU: 0x2E4D7, offset: 0x2E4D7, size: 0x8, addend: 0x0, symName: __ZN5Eigen8internal18check_for_aliasingINS_6MatrixIdLin1ELi1ELi0ELin1ELi1EEENS_13CwiseBinaryOpINS0_18scalar_quotient_opIddEEKNS_12ArrayWrapperIKNS_9TransposeIKNS_16PartialReduxExprINS2_IdLin1ELin1ELi0ELin1ELin1EEENS0_10member_sumIddEELi0EEEEEEEKNS_14CwiseNullaryOpINS0_18scalar_constant_opIdEEKNS_5ArrayIdLin1ELi1ELi0ELin1ELi1EEEEEEEEEvRKT_RKT0_, symObjAddr: 0xD94FC, symBinAddr: 0x1000DD104, symSize: 0x14 }
  - { offsetInCU: 0x2E522, offset: 0x2E522, size: 0x8, addend: 0x0, symName: __ZN5Eigen8internal26call_dense_assignment_loopINS_6MatrixIdLin1ELi1ELi0ELin1ELi1EEENS_13CwiseBinaryOpINS0_18scalar_quotient_opIddEEKNS_12ArrayWrapperIKNS_9TransposeIKNS_16PartialReduxExprINS2_IdLin1ELin1ELi0ELin1ELin1EEENS0_10member_sumIddEELi0EEEEEEEKNS_14CwiseNullaryOpINS0_18scalar_constant_opIdEEKNS_5ArrayIdLin1ELi1ELi0ELin1ELi1EEEEEEENS0_9assign_opIddEEEEvRT_RKT0_RKT1_, symObjAddr: 0xD9510, symBinAddr: 0x1000DD118, symSize: 0x440 }
  - { offsetInCU: 0x2ED85, offset: 0x2ED85, size: 0x8, addend: 0x0, symName: __ZN5Eigen8internal17resize_if_allowedINS_6MatrixIdLin1ELi1ELi0ELin1ELi1EEENS_13CwiseBinaryOpINS0_18scalar_quotient_opIddEEKNS_12ArrayWrapperIKNS_9TransposeIKNS_16PartialReduxExprINS2_IdLin1ELin1ELi0ELin1ELin1EEENS0_10member_sumIddEELi0EEEEEEEKNS_14CwiseNullaryOpINS0_18scalar_constant_opIdEEKNS_5ArrayIdLin1ELi1ELi0ELin1ELi1EEEEEEEddEEvRT_RKT0_RKNS0_9assign_opIT1_T2_EE, symObjAddr: 0xD9984, symBinAddr: 0x1000DD58C, symSize: 0xFC }
  - { offsetInCU: 0x2F312, offset: 0x2F312, size: 0x8, addend: 0x0, symName: __ZN5Eigen8internalL21first_default_alignedINS_12CwiseUnaryOpINS0_16scalar_square_opIdEEKNS_12ArrayWrapperINS_6MatrixIdLin1ELi1ELi0ELin1ELi1EEEEEEEEElRKNS_9DenseBaseIT_EE, symObjAddr: 0xDC45C, symBinAddr: 0x1000E0064, symSize: 0x24 }
  - { offsetInCU: 0x2F349, offset: 0x2F349, size: 0x8, addend: 0x0, symName: __ZN5Eigen8internalL13first_alignedILi16ENS_12CwiseUnaryOpINS0_16scalar_square_opIdEEKNS_12ArrayWrapperINS_6MatrixIdLin1ELi1ELi0ELin1ELi1EEEEEEEEElRKNS_9DenseBaseIT0_EE, symObjAddr: 0xDC70C, symBinAddr: 0x1000E0314, symSize: 0x28 }
  - { offsetInCU: 0x2F3C8, offset: 0x2F3C8, size: 0x8, addend: 0x0, symName: __ZN5Eigen8internal15call_assignmentINS_6MatrixIdLin1ELin1ELi0ELin1ELin1EEENS_13CwiseBinaryOpINS0_18scalar_quotient_opIddEEKS3_KNS_14CwiseNullaryOpINS0_18scalar_constant_opIdEES7_EEEEEEvRT_RKT0_, symObjAddr: 0xDCA84, symBinAddr: 0x1000E068C, symSize: 0x1F8 }
  - { offsetInCU: 0x2F415, offset: 0x2F415, size: 0x8, addend: 0x0, symName: __ZN5Eigen8internal15call_assignmentINS_6MatrixIdLin1ELin1ELi0ELin1ELin1EEENS_13CwiseBinaryOpINS0_18scalar_quotient_opIddEEKS3_KNS_14CwiseNullaryOpINS0_18scalar_constant_opIdEES7_EEEENS0_9assign_opIddEEEEvRT_RKT0_RKT1_NS0_9enable_ifIXntsr25evaluator_assume_aliasingISI_EE5valueEPvE4typeE, symObjAddr: 0xDCC90, symBinAddr: 0x1000E0898, symSize: 0x38 }
  - { offsetInCU: 0x2F483, offset: 0x2F483, size: 0x8, addend: 0x0, symName: __ZN5Eigen8internal24call_assignment_no_aliasINS_6MatrixIdLin1ELin1ELi0ELin1ELin1EEENS_13CwiseBinaryOpINS0_18scalar_quotient_opIddEEKS3_KNS_14CwiseNullaryOpINS0_18scalar_constant_opIdEES7_EEEENS0_9assign_opIddEEEEvRT_RKT0_RKT1_, symObjAddr: 0xDCCC8, symBinAddr: 0x1000E08D0, symSize: 0x3C }
  - { offsetInCU: 0x2F551, offset: 0x2F551, size: 0x8, addend: 0x0, symName: __ZN5Eigen8internal18check_for_aliasingINS_6MatrixIdLin1ELin1ELi0ELin1ELin1EEENS_13CwiseBinaryOpINS0_18scalar_quotient_opIddEEKS3_KNS_14CwiseNullaryOpINS0_18scalar_constant_opIdEES7_EEEEEEvRKT_RKT0_, symObjAddr: 0xDCD44, symBinAddr: 0x1000E094C, symSize: 0x60 }
  - { offsetInCU: 0x2F59C, offset: 0x2F59C, size: 0x8, addend: 0x0, symName: __ZN5Eigen8internal26call_dense_assignment_loopINS_6MatrixIdLin1ELin1ELi0ELin1ELin1EEENS_13CwiseBinaryOpINS0_18scalar_quotient_opIddEEKS3_KNS_14CwiseNullaryOpINS0_18scalar_constant_opIdEES7_EEEENS0_9assign_opIddEEEEvRT_RKT0_RKT1_, symObjAddr: 0xDCDA4, symBinAddr: 0x1000E09AC, symSize: 0x43C }
  - { offsetInCU: 0x2F69E, offset: 0x2F69E, size: 0x8, addend: 0x0, symName: __ZN5Eigen8internal17resize_if_allowedINS_6MatrixIdLin1ELin1ELi0ELin1ELin1EEENS_13CwiseBinaryOpINS0_18scalar_quotient_opIddEEKS3_KNS_14CwiseNullaryOpINS0_18scalar_constant_opIdEES7_EEEEddEEvRT_RKT0_RKNS0_9assign_opIT1_T2_EE, symObjAddr: 0xDD228, symBinAddr: 0x1000E0E30, symSize: 0xFC }
  - { offsetInCU: 0x2F724, offset: 0x2F724, size: 0x8, addend: 0x0, symName: __ZN5Eigen8internal15call_assignmentINS_6MatrixIdLin1ELi1ELi0ELin1ELi1EEENS_13CwiseBinaryOpINS0_18scalar_quotient_opIddEEKS3_KNS_14CwiseNullaryOpINS0_18scalar_constant_opIdEES7_EEEEEEvRT_RKT0_, symObjAddr: 0xDE724, symBinAddr: 0x1000E232C, symSize: 0x1F8 }
  - { offsetInCU: 0x2F771, offset: 0x2F771, size: 0x8, addend: 0x0, symName: __ZN5Eigen8internal15call_assignmentINS_6MatrixIdLin1ELi1ELi0ELin1ELi1EEENS_13CwiseBinaryOpINS0_18scalar_quotient_opIddEEKS3_KNS_14CwiseNullaryOpINS0_18scalar_constant_opIdEES7_EEEENS0_9assign_opIddEEEEvRT_RKT0_RKT1_NS0_9enable_ifIXntsr25evaluator_assume_aliasingISI_EE5valueEPvE4typeE, symObjAddr: 0xDE930, symBinAddr: 0x1000E2538, symSize: 0x38 }
  - { offsetInCU: 0x2F7DF, offset: 0x2F7DF, size: 0x8, addend: 0x0, symName: __ZN5Eigen8internal24call_assignment_no_aliasINS_6MatrixIdLin1ELi1ELi0ELin1ELi1EEENS_13CwiseBinaryOpINS0_18scalar_quotient_opIddEEKS3_KNS_14CwiseNullaryOpINS0_18scalar_constant_opIdEES7_EEEENS0_9assign_opIddEEEEvRT_RKT0_RKT1_, symObjAddr: 0xDE968, symBinAddr: 0x1000E2570, symSize: 0x3C }
  - { offsetInCU: 0x2F8AD, offset: 0x2F8AD, size: 0x8, addend: 0x0, symName: __ZN5Eigen8internal18check_for_aliasingINS_6MatrixIdLin1ELi1ELi0ELin1ELi1EEENS_13CwiseBinaryOpINS0_18scalar_quotient_opIddEEKS3_KNS_14CwiseNullaryOpINS0_18scalar_constant_opIdEES7_EEEEEEvRKT_RKT0_, symObjAddr: 0xDE9E4, symBinAddr: 0x1000E25EC, symSize: 0x14 }
  - { offsetInCU: 0x2F8F8, offset: 0x2F8F8, size: 0x8, addend: 0x0, symName: __ZN5Eigen8internal26call_dense_assignment_loopINS_6MatrixIdLin1ELi1ELi0ELin1ELi1EEENS_13CwiseBinaryOpINS0_18scalar_quotient_opIddEEKS3_KNS_14CwiseNullaryOpINS0_18scalar_constant_opIdEES7_EEEENS0_9assign_opIddEEEEvRT_RKT0_RKT1_, symObjAddr: 0xDE9F8, symBinAddr: 0x1000E2600, symSize: 0x400 }
  - { offsetInCU: 0x2F9BC, offset: 0x2F9BC, size: 0x8, addend: 0x0, symName: __ZN5Eigen8internal17resize_if_allowedINS_6MatrixIdLin1ELi1ELi0ELin1ELi1EEENS_13CwiseBinaryOpINS0_18scalar_quotient_opIddEEKS3_KNS_14CwiseNullaryOpINS0_18scalar_constant_opIdEES7_EEEEddEEvRT_RKT0_RKNS0_9assign_opIT1_T2_EE, symObjAddr: 0xDEE2C, symBinAddr: 0x1000E2A34, symSize: 0xFC }
  - { offsetInCU: 0x2FA42, offset: 0x2FA42, size: 0x8, addend: 0x0, symName: __ZN5Eigen8internal15call_assignmentINS_6MatrixIdLin1ELin1ELi0ELin1ELin1EEENS_13CwiseBinaryOpINS0_17scalar_product_opIddEEKNS_14CwiseNullaryOpINS0_18scalar_constant_opIdEEKS3_EESA_EENS0_13sub_assign_opIddEEEEvRT_RKT0_RKT1_NS0_9enable_ifIXntsr25evaluator_assume_aliasingISI_EE5valueEPvE4typeE, symObjAddr: 0xE0140, symBinAddr: 0x1000E3D48, symSize: 0x38 }
  - { offsetInCU: 0x2FAB0, offset: 0x2FAB0, size: 0x8, addend: 0x0, symName: __ZN5Eigen8internal24call_assignment_no_aliasINS_6MatrixIdLin1ELin1ELi0ELin1ELin1EEENS_13CwiseBinaryOpINS0_17scalar_product_opIddEEKNS_14CwiseNullaryOpINS0_18scalar_constant_opIdEEKS3_EESA_EENS0_13sub_assign_opIddEEEEvRT_RKT0_RKT1_, symObjAddr: 0xE01A4, symBinAddr: 0x1000E3DAC, symSize: 0x3C }
  - { offsetInCU: 0x2FB7E, offset: 0x2FB7E, size: 0x8, addend: 0x0, symName: __ZN5Eigen8internal18check_for_aliasingINS_6MatrixIdLin1ELin1ELi0ELin1ELin1EEENS_13CwiseBinaryOpINS0_17scalar_product_opIddEEKNS_14CwiseNullaryOpINS0_18scalar_constant_opIdEEKS3_EESA_EEEEvRKT_RKT0_, symObjAddr: 0xE0220, symBinAddr: 0x1000E3E28, symSize: 0x60 }
  - { offsetInCU: 0x2FBC9, offset: 0x2FBC9, size: 0x8, addend: 0x0, symName: __ZN5Eigen8internal26call_dense_assignment_loopINS_6MatrixIdLin1ELin1ELi0ELin1ELin1EEENS_13CwiseBinaryOpINS0_17scalar_product_opIddEEKNS_14CwiseNullaryOpINS0_18scalar_constant_opIdEEKS3_EESA_EENS0_13sub_assign_opIddEEEEvRT_RKT0_RKT1_, symObjAddr: 0xE0280, symBinAddr: 0x1000E3E88, symSize: 0x43C }
  - { offsetInCU: 0x2FCCB, offset: 0x2FCCB, size: 0x8, addend: 0x0, symName: __ZN5Eigen8internal17resize_if_allowedINS_6MatrixIdLin1ELin1ELi0ELin1ELin1EEENS_13CwiseBinaryOpINS0_17scalar_product_opIddEEKNS_14CwiseNullaryOpINS0_18scalar_constant_opIdEEKS3_EESA_EENS0_13sub_assign_opIddEEEEvRT_RKT0_RKT1_, symObjAddr: 0xE0704, symBinAddr: 0x1000E430C, symSize: 0xB8 }
  - { offsetInCU: 0x2FD2A, offset: 0x2FD2A, size: 0x8, addend: 0x0, symName: __ZN5Eigen8internal15call_assignmentINS_6MatrixIdLin1ELi1ELi0ELin1ELi1EEENS_13CwiseBinaryOpINS0_17scalar_product_opIddEEKNS_14CwiseNullaryOpINS0_18scalar_constant_opIdEEKS3_EESA_EENS0_13sub_assign_opIddEEEEvRT_RKT0_RKT1_NS0_9enable_ifIXntsr25evaluator_assume_aliasingISI_EE5valueEPvE4typeE, symObjAddr: 0xE1664, symBinAddr: 0x1000E526C, symSize: 0x38 }
  - { offsetInCU: 0x2FD98, offset: 0x2FD98, size: 0x8, addend: 0x0, symName: __ZN5Eigen8internal24call_assignment_no_aliasINS_6MatrixIdLin1ELi1ELi0ELin1ELi1EEENS_13CwiseBinaryOpINS0_17scalar_product_opIddEEKNS_14CwiseNullaryOpINS0_18scalar_constant_opIdEEKS3_EESA_EENS0_13sub_assign_opIddEEEEvRT_RKT0_RKT1_, symObjAddr: 0xE16B0, symBinAddr: 0x1000E52B8, symSize: 0x3C }
  - { offsetInCU: 0x2FE66, offset: 0x2FE66, size: 0x8, addend: 0x0, symName: __ZN5Eigen8internal18check_for_aliasingINS_6MatrixIdLin1ELi1ELi0ELin1ELi1EEENS_13CwiseBinaryOpINS0_17scalar_product_opIddEEKNS_14CwiseNullaryOpINS0_18scalar_constant_opIdEEKS3_EESA_EEEEvRKT_RKT0_, symObjAddr: 0xE172C, symBinAddr: 0x1000E5334, symSize: 0x14 }
  - { offsetInCU: 0x2FEB1, offset: 0x2FEB1, size: 0x8, addend: 0x0, symName: __ZN5Eigen8internal26call_dense_assignment_loopINS_6MatrixIdLin1ELi1ELi0ELin1ELi1EEENS_13CwiseBinaryOpINS0_17scalar_product_opIddEEKNS_14CwiseNullaryOpINS0_18scalar_constant_opIdEEKS3_EESA_EENS0_13sub_assign_opIddEEEEvRT_RKT0_RKT1_, symObjAddr: 0xE1740, symBinAddr: 0x1000E5348, symSize: 0x400 }
  - { offsetInCU: 0x2FF75, offset: 0x2FF75, size: 0x8, addend: 0x0, symName: __ZN5Eigen8internal17resize_if_allowedINS_6MatrixIdLin1ELi1ELi0ELin1ELi1EEENS_13CwiseBinaryOpINS0_17scalar_product_opIddEEKNS_14CwiseNullaryOpINS0_18scalar_constant_opIdEEKS3_EESA_EENS0_13sub_assign_opIddEEEEvRT_RKT0_RKT1_, symObjAddr: 0xE1B74, symBinAddr: 0x1000E577C, symSize: 0xB8 }
  - { offsetInCU: 0x2FFD4, offset: 0x2FFD4, size: 0x8, addend: 0x0, symName: __ZN5Eigen8internal12print_matrixINS_6MatrixIdLin1ELin1ELi0ELin1ELin1EEEEERNSt3__113basic_ostreamIcNS4_11char_traitsIcEEEES9_RKT_RKNS_8IOFormatE, symObjAddr: 0xE2E14, symBinAddr: 0x1000E6A1C, symSize: 0x138C }
  - { offsetInCU: 0x30ABE, offset: 0x30ABE, size: 0x8, addend: 0x0, symName: __ZN5EigenL6lastp1E, symObjAddr: 0xA56AE0, symBinAddr: 0x100141F80, symSize: 0x0 }
  - { offsetInCU: 0x30AD7, offset: 0x30AD7, size: 0x8, addend: 0x0, symName: __ZN5EigenL3allE, symObjAddr: 0xA56B20, symBinAddr: 0x100141FC0, symSize: 0x0 }
  - { offsetInCU: 0x30AF0, offset: 0x30AF0, size: 0x8, addend: 0x0, symName: __ZN5EigenL3fixILi1EEE, symObjAddr: 0xA56B00, symBinAddr: 0x100141FA0, symSize: 0x0 }
  - { offsetInCU: 0x30B14, offset: 0x30B14, size: 0x8, addend: 0x0, symName: __ZN5EigenL3fixILi0EEE, symObjAddr: 0xA56B40, symBinAddr: 0x100141FE0, symSize: 0x0 }
  - { offsetInCU: 0x30B38, offset: 0x30B38, size: 0x8, addend: 0x0, symName: __ZN5EigenL3fixILi2EEE, symObjAddr: 0xA56B60, symBinAddr: 0x100142000, symSize: 0x0 }
  - { offsetInCU: 0x30B5C, offset: 0x30B5C, size: 0x8, addend: 0x0, symName: __ZN5EigenL3fixILi3EEE, symObjAddr: 0xA56B80, symBinAddr: 0x100142020, symSize: 0x0 }
  - { offsetInCU: 0xEB6D2, offset: 0xEB6D2, size: 0x8, addend: 0x0, symName: __ZN5EigenmlIiEEKNS_13CwiseBinaryOpINS_8internal17scalar_product_opINS2_18promote_scalar_argIdT_Xsr5Eigen8internal14has_ReturnTypeINS_20ScalarBinaryOpTraitsIS5_dNS3_IS5_dEEEEEE5valueEE4typeEdEEKNS2_19plain_constant_typeINS_6MatrixIdLin1ELin1ELi0ELin1ELin1EEESA_E4typeEKSE_EERKS5_RKNS_10MatrixBaseISE_EE, symObjAddr: 0xCD70, symBinAddr: 0x100010978, symSize: 0x3B8 }
  - { offsetInCU: 0xEB717, offset: 0xEB717, size: 0x8, addend: 0x0, symName: __ZN5EigenmlIdEEKNS_13CwiseBinaryOpINS_8internal17scalar_product_opINS2_18promote_scalar_argIdT_Xsr5Eigen8internal14has_ReturnTypeINS_20ScalarBinaryOpTraitsIS5_dNS3_IS5_dEEEEEE5valueEE4typeEdEEKNS2_19plain_constant_typeINS_6MatrixIdLin1ELin1ELi0ELin1ELin1EEESA_E4typeEKSE_EERKS5_RKNS_10MatrixBaseISE_EE, symObjAddr: 0xF23C, symBinAddr: 0x100012E44, symSize: 0x2F0 }
  - { offsetInCU: 0xEB75C, offset: 0xEB75C, size: 0x8, addend: 0x0, symName: __ZN5EigenmlIdEEKNS_13CwiseBinaryOpINS_8internal17scalar_product_opINS2_18promote_scalar_argIdT_Xsr5Eigen8internal14has_ReturnTypeINS_20ScalarBinaryOpTraitsIS5_dNS3_IS5_dEEEEEE5valueEE4typeEdEEKNS2_19plain_constant_typeINS_6MatrixIdLin1ELi1ELi0ELin1ELi1EEESA_E4typeEKSE_EERKS5_RKNS_10MatrixBaseISE_EE, symObjAddr: 0xF74C, symBinAddr: 0x100013354, symSize: 0x2F0 }
  - { offsetInCU: 0xEB7A1, offset: 0xEB7A1, size: 0x8, addend: 0x0, symName: __ZN5EigenlsINS_6MatrixIdLin1ELin1ELi0ELin1ELin1EEEEERNSt3__113basic_ostreamIcNS3_11char_traitsIcEEEES8_RKNS_9DenseBaseIT_EE, symObjAddr: 0xFD30, symBinAddr: 0x100013938, symSize: 0x724 }
  - { offsetInCU: 0xEB81E, offset: 0xEB81E, size: 0x8, addend: 0x0, symName: __ZN5Eigen6numext4swapIPdEEvRT_S4_, symObjAddr: 0x3F4F8, symBinAddr: 0x100043100, symSize: 0x2C }
  - { offsetInCU: 0xEB860, offset: 0xEB860, size: 0x8, addend: 0x0, symName: __ZN5Eigen6numext4swapIlEEvRT_S3_, symObjAddr: 0x3F524, symBinAddr: 0x10004312C, symSize: 0x2C }
  - { offsetInCU: 0xEB8A2, offset: 0xEB8A2, size: 0x8, addend: 0x0, symName: __ZN5Eigen6numext4realIdEENS_8internal11real_retvalINS2_36global_math_functions_filtering_baseIT_vE4typeEE4typeERKS5_, symObjAddr: 0x5DA1C, symBinAddr: 0x100061624, symSize: 0x24 }
  - { offsetInCU: 0xEB90C, offset: 0xEB90C, size: 0x8, addend: 0x0, symName: __ZN5Eigen6numext8div_ceilIlEET_RKS2_S4_, symObjAddr: 0x67ABC, symBinAddr: 0x10006B6C4, symSize: 0xFC }
  - { offsetInCU: 0x10419E, offset: 0x10419E, size: 0x8, addend: 0x0, symName: __ZNSt3__124__put_character_sequenceB8ue170006IcNS_11char_traitsIcEEEERNS_13basic_ostreamIT_T0_EES7_PKS4_m, symObjAddr: 0x3FB10, symBinAddr: 0x100043718, symSize: 0x744 }
  - { offsetInCU: 0x106FE9, offset: 0x106FE9, size: 0x8, addend: 0x0, symName: __ZNSt3__1lsB8ue170006INS_11char_traitsIcEEEERNS_13basic_ostreamIcT_EES6_PKc, symObjAddr: 0x904, symBinAddr: 0x10000450C, symSize: 0x48 }
  - { offsetInCU: 0x10702F, offset: 0x10702F, size: 0x8, addend: 0x0, symName: __ZNSt3__14endlB8ue170006IcNS_11char_traitsIcEEEERNS_13basic_ostreamIT_T0_EES7_, symObjAddr: 0x978, symBinAddr: 0x100004580, symSize: 0xD4 }
  - { offsetInCU: 0x1078A5, offset: 0x1078A5, size: 0x8, addend: 0x0, symName: __ZNSt3__112__to_addressB8ue170006I23TransformerEncoderLayerEEPT_S3_, symObjAddr: 0x1240C, symBinAddr: 0x100016014, symSize: 0x14 }
  - { offsetInCU: 0x1078DA, offset: 0x1078DA, size: 0x8, addend: 0x0, symName: __ZNSt3__13maxB8ue170006ImEERKT_S3_S3_, symObjAddr: 0x14944, symBinAddr: 0x10001854C, symSize: 0x2C }
  - { offsetInCU: 0x10791D, offset: 0x10791D, size: 0x8, addend: 0x0, symName: __ZNSt3__13minB8ue170006ImEERKT_S3_S3_, symObjAddr: 0x14970, symBinAddr: 0x100018578, symSize: 0x2C }
  - { offsetInCU: 0x107B61, offset: 0x107B61, size: 0x8, addend: 0x0, symName: __ZNSt3__13minB8ue170006ImNS_6__lessIvvEEEERKT_S5_S5_T0_, symObjAddr: 0x149FC, symBinAddr: 0x100018604, symSize: 0x1E8 }
  - { offsetInCU: 0x107C69, offset: 0x107C69, size: 0x8, addend: 0x0, symName: __ZNSt3__120__throw_length_errorB8ue170006EPKc, symObjAddr: 0x14CF8, symBinAddr: 0x100018900, symSize: 0x68 }
  - { offsetInCU: 0x107C93, offset: 0x107C93, size: 0x8, addend: 0x0, symName: __ZNSt3__13maxB8ue170006ImNS_6__lessIvvEEEERKT_S5_S5_T0_, symObjAddr: 0x14E20, symBinAddr: 0x100018A28, symSize: 0x1E8 }
  - { offsetInCU: 0x107CF3, offset: 0x107CF3, size: 0x8, addend: 0x0, symName: __ZNSt3__119__allocate_at_leastB8ue170006INS_9allocatorI23TransformerEncoderLayerEEEENS_19__allocation_resultINS_16allocator_traitsIT_E7pointerEEERS6_m, symObjAddr: 0x15574, symBinAddr: 0x10001917C, symSize: 0x28C }
  - { offsetInCU: 0x107D38, offset: 0x107D38, size: 0x8, addend: 0x0, symName: __ZNSt3__117__libcpp_allocateB8ue170006Emm, symObjAddr: 0x159A0, symBinAddr: 0x1000195A8, symSize: 0x28 }
  - { offsetInCU: 0x107D75, offset: 0x107D75, size: 0x8, addend: 0x0, symName: __ZNSt3__121__libcpp_operator_newB8ue170006IJmEEEPvDpT_, symObjAddr: 0x159C8, symBinAddr: 0x1000195D0, symSize: 0x24 }
  - { offsetInCU: 0x107DAE, offset: 0x107DAE, size: 0x8, addend: 0x0, symName: __ZNSt3__142__uninitialized_allocator_move_if_noexceptB8ue170006INS_9allocatorI23TransformerEncoderLayerEENS_16reverse_iteratorIPS2_EES6_S6_EET2_RT_T0_T1_S7_, symObjAddr: 0x15B80, symBinAddr: 0x100019788, symSize: 0x544 }
  - { offsetInCU: 0x107E63, offset: 0x107E63, size: 0x8, addend: 0x0, symName: __ZNSt3__14swapB8ue170006IP23TransformerEncoderLayerEENS_9enable_ifIXaasr21is_move_constructibleIT_EE5valuesr18is_move_assignableIS4_EE5valueEvE4typeERS4_S7_, symObjAddr: 0x1615C, symBinAddr: 0x100019D64, symSize: 0x134 }
  - { offsetInCU: 0x107EB4, offset: 0x107EB4, size: 0x8, addend: 0x0, symName: __ZNSt3__122__make_exception_guardB8ue170006INS_29_AllocatorDestroyRangeReverseINS_9allocatorI23TransformerEncoderLayerEENS_16reverse_iteratorIPS3_EEEEEENS_28__exception_guard_exceptionsIT_EESA_, symObjAddr: 0x1636C, symBinAddr: 0x100019F74, symSize: 0x1F8 }
  - { offsetInCU: 0x107EEB, offset: 0x107EEB, size: 0x8, addend: 0x0, symName: __ZNSt3__1neB8ue170006IP23TransformerEncoderLayerS2_EEbRKNS_16reverse_iteratorIT_EERKNS3_IT0_EE, symObjAddr: 0x165A8, symBinAddr: 0x10001A1B0, symSize: 0x48 }
  - { offsetInCU: 0x107F37, offset: 0x107F37, size: 0x8, addend: 0x0, symName: __ZNSt3__112__to_addressB8ue170006INS_16reverse_iteratorIP23TransformerEncoderLayerEEvEEu7__decayIDTclsr19__to_address_helperIT_EE6__callclsr3stdE7declvalIRKS5_EEEEES7_, symObjAddr: 0x165F0, symBinAddr: 0x10001A1F8, symSize: 0x24 }
  - { offsetInCU: 0x107F97, offset: 0x107F97, size: 0x8, addend: 0x0, symName: __ZNSt3__119__allocator_destroyB8ue170006INS_9allocatorI23TransformerEncoderLayerEENS_16reverse_iteratorINS4_IPS2_EEEES7_EEvRT_T0_T1_, symObjAddr: 0x16E54, symBinAddr: 0x10001AA5C, symSize: 0x70 }
  - { offsetInCU: 0x107FFC, offset: 0x107FFC, size: 0x8, addend: 0x0, symName: __ZNSt3__1neB8ue170006INS_16reverse_iteratorIP23TransformerEncoderLayerEES4_EEbRKNS1_IT_EERKNS1_IT0_EE, symObjAddr: 0x1710C, symBinAddr: 0x10001AD14, symSize: 0x2CC }
  - { offsetInCU: 0x10804A, offset: 0x10804A, size: 0x8, addend: 0x0, symName: __ZNSt3__112__to_addressB8ue170006INS_16reverse_iteratorINS1_IP23TransformerEncoderLayerEEEEvEEu7__decayIDTclsr19__to_address_helperIT_EE6__callclsr3stdE7declvalIRKS6_EEEEES8_, symObjAddr: 0x17404, symBinAddr: 0x10001B00C, symSize: 0x24 }
  - { offsetInCU: 0x1080AA, offset: 0x1080AA, size: 0x8, addend: 0x0, symName: __ZNSt3__119__libcpp_deallocateB8ue170006EPvmm, symObjAddr: 0x18014, symBinAddr: 0x10001BC1C, symSize: 0x30 }
  - { offsetInCU: 0x1080F2, offset: 0x1080F2, size: 0x8, addend: 0x0, symName: __ZNSt3__127__do_deallocate_handle_sizeB8ue170006IJEEEvPvmDpT_, symObjAddr: 0x18044, symBinAddr: 0x10001BC4C, symSize: 0x28 }
  - { offsetInCU: 0x108130, offset: 0x108130, size: 0x8, addend: 0x0, symName: __ZNSt3__124__libcpp_operator_deleteB8ue170006IJPvEEEvDpT_, symObjAddr: 0x1806C, symBinAddr: 0x10001BC74, symSize: 0x24 }
  - { offsetInCU: 0x108165, offset: 0x108165, size: 0x8, addend: 0x0, symName: __ZNSt3__112__to_addressB8ue170006IN5Eigen6MatrixIdLin1ELin1ELi0ELin1ELin1EEEEEPT_S5_, symObjAddr: 0x1AB90, symBinAddr: 0x10001E798, symSize: 0x14 }
  - { offsetInCU: 0x10819A, offset: 0x10819A, size: 0x8, addend: 0x0, symName: __ZNSt3__119__allocate_at_leastB8ue170006INS_9allocatorIN5Eigen6MatrixIdLin1ELin1ELi0ELin1ELin1EEEEEEENS_19__allocation_resultINS_16allocator_traitsIT_E7pointerEEERS8_m, symObjAddr: 0x1C738, symBinAddr: 0x100020340, symSize: 0x28C }
  - { offsetInCU: 0x1081DF, offset: 0x1081DF, size: 0x8, addend: 0x0, symName: __ZNSt3__142__uninitialized_allocator_move_if_noexceptB8ue170006INS_9allocatorIN5Eigen6MatrixIdLin1ELin1ELi0ELin1ELin1EEEEENS_16reverse_iteratorIPS4_EES8_S8_EET2_RT_T0_T1_S9_, symObjAddr: 0x1CCC0, symBinAddr: 0x1000208C8, symSize: 0x544 }
  - { offsetInCU: 0x108294, offset: 0x108294, size: 0x8, addend: 0x0, symName: __ZNSt3__14swapB8ue170006IPN5Eigen6MatrixIdLin1ELin1ELi0ELin1ELin1EEEEENS_9enable_ifIXaasr21is_move_constructibleIT_EE5valuesr18is_move_assignableIS6_EE5valueEvE4typeERS6_S9_, symObjAddr: 0x1D29C, symBinAddr: 0x100020EA4, symSize: 0x134 }
  - { offsetInCU: 0x1082E5, offset: 0x1082E5, size: 0x8, addend: 0x0, symName: __ZNSt3__122__make_exception_guardB8ue170006INS_29_AllocatorDestroyRangeReverseINS_9allocatorIN5Eigen6MatrixIdLin1ELin1ELi0ELin1ELin1EEEEENS_16reverse_iteratorIPS5_EEEEEENS_28__exception_guard_exceptionsIT_EESC_, symObjAddr: 0x1D4AC, symBinAddr: 0x1000210B4, symSize: 0x1F8 }
  - { offsetInCU: 0x10831C, offset: 0x10831C, size: 0x8, addend: 0x0, symName: __ZNSt3__1neB8ue170006IPN5Eigen6MatrixIdLin1ELin1ELi0ELin1ELin1EEES4_EEbRKNS_16reverse_iteratorIT_EERKNS5_IT0_EE, symObjAddr: 0x1D6E8, symBinAddr: 0x1000212F0, symSize: 0x48 }
  - { offsetInCU: 0x108368, offset: 0x108368, size: 0x8, addend: 0x0, symName: __ZNSt3__112__to_addressB8ue170006INS_16reverse_iteratorIPN5Eigen6MatrixIdLin1ELin1ELi0ELin1ELin1EEEEEvEEu7__decayIDTclsr19__to_address_helperIT_EE6__callclsr3stdE7declvalIRKS7_EEEEES9_, symObjAddr: 0x1D730, symBinAddr: 0x100021338, symSize: 0x24 }
  - { offsetInCU: 0x1083C8, offset: 0x1083C8, size: 0x8, addend: 0x0, symName: __ZNSt3__119__allocator_destroyB8ue170006INS_9allocatorIN5Eigen6MatrixIdLin1ELin1ELi0ELin1ELin1EEEEENS_16reverse_iteratorINS6_IPS4_EEEES9_EEvRT_T0_T1_, symObjAddr: 0x1DF94, symBinAddr: 0x100021B9C, symSize: 0x70 }
  - { offsetInCU: 0x10842D, offset: 0x10842D, size: 0x8, addend: 0x0, symName: __ZNSt3__1neB8ue170006INS_16reverse_iteratorIPN5Eigen6MatrixIdLin1ELin1ELi0ELin1ELin1EEEEES6_EEbRKNS1_IT_EERKNS1_IT0_EE, symObjAddr: 0x1E24C, symBinAddr: 0x100021E54, symSize: 0x2CC }
  - { offsetInCU: 0x10847B, offset: 0x10847B, size: 0x8, addend: 0x0, symName: __ZNSt3__112__to_addressB8ue170006INS_16reverse_iteratorINS1_IPN5Eigen6MatrixIdLin1ELin1ELi0ELin1ELin1EEEEEEEvEEu7__decayIDTclsr19__to_address_helperIT_EE6__callclsr3stdE7declvalIRKS8_EEEEESA_, symObjAddr: 0x1E544, symBinAddr: 0x10002214C, symSize: 0x24 }
  - { offsetInCU: 0x1084DB, offset: 0x1084DB, size: 0x8, addend: 0x0, symName: __ZNSt3__112__to_addressB8ue170006I23TransformerDecoderLayerEEPT_S3_, symObjAddr: 0x252A8, symBinAddr: 0x100028EB0, symSize: 0x14 }
  - { offsetInCU: 0x108510, offset: 0x108510, size: 0x8, addend: 0x0, symName: __ZNSt3__119__allocate_at_leastB8ue170006INS_9allocatorI23TransformerDecoderLayerEEEENS_19__allocation_resultINS_16allocator_traitsIT_E7pointerEEERS6_m, symObjAddr: 0x26FBC, symBinAddr: 0x10002ABC4, symSize: 0x28C }
  - { offsetInCU: 0x108555, offset: 0x108555, size: 0x8, addend: 0x0, symName: __ZNSt3__142__uninitialized_allocator_move_if_noexceptB8ue170006INS_9allocatorI23TransformerDecoderLayerEENS_16reverse_iteratorIPS2_EES6_S6_EET2_RT_T0_T1_S7_, symObjAddr: 0x27544, symBinAddr: 0x10002B14C, symSize: 0x544 }
  - { offsetInCU: 0x10860A, offset: 0x10860A, size: 0x8, addend: 0x0, symName: __ZNSt3__14swapB8ue170006IP23TransformerDecoderLayerEENS_9enable_ifIXaasr21is_move_constructibleIT_EE5valuesr18is_move_assignableIS4_EE5valueEvE4typeERS4_S7_, symObjAddr: 0x27B20, symBinAddr: 0x10002B728, symSize: 0x134 }
  - { offsetInCU: 0x10865B, offset: 0x10865B, size: 0x8, addend: 0x0, symName: __ZNSt3__122__make_exception_guardB8ue170006INS_29_AllocatorDestroyRangeReverseINS_9allocatorI23TransformerDecoderLayerEENS_16reverse_iteratorIPS3_EEEEEENS_28__exception_guard_exceptionsIT_EESA_, symObjAddr: 0x27D30, symBinAddr: 0x10002B938, symSize: 0x1F8 }
  - { offsetInCU: 0x108692, offset: 0x108692, size: 0x8, addend: 0x0, symName: __ZNSt3__1neB8ue170006IP23TransformerDecoderLayerS2_EEbRKNS_16reverse_iteratorIT_EERKNS3_IT0_EE, symObjAddr: 0x27F6C, symBinAddr: 0x10002BB74, symSize: 0x48 }
  - { offsetInCU: 0x1086DE, offset: 0x1086DE, size: 0x8, addend: 0x0, symName: __ZNSt3__112__to_addressB8ue170006INS_16reverse_iteratorIP23TransformerDecoderLayerEEvEEu7__decayIDTclsr19__to_address_helperIT_EE6__callclsr3stdE7declvalIRKS5_EEEEES7_, symObjAddr: 0x27FB4, symBinAddr: 0x10002BBBC, symSize: 0x24 }
  - { offsetInCU: 0x10873E, offset: 0x10873E, size: 0x8, addend: 0x0, symName: __ZNSt3__119__allocator_destroyB8ue170006INS_9allocatorI23TransformerDecoderLayerEENS_16reverse_iteratorINS4_IPS2_EEEES7_EEvRT_T0_T1_, symObjAddr: 0x28818, symBinAddr: 0x10002C420, symSize: 0x70 }
  - { offsetInCU: 0x1087A3, offset: 0x1087A3, size: 0x8, addend: 0x0, symName: __ZNSt3__1neB8ue170006INS_16reverse_iteratorIP23TransformerDecoderLayerEES4_EEbRKNS1_IT_EERKNS1_IT0_EE, symObjAddr: 0x28AD0, symBinAddr: 0x10002C6D8, symSize: 0x2CC }
  - { offsetInCU: 0x1087F1, offset: 0x1087F1, size: 0x8, addend: 0x0, symName: __ZNSt3__112__to_addressB8ue170006INS_16reverse_iteratorINS1_IP23TransformerDecoderLayerEEEEvEEu7__decayIDTclsr19__to_address_helperIT_EE6__callclsr3stdE7declvalIRKS6_EEEEES8_, symObjAddr: 0x28DC8, symBinAddr: 0x10002C9D0, symSize: 0x24 }
  - { offsetInCU: 0x108851, offset: 0x108851, size: 0x8, addend: 0x0, symName: __ZNSt3__111make_uniqueB8ue170006IN18MultiHeadAttention10ThreadDataEJRiPKN5Eigen6MatrixIdLin1ELin1ELi0ELin1ELin1EEES8_S8_PS6_S9_S9_S3_S9_EEENS_11__unique_ifIT_E15__unique_singleEDpOT0_, symObjAddr: 0x2E008, symBinAddr: 0x100031C10, symSize: 0x36C }
  - { offsetInCU: 0x108937, offset: 0x108937, size: 0x8, addend: 0x0, symName: __ZNSt3__122__make_exception_guardB8ue170006INS_6vectorIN5Eigen6MatrixIdLin1ELin1ELi0ELin1ELin1EEENS_9allocatorIS4_EEE16__destroy_vectorEEENS_28__exception_guard_exceptionsIT_EESA_, symObjAddr: 0x2F944, symBinAddr: 0x10003354C, symSize: 0x278 }
  - { offsetInCU: 0x108970, offset: 0x108970, size: 0x8, addend: 0x0, symName: __ZNSt3__122__make_exception_guardB8ue170006INS_6vectorIP17_opaque_pthread_tNS_9allocatorIS3_EEE16__destroy_vectorEEENS_28__exception_guard_exceptionsIT_EES9_, symObjAddr: 0x30EE4, symBinAddr: 0x100034AEC, symSize: 0x278 }
  - { offsetInCU: 0x1089A9, offset: 0x1089A9, size: 0x8, addend: 0x0, symName: __ZNSt3__119__allocate_at_leastB8ue170006INS_9allocatorIP17_opaque_pthread_tEEEENS_19__allocation_resultINS_16allocator_traitsIT_E7pointerEEERS7_m, symObjAddr: 0x32384, symBinAddr: 0x100035F8C, symSize: 0x28C }
  - { offsetInCU: 0x1089EE, offset: 0x1089EE, size: 0x8, addend: 0x0, symName: __ZNSt3__112__to_addressB8ue170006IP17_opaque_pthread_tEEPT_S4_, symObjAddr: 0x329FC, symBinAddr: 0x100036604, symSize: 0x14 }
  - { offsetInCU: 0x108A23, offset: 0x108A23, size: 0x8, addend: 0x0, symName: __ZNSt3__112__to_addressB8ue170006INS_10unique_ptrIN18MultiHeadAttention10ThreadDataENS_14default_deleteIS3_EEEEEEPT_S8_, symObjAddr: 0x34440, symBinAddr: 0x100038048, symSize: 0x14 }
  - { offsetInCU: 0x108A58, offset: 0x108A58, size: 0x8, addend: 0x0, symName: __ZNSt3__119__allocate_at_leastB8ue170006INS_9allocatorINS_10unique_ptrIN18MultiHeadAttention10ThreadDataENS_14default_deleteIS4_EEEEEEEENS_19__allocation_resultINS_16allocator_traitsIT_E7pointerEEERSB_m, symObjAddr: 0x364DC, symBinAddr: 0x10003A0E4, symSize: 0x28C }
  - { offsetInCU: 0x108A9D, offset: 0x108A9D, size: 0x8, addend: 0x0, symName: __ZNSt3__142__uninitialized_allocator_move_if_noexceptB8ue170006INS_9allocatorINS_10unique_ptrIN18MultiHeadAttention10ThreadDataENS_14default_deleteIS4_EEEEEENS_16reverse_iteratorIPS7_EESB_SB_EET2_RT_T0_T1_SC_, symObjAddr: 0x36A44, symBinAddr: 0x10003A64C, symSize: 0x544 }
  - { offsetInCU: 0x108B52, offset: 0x108B52, size: 0x8, addend: 0x0, symName: __ZNSt3__14swapB8ue170006IPNS_10unique_ptrIN18MultiHeadAttention10ThreadDataENS_14default_deleteIS3_EEEEEENS_9enable_ifIXaasr21is_move_constructibleIT_EE5valuesr18is_move_assignableIS9_EE5valueEvE4typeERS9_SC_, symObjAddr: 0x37020, symBinAddr: 0x10003AC28, symSize: 0x134 }
  - { offsetInCU: 0x108BA3, offset: 0x108BA3, size: 0x8, addend: 0x0, symName: __ZNSt3__122__make_exception_guardB8ue170006INS_29_AllocatorDestroyRangeReverseINS_9allocatorINS_10unique_ptrIN18MultiHeadAttention10ThreadDataENS_14default_deleteIS5_EEEEEENS_16reverse_iteratorIPS8_EEEEEENS_28__exception_guard_exceptionsIT_EESF_, symObjAddr: 0x37214, symBinAddr: 0x10003AE1C, symSize: 0x1F8 }
  - { offsetInCU: 0x108BDA, offset: 0x108BDA, size: 0x8, addend: 0x0, symName: __ZNSt3__1neB8ue170006IPNS_10unique_ptrIN18MultiHeadAttention10ThreadDataENS_14default_deleteIS3_EEEES7_EEbRKNS_16reverse_iteratorIT_EERKNS8_IT0_EE, symObjAddr: 0x37450, symBinAddr: 0x10003B058, symSize: 0x48 }
  - { offsetInCU: 0x108C26, offset: 0x108C26, size: 0x8, addend: 0x0, symName: __ZNSt3__112__to_addressB8ue170006INS_16reverse_iteratorIPNS_10unique_ptrIN18MultiHeadAttention10ThreadDataENS_14default_deleteIS4_EEEEEEvEEu7__decayIDTclsr19__to_address_helperIT_EE6__callclsr3stdE7declvalIRKSA_EEEEESC_, symObjAddr: 0x37498, symBinAddr: 0x10003B0A0, symSize: 0x24 }
  - { offsetInCU: 0x108C86, offset: 0x108C86, size: 0x8, addend: 0x0, symName: __ZNSt3__119__allocator_destroyB8ue170006INS_9allocatorINS_10unique_ptrIN18MultiHeadAttention10ThreadDataENS_14default_deleteIS4_EEEEEENS_16reverse_iteratorINS9_IPS7_EEEESC_EEvRT_T0_T1_, symObjAddr: 0x37CFC, symBinAddr: 0x10003B904, symSize: 0x70 }
  - { offsetInCU: 0x108CEB, offset: 0x108CEB, size: 0x8, addend: 0x0, symName: __ZNSt3__1neB8ue170006INS_16reverse_iteratorIPNS_10unique_ptrIN18MultiHeadAttention10ThreadDataENS_14default_deleteIS4_EEEEEES9_EEbRKNS1_IT_EERKNS1_IT0_EE, symObjAddr: 0x37FB4, symBinAddr: 0x10003BBBC, symSize: 0x2CC }
  - { offsetInCU: 0x108D39, offset: 0x108D39, size: 0x8, addend: 0x0, symName: __ZNSt3__112__to_addressB8ue170006INS_16reverse_iteratorINS1_IPNS_10unique_ptrIN18MultiHeadAttention10ThreadDataENS_14default_deleteIS4_EEEEEEEEvEEu7__decayIDTclsr19__to_address_helperIT_EE6__callclsr3stdE7declvalIRKSB_EEEEESD_, symObjAddr: 0x382AC, symBinAddr: 0x10003BEB4, symSize: 0x24 }
  - { offsetInCU: 0x108D99, offset: 0x108D99, size: 0x8, addend: 0x0, symName: __ZNSt3__13minB8ue170006IlEERKT_S3_S3_, symObjAddr: 0x3C794, symBinAddr: 0x10004039C, symSize: 0x2C }
  - { offsetInCU: 0x108DDC, offset: 0x108DDC, size: 0x8, addend: 0x0, symName: __ZNSt3__13minB8ue170006IlNS_6__lessIvvEEEERKT_S5_S5_T0_, symObjAddr: 0x3C7C0, symBinAddr: 0x1000403C8, symSize: 0x1E8 }
  - { offsetInCU: 0x108E3C, offset: 0x108E3C, size: 0x8, addend: 0x0, symName: __ZNSt3__14swapB8ue170006IPdEENS_9enable_ifIXaasr21is_move_constructibleIT_EE5valuesr18is_move_assignableIS3_EE5valueEvE4typeERS3_S6_, symObjAddr: 0x3F550, symBinAddr: 0x100043158, symSize: 0x134 }
  - { offsetInCU: 0x108E8D, offset: 0x108E8D, size: 0x8, addend: 0x0, symName: __ZNSt3__14swapB8ue170006IlEENS_9enable_ifIXaasr21is_move_constructibleIT_EE5valuesr18is_move_assignableIS2_EE5valueEvE4typeERS2_S5_, symObjAddr: 0x3F684, symBinAddr: 0x10004328C, symSize: 0x134 }
  - { offsetInCU: 0x108EDE, offset: 0x108EDE, size: 0x8, addend: 0x0, symName: __ZNSt3__116__pad_and_outputB8ue170006IcNS_11char_traitsIcEEEENS_19ostreambuf_iteratorIT_T0_EES6_PKS4_S8_S8_RNS_8ios_baseES4_, symObjAddr: 0x4031C, symBinAddr: 0x100043F24, symSize: 0x760 }
  - { offsetInCU: 0x108FBB, offset: 0x108FBB, size: 0x8, addend: 0x0, symName: __ZNSt3__112__to_addressB8ue170006IKcEEPT_S3_, symObjAddr: 0x412B0, symBinAddr: 0x100044EB8, symSize: 0x14 }
  - { offsetInCU: 0x109023, offset: 0x109023, size: 0x8, addend: 0x0, symName: __ZNSt3__19use_facetB8ue170006INS_5ctypeIcEEEERKT_RKNS_6localeE, symObjAddr: 0x41904, symBinAddr: 0x10004550C, symSize: 0x2C }
  - { offsetInCU: 0x1094FA, offset: 0x1094FA, size: 0x8, addend: 0x0, symName: __ZNSt3__118__constexpr_strlenB8ue170006EPKc, symObjAddr: 0x41A88, symBinAddr: 0x100045690, symSize: 0x24 }
  - { offsetInCU: 0x109526, offset: 0x109526, size: 0x8, addend: 0x0, symName: __ZNSt3__122__make_exception_guardB8ue170006INS_6vectorIfNS_9allocatorIfEEE16__destroy_vectorEEENS_28__exception_guard_exceptionsIT_EES7_, symObjAddr: 0x41F78, symBinAddr: 0x100045B80, symSize: 0x278 }
  - { offsetInCU: 0x10955F, offset: 0x10955F, size: 0x8, addend: 0x0, symName: __ZNSt3__119__allocate_at_leastB8ue170006INS_9allocatorIfEEEENS_19__allocation_resultINS_16allocator_traitsIT_E7pointerEEERS5_m, symObjAddr: 0x43418, symBinAddr: 0x100047020, symSize: 0x28C }
  - { offsetInCU: 0x1095A4, offset: 0x1095A4, size: 0x8, addend: 0x0, symName: __ZNSt3__112__to_addressB8ue170006IfEEPT_S2_, symObjAddr: 0x43A90, symBinAddr: 0x100047698, symSize: 0x14 }
  - { offsetInCU: 0x1095D9, offset: 0x1095D9, size: 0x8, addend: 0x0, symName: __ZNSt3__122__make_exception_guardB8ue170006INS_6vectorINS1_IfNS_9allocatorIfEEEENS2_IS4_EEE16__destroy_vectorEEENS_28__exception_guard_exceptionsIT_EES9_, symObjAddr: 0x44F70, symBinAddr: 0x100048B78, symSize: 0x278 }
  - { offsetInCU: 0x109612, offset: 0x109612, size: 0x8, addend: 0x0, symName: __ZNSt3__119__allocate_at_leastB8ue170006INS_9allocatorINS_6vectorIfNS1_IfEEEEEEEENS_19__allocation_resultINS_16allocator_traitsIT_E7pointerEEERS8_m, symObjAddr: 0x46420, symBinAddr: 0x10004A028, symSize: 0x28C }
  - { offsetInCU: 0x109657, offset: 0x109657, size: 0x8, addend: 0x0, symName: __ZNSt3__112__to_addressB8ue170006INS_6vectorIfNS_9allocatorIfEEEEEEPT_S6_, symObjAddr: 0x46ABC, symBinAddr: 0x10004A6C4, symSize: 0x14 }
  - { offsetInCU: 0x10968C, offset: 0x10968C, size: 0x8, addend: 0x0, symName: __ZNSt3__130__uninitialized_allocator_copyB8ue170006INS_9allocatorIfEEPfS3_S3_EET2_RT_T0_T1_S4_, symObjAddr: 0x47ABC, symBinAddr: 0x10004B6C4, symSize: 0x2DC }
  - { offsetInCU: 0x109732, offset: 0x109732, size: 0x8, addend: 0x0, symName: __ZNSt3__114__unwrap_rangeB8ue170006IPfS1_EENS_4pairIT0_S3_EET_S5_, symObjAddr: 0x47D98, symBinAddr: 0x10004B9A0, symSize: 0x350 }
  - { offsetInCU: 0x109780, offset: 0x109780, size: 0x8, addend: 0x0, symName: __ZNSt3__135__uninitialized_allocator_copy_implB8ue170006INS_9allocatorIfEEfffLPv0EEEPT2_RT_PT0_S9_S5_, symObjAddr: 0x480E8, symBinAddr: 0x10004BCF0, symSize: 0x38 }
  - { offsetInCU: 0x109801, offset: 0x109801, size: 0x8, addend: 0x0, symName: __ZNSt3__113__unwrap_iterB8ue170006IPfNS_18__unwrap_iter_implIS1_Lb1EEELi0EEEDTclsrT0_8__unwrapclsr3stdE7declvalIT_EEEES5_, symObjAddr: 0x48120, symBinAddr: 0x10004BD28, symSize: 0x24 }
  - { offsetInCU: 0x109845, offset: 0x109845, size: 0x8, addend: 0x0, symName: __ZNSt3__113__rewrap_iterB8ue170006IPfS1_NS_18__unwrap_iter_implIS1_Lb1EEEEET_S4_T0_, symObjAddr: 0x48144, symBinAddr: 0x10004BD4C, symSize: 0x48 }
  - { offsetInCU: 0x10989A, offset: 0x10989A, size: 0x8, addend: 0x0, symName: __ZNSt3__19make_pairB8ue170006IPfS1_EENS_4pairINS_18__unwrap_ref_decayIT_E4typeENS3_IT0_E4typeEEEOS4_OS7_, symObjAddr: 0x4818C, symBinAddr: 0x10004BD94, symSize: 0x20C }
  - { offsetInCU: 0x1099EE, offset: 0x1099EE, size: 0x8, addend: 0x0, symName: __ZNSt3__14copyB8ue170006IPfS1_EET0_T_S3_S2_, symObjAddr: 0x4850C, symBinAddr: 0x10004C114, symSize: 0x26C }
  - { offsetInCU: 0x109A4B, offset: 0x109A4B, size: 0x8, addend: 0x0, symName: __ZNSt3__16__copyB8ue170006INS_17_ClassicAlgPolicyEPfS2_S2_EENS_4pairIT0_T2_EES4_T1_S5_, symObjAddr: 0x48778, symBinAddr: 0x10004C380, symSize: 0x22C }
  - { offsetInCU: 0x109ABA, offset: 0x109ABA, size: 0x8, addend: 0x0, symName: __ZNSt3__123__dispatch_copy_or_moveB8ue170006INS_17_ClassicAlgPolicyENS_11__copy_loopIS1_EENS_14__copy_trivialEPfS5_S5_EENS_4pairIT2_T4_EES7_T3_S8_, symObjAddr: 0x489A4, symBinAddr: 0x10004C5AC, symSize: 0x22C }
  - { offsetInCU: 0x109B3B, offset: 0x109B3B, size: 0x8, addend: 0x0, symName: __ZNSt3__121__unwrap_and_dispatchB8ue170006INS_10__overloadINS_11__copy_loopINS_17_ClassicAlgPolicyEEENS_14__copy_trivialEEEPfS7_S7_Li0EEENS_4pairIT0_T2_EES9_T1_SA_, symObjAddr: 0x48BD0, symBinAddr: 0x10004C7D8, symSize: 0x5A4 }
  - { offsetInCU: 0x109C1A, offset: 0x109C1A, size: 0x8, addend: 0x0, symName: __ZNSt3__114__rewrap_rangeB8ue170006IPfS1_EET_S2_T0_, symObjAddr: 0x493A4, symBinAddr: 0x10004CFAC, symSize: 0x2C }
  - { offsetInCU: 0x109C66, offset: 0x109C66, size: 0x8, addend: 0x0, symName: __ZNSt3__119__copy_trivial_implB8ue170006IffEENS_4pairIPT_PT0_EES3_S3_S5_, symObjAddr: 0x493D0, symBinAddr: 0x10004CFD8, symSize: 0x3B4 }
  - { offsetInCU: 0x109CD5, offset: 0x109CD5, size: 0x8, addend: 0x0, symName: __ZNSt3__119__constexpr_memmoveB8ue170006IffLi0EEEPT_S2_PT0_NS_15__element_countE, symObjAddr: 0x49784, symBinAddr: 0x10004D38C, symSize: 0x64 }
  - { offsetInCU: 0x109D43, offset: 0x109D43, size: 0x8, addend: 0x0, symName: __ZNSt3__19make_pairB8ue170006IRPfS1_EENS_4pairINS_18__unwrap_ref_decayIT_E4typeENS4_IT0_E4typeEEEOS5_OS8_, symObjAddr: 0x497E8, symBinAddr: 0x10004D3F0, symSize: 0x20C }
  - { offsetInCU: 0x109DE7, offset: 0x109DE7, size: 0x8, addend: 0x0, symName: __ZNSt3__16fill_nB8ue170006IPdldEET_S2_T0_RKT1_, symObjAddr: 0x54604, symBinAddr: 0x10005820C, symSize: 0x44 }
  - { offsetInCU: 0x109E4A, offset: 0x109E4A, size: 0x8, addend: 0x0, symName: __ZNSt3__18__fill_nB8ue170006IPdldEET_S2_T0_RKT1_, symObjAddr: 0x546AC, symBinAddr: 0x1000582B4, symSize: 0xF0 }
  - { offsetInCU: 0x109EAD, offset: 0x109EAD, size: 0x8, addend: 0x0, symName: __ZNSt3__121__convert_to_integralB8ue170006El, symObjAddr: 0x5479C, symBinAddr: 0x1000583A4, symSize: 0x14 }
  - { offsetInCU: 0x109ED9, offset: 0x109ED9, size: 0x8, addend: 0x0, symName: __ZNSt3__13maxB8ue170006IlEERKT_S3_S3_, symObjAddr: 0x68284, symBinAddr: 0x10006BE8C, symSize: 0x2C }
  - { offsetInCU: 0x109F1C, offset: 0x109F1C, size: 0x8, addend: 0x0, symName: __ZNSt3__13maxB8ue170006IlNS_6__lessIvvEEEERKT_S5_S5_T0_, symObjAddr: 0x682B0, symBinAddr: 0x10006BEB8, symSize: 0x1E8 }
  - { offsetInCU: 0x109F7C, offset: 0x109F7C, size: 0x8, addend: 0x0, symName: __ZNSt3__13maxB8ue170006IdEERKT_S3_S3_, symObjAddr: 0xA00F0, symBinAddr: 0x1000A3CF8, symSize: 0x2C }
  - { offsetInCU: 0x109FBF, offset: 0x109FBF, size: 0x8, addend: 0x0, symName: __ZNSt3__13maxB8ue170006IdNS_6__lessIvvEEEERKT_S5_S5_T0_, symObjAddr: 0xA011C, symBinAddr: 0x1000A3D24, symSize: 0x1E8 }
  - { offsetInCU: 0x10A01F, offset: 0x10A01F, size: 0x8, addend: 0x0, symName: __ZNSt3__1lsB8ue170006IcNS_11char_traitsIcEENS_9allocatorIcEEEERNS_13basic_ostreamIT_T0_EES9_RKNS_12basic_stringIS6_S7_T1_EE, symObjAddr: 0xE42AC, symBinAddr: 0x1000E7EB4, symSize: 0x4C }
  - { offsetInCU: 0x10B117, offset: 0x10B117, size: 0x8, addend: 0x0, symName: __ZSt28__throw_bad_array_new_lengthB8ue170006v, symObjAddr: 0x15968, symBinAddr: 0x100019570, symSize: 0x38 }
  - { offsetInCU: 0x10B171, offset: 0x10B171, size: 0x8, addend: 0x0, symName: _.str, symObjAddr: 0xE9420, symBinAddr: 0x1000F2F00, symSize: 0x0 }
  - { offsetInCU: 0x10B1A5, offset: 0x10B1A5, size: 0x8, addend: 0x0, symName: _.str.3, symObjAddr: 0xE9460, symBinAddr: 0x1000F2F40, symSize: 0x0 }
  - { offsetInCU: 0x10B1C5, offset: 0x10B1C5, size: 0x8, addend: 0x0, symName: _.str.4, symObjAddr: 0xE94A0, symBinAddr: 0x1000F2F80, symSize: 0x0 }
  - { offsetInCU: 0x10B1E5, offset: 0x10B1E5, size: 0x8, addend: 0x0, symName: _.str.5, symObjAddr: 0xE9500, symBinAddr: 0x1000F2FE0, symSize: 0x0 }
  - { offsetInCU: 0x10B205, offset: 0x10B205, size: 0x8, addend: 0x0, symName: _.str.6, symObjAddr: 0xE9560, symBinAddr: 0x1000F3040, symSize: 0x0 }
  - { offsetInCU: 0x10B225, offset: 0x10B225, size: 0x8, addend: 0x0, symName: _.str.7, symObjAddr: 0xE95A0, symBinAddr: 0x1000F3080, symSize: 0x0 }
  - { offsetInCU: 0x10B245, offset: 0x10B245, size: 0x8, addend: 0x0, symName: _.str.8, symObjAddr: 0xE95E0, symBinAddr: 0x1000F30C0, symSize: 0x0 }
  - { offsetInCU: 0x10B265, offset: 0x10B265, size: 0x8, addend: 0x0, symName: _.str.9, symObjAddr: 0xE9620, symBinAddr: 0x1000F3100, symSize: 0x0 }
  - { offsetInCU: 0x10B286, offset: 0x10B286, size: 0x8, addend: 0x0, symName: _.str.10, symObjAddr: 0xE9660, symBinAddr: 0x1000F3140, symSize: 0x0 }
  - { offsetInCU: 0x10B2A7, offset: 0x10B2A7, size: 0x8, addend: 0x0, symName: _.str.11, symObjAddr: 0xE9680, symBinAddr: 0x1000F3160, symSize: 0x0 }
  - { offsetInCU: 0x10B2C8, offset: 0x10B2C8, size: 0x8, addend: 0x0, symName: _.str.12, symObjAddr: 0xE96A0, symBinAddr: 0x1000F3180, symSize: 0x0 }
  - { offsetInCU: 0x10B2E9, offset: 0x10B2E9, size: 0x8, addend: 0x0, symName: _.str.13, symObjAddr: 0xE96C0, symBinAddr: 0x1000F31A0, symSize: 0x0 }
  - { offsetInCU: 0x10B30A, offset: 0x10B30A, size: 0x8, addend: 0x0, symName: _.str.14, symObjAddr: 0xE96E0, symBinAddr: 0x1000F31C0, symSize: 0x0 }
  - { offsetInCU: 0x10B32B, offset: 0x10B32B, size: 0x8, addend: 0x0, symName: _.str.15, symObjAddr: 0xE9740, symBinAddr: 0x1000F3220, symSize: 0x0 }
  - { offsetInCU: 0x10B33E, offset: 0x10B33E, size: 0x8, addend: 0x0, symName: _.str.16, symObjAddr: 0xE9780, symBinAddr: 0x1000F3260, symSize: 0x0 }
  - { offsetInCU: 0x10B351, offset: 0x10B351, size: 0x8, addend: 0x0, symName: _.str.17, symObjAddr: 0xE97C0, symBinAddr: 0x1000F32A0, symSize: 0x0 }
  - { offsetInCU: 0x10B3A5, offset: 0x10B3A5, size: 0x8, addend: 0x0, symName: _.str.22, symObjAddr: 0xE97E0, symBinAddr: 0x1000F32C0, symSize: 0x0 }
  - { offsetInCU: 0x10B3B7, offset: 0x10B3B7, size: 0x8, addend: 0x0, symName: _.str.23, symObjAddr: 0xE9800, symBinAddr: 0x1000F32E0, symSize: 0x0 }
  - { offsetInCU: 0x10B3D7, offset: 0x10B3D7, size: 0x8, addend: 0x0, symName: _.str.24, symObjAddr: 0xE9860, symBinAddr: 0x1000F3340, symSize: 0x0 }
  - { offsetInCU: 0x10B3F8, offset: 0x10B3F8, size: 0x8, addend: 0x0, symName: ___func__._ZN5Eigen8internal17resize_if_allowedINS_6MatrixIdLin1ELin1ELi0ELin1ELin1EEENS_13CwiseBinaryOpINS0_17scalar_product_opIddEEKNS_14CwiseNullaryOpINS0_16scalar_random_opIdEES3_EEKNS7_INS0_18scalar_constant_opIdEEKS3_EEEEddEEvRT_RKT0_RKNS0_9assign_opIT1_T2_EE, symObjAddr: 0xE98C0, symBinAddr: 0x1000F33A0, symSize: 0x0 }
  - { offsetInCU: 0x10B419, offset: 0x10B419, size: 0x8, addend: 0x0, symName: _.str.25, symObjAddr: 0xE9900, symBinAddr: 0x1000F33E0, symSize: 0x0 }
  - { offsetInCU: 0x10B42C, offset: 0x10B42C, size: 0x8, addend: 0x0, symName: _.str.26, symObjAddr: 0xE9940, symBinAddr: 0x1000F3420, symSize: 0x0 }
  - { offsetInCU: 0x10B44D, offset: 0x10B44D, size: 0x8, addend: 0x0, symName: _.str.27, symObjAddr: 0xE99A0, symBinAddr: 0x1000F3480, symSize: 0x0 }
  - { offsetInCU: 0x10B460, offset: 0x10B460, size: 0x8, addend: 0x0, symName: ___func__._ZN5Eigen15PlainObjectBaseINS_6MatrixIdLin1ELin1ELi0ELin1ELin1EEEE6resizeEll, symObjAddr: 0xE9A00, symBinAddr: 0x1000F34E0, symSize: 0x0 }
  - { offsetInCU: 0x10B473, offset: 0x10B473, size: 0x8, addend: 0x0, symName: _.str.28, symObjAddr: 0xE9A20, symBinAddr: 0x1000F3500, symSize: 0x0 }
  - { offsetInCU: 0x10B486, offset: 0x10B486, size: 0x8, addend: 0x0, symName: _.str.29, symObjAddr: 0xE9A60, symBinAddr: 0x1000F3540, symSize: 0x0 }
  - { offsetInCU: 0x10B4A7, offset: 0x10B4A7, size: 0x8, addend: 0x0, symName: _.str.30, symObjAddr: 0xE9C60, symBinAddr: 0x1000F3740, symSize: 0x0 }
  - { offsetInCU: 0x10B4C7, offset: 0x10B4C7, size: 0x8, addend: 0x0, symName: ___func__._ZN5Eigen8internal14aligned_mallocEm, symObjAddr: 0xE9D20, symBinAddr: 0x1000F3800, symSize: 0x0 }
  - { offsetInCU: 0x10B4E7, offset: 0x10B4E7, size: 0x8, addend: 0x0, symName: _.str.31, symObjAddr: 0xE9D40, symBinAddr: 0x1000F3820, symSize: 0x0 }
  - { offsetInCU: 0x10B4F9, offset: 0x10B4F9, size: 0x8, addend: 0x0, symName: _.str.32, symObjAddr: 0xE9D60, symBinAddr: 0x1000F3840, symSize: 0x0 }
  - { offsetInCU: 0x10B519, offset: 0x10B519, size: 0x8, addend: 0x0, symName: _.str.33, symObjAddr: 0xE9E40, symBinAddr: 0x1000F3920, symSize: 0x0 }
  - { offsetInCU: 0x10B52B, offset: 0x10B52B, size: 0x8, addend: 0x0, symName: _.str.34, symObjAddr: 0xE9EA0, symBinAddr: 0x1000F3980, symSize: 0x0 }
  - { offsetInCU: 0x10B53D, offset: 0x10B53D, size: 0x8, addend: 0x0, symName: _.str.35, symObjAddr: 0xE9F00, symBinAddr: 0x1000F39E0, symSize: 0x0 }
  - { offsetInCU: 0x10B55D, offset: 0x10B55D, size: 0x8, addend: 0x0, symName: _.str.36, symObjAddr: 0xE9F20, symBinAddr: 0x1000F3A00, symSize: 0x0 }
  - { offsetInCU: 0x10B57D, offset: 0x10B57D, size: 0x8, addend: 0x0, symName: _.str.37, symObjAddr: 0xE9F40, symBinAddr: 0x1000F3A20, symSize: 0x0 }
  - { offsetInCU: 0x10B58F, offset: 0x10B58F, size: 0x8, addend: 0x0, symName: ___func__._ZN5Eigen5BlockINS_6MatrixIdLin1ELin1ELi0ELin1ELin1EEELin1ELin1ELb0EEC2ERS2_llll, symObjAddr: 0xE9F60, symBinAddr: 0x1000F3A40, symSize: 0x0 }
  - { offsetInCU: 0x10B5AF, offset: 0x10B5AF, size: 0x8, addend: 0x0, symName: _.str.38, symObjAddr: 0xE9F80, symBinAddr: 0x1000F3A60, symSize: 0x0 }
  - { offsetInCU: 0x10B5C1, offset: 0x10B5C1, size: 0x8, addend: 0x0, symName: _.str.39, symObjAddr: 0xE9FA0, symBinAddr: 0x1000F3A80, symSize: 0x0 }
  - { offsetInCU: 0x10B5E1, offset: 0x10B5E1, size: 0x8, addend: 0x0, symName: ___func__._ZN5Eigen7MapBaseINS_5BlockINS_6MatrixIdLin1ELin1ELi0ELin1ELin1EEELin1ELin1ELb0EEELi0EEC2EPdll, symObjAddr: 0xEA060, symBinAddr: 0x1000F3B40, symSize: 0x0 }
  - { offsetInCU: 0x10B5F3, offset: 0x10B5F3, size: 0x8, addend: 0x0, symName: _.str.40, symObjAddr: 0xEA080, symBinAddr: 0x1000F3B60, symSize: 0x0 }
  - { offsetInCU: 0x10B605, offset: 0x10B605, size: 0x8, addend: 0x0, symName: _.str.41, symObjAddr: 0xEA0A0, symBinAddr: 0x1000F3B80, symSize: 0x0 }
  - { offsetInCU: 0x10B626, offset: 0x10B626, size: 0x8, addend: 0x0, symName: _.str.42, symObjAddr: 0xEA180, symBinAddr: 0x1000F3C60, symSize: 0x0 }
  - { offsetInCU: 0x10B647, offset: 0x10B647, size: 0x8, addend: 0x0, symName: _.str.43, symObjAddr: 0xEA1E0, symBinAddr: 0x1000F3CC0, symSize: 0x0 }
  - { offsetInCU: 0x10B668, offset: 0x10B668, size: 0x8, addend: 0x0, symName: _.str.44, symObjAddr: 0xEA200, symBinAddr: 0x1000F3CE0, symSize: 0x0 }
  - { offsetInCU: 0x10B689, offset: 0x10B689, size: 0x8, addend: 0x0, symName: _.str.45, symObjAddr: 0xEA2A0, symBinAddr: 0x1000F3D80, symSize: 0x0 }
  - { offsetInCU: 0x10B69C, offset: 0x10B69C, size: 0x8, addend: 0x0, symName: ___func__._ZN5Eigen8internal15block_evaluatorINS_6MatrixIdLin1ELin1ELi0ELin1ELin1EEELin1ELin1ELb0ELb1EEC2ERKNS_5BlockIS3_Lin1ELin1ELb0EEE, symObjAddr: 0xEA2E0, symBinAddr: 0x1000F3DC0, symSize: 0x0 }
  - { offsetInCU: 0x10B6AF, offset: 0x10B6AF, size: 0x8, addend: 0x0, symName: _.str.46, symObjAddr: 0xEA300, symBinAddr: 0x1000F3DE0, symSize: 0x0 }
  - { offsetInCU: 0x10B6D0, offset: 0x10B6D0, size: 0x8, addend: 0x0, symName: _.str.47, symObjAddr: 0xEA340, symBinAddr: 0x1000F3E20, symSize: 0x0 }
  - { offsetInCU: 0x10B6F0, offset: 0x10B6F0, size: 0x8, addend: 0x0, symName: ___func__._ZN5Eigen8internal19variable_if_dynamicIlLi1EEC2El, symObjAddr: 0xEA420, symBinAddr: 0x1000F3F00, symSize: 0x0 }
  - { offsetInCU: 0x10B702, offset: 0x10B702, size: 0x8, addend: 0x0, symName: _.str.48, symObjAddr: 0xEA460, symBinAddr: 0x1000F3F40, symSize: 0x0 }
  - { offsetInCU: 0x10B714, offset: 0x10B714, size: 0x8, addend: 0x0, symName: _.str.49, symObjAddr: 0xEA480, symBinAddr: 0x1000F3F60, symSize: 0x0 }
  - { offsetInCU: 0x10B734, offset: 0x10B734, size: 0x8, addend: 0x0, symName: ___func__._ZN5Eigen13CwiseBinaryOpINS_8internal13scalar_sum_opIddEEKNS_6MatrixIdLin1ELin1ELi0ELin1ELin1EEES6_EC2ERS6_S8_RKS3_, symObjAddr: 0xEA4A0, symBinAddr: 0x1000F3F80, symSize: 0x0 }
  - { offsetInCU: 0x10B746, offset: 0x10B746, size: 0x8, addend: 0x0, symName: _.str.50, symObjAddr: 0xEA4C0, symBinAddr: 0x1000F3FA0, symSize: 0x0 }
  - { offsetInCU: 0x10B758, offset: 0x10B758, size: 0x8, addend: 0x0, symName: _.str.51, symObjAddr: 0xEA4E0, symBinAddr: 0x1000F3FC0, symSize: 0x0 }
  - { offsetInCU: 0x10B778, offset: 0x10B778, size: 0x8, addend: 0x0, symName: _.str.52, symObjAddr: 0xEA540, symBinAddr: 0x1000F4020, symSize: 0x0 }
  - { offsetInCU: 0x10B798, offset: 0x10B798, size: 0x8, addend: 0x0, symName: ___func__._ZN5Eigen7ProductINS_6MatrixIdLin1ELin1ELi0ELin1ELin1EEENS_9TransposeIKS2_EELi0EEC2ERS4_RKS5_, symObjAddr: 0xEA5C0, symBinAddr: 0x1000F40A0, symSize: 0x0 }
  - { offsetInCU: 0x10B7AA, offset: 0x10B7AA, size: 0x8, addend: 0x0, symName: _.str.53, symObjAddr: 0xEA5E0, symBinAddr: 0x1000F40C0, symSize: 0x0 }
  - { offsetInCU: 0x10B7BC, offset: 0x10B7BC, size: 0x8, addend: 0x0, symName: _.str.54, symObjAddr: 0xEA600, symBinAddr: 0x1000F40E0, symSize: 0x0 }
  - { offsetInCU: 0x10B7DC, offset: 0x10B7DC, size: 0x8, addend: 0x0, symName: ___func__._ZN5Eigen14CwiseNullaryOpINS_8internal18scalar_constant_opIdEEKNS_6MatrixIdLin1ELin1ELi0ELin1ELin1EEEEC2EllRKS3_, symObjAddr: 0xEA6C0, symBinAddr: 0x1000F41A0, symSize: 0x0 }
  - { offsetInCU: 0x10B7EE, offset: 0x10B7EE, size: 0x8, addend: 0x0, symName: _.str.55, symObjAddr: 0xEA6E0, symBinAddr: 0x1000F41C0, symSize: 0x0 }
  - { offsetInCU: 0x10B800, offset: 0x10B800, size: 0x8, addend: 0x0, symName: _.str.56, symObjAddr: 0xEA720, symBinAddr: 0x1000F4200, symSize: 0x0 }
  - { offsetInCU: 0x10B820, offset: 0x10B820, size: 0x8, addend: 0x0, symName: _.str.57, symObjAddr: 0xEA7E0, symBinAddr: 0x1000F42C0, symSize: 0x0 }
  - { offsetInCU: 0x10B841, offset: 0x10B841, size: 0x8, addend: 0x0, symName: _.str.58, symObjAddr: 0xEA8C0, symBinAddr: 0x1000F43A0, symSize: 0x0 }
  - { offsetInCU: 0x10B862, offset: 0x10B862, size: 0x8, addend: 0x0, symName: ___func__._ZNK5Eigen9DenseBaseINS_13CwiseBinaryOpINS_8internal17scalar_product_opIddEEKNS_9TransposeIKNS_5BlockIKNS_6MatrixIdLin1ELin1ELi0ELin1ELin1EEELi1ELin1ELb0EEEEEKNS6_IKNS5_IS9_EELin1ELi1ELb0EEEEEE5reduxINS2_13scalar_sum_opIddEEEEdRKT_, symObjAddr: 0xEA900, symBinAddr: 0x1000F43E0, symSize: 0x0 }
  - { offsetInCU: 0x10B875, offset: 0x10B875, size: 0x8, addend: 0x0, symName: _.str.59, symObjAddr: 0xEA920, symBinAddr: 0x1000F4400, symSize: 0x0 }
  - { offsetInCU: 0x10B888, offset: 0x10B888, size: 0x8, addend: 0x0, symName: _.str.60, symObjAddr: 0xEA940, symBinAddr: 0x1000F4420, symSize: 0x0 }
  - { offsetInCU: 0x10B8A8, offset: 0x10B8A8, size: 0x8, addend: 0x0, symName: ___func__._ZN5Eigen8internal10redux_implINS0_13scalar_sum_opIddEENS0_15redux_evaluatorINS_13CwiseBinaryOpINS0_17scalar_product_opIddEEKNS_9TransposeIKNS_5BlockIKNS_6MatrixIdLin1ELin1ELi0ELin1ELin1EEELi1ELin1ELb0EEEEEKNS9_IKNS8_ISC_EELin1ELi1ELb0EEEEEEELi0ELi0EE3runISL_EEdRKSM_RKS3_RKT_, symObjAddr: 0xEA9C0, symBinAddr: 0x1000F44A0, symSize: 0x0 }
  - { offsetInCU: 0x10B8C8, offset: 0x10B8C8, size: 0x8, addend: 0x0, symName: _.str.61, symObjAddr: 0xEA9E0, symBinAddr: 0x1000F44C0, symSize: 0x0 }
  - { offsetInCU: 0x10B8E9, offset: 0x10B8E9, size: 0x8, addend: 0x0, symName: ___func__._ZN5Eigen8internal20generic_product_implINS_6MatrixIdLin1ELin1ELi0ELin1ELin1EEENS_9TransposeIKS3_EENS_10DenseShapeES7_Li8EE13scaleAndAddToIS3_EEvRT_RS5_RKS6_RKd, symObjAddr: 0xEAA40, symBinAddr: 0x1000F4520, symSize: 0x0 }
  - { offsetInCU: 0x10B8FC, offset: 0x10B8FC, size: 0x8, addend: 0x0, symName: _.str.62, symObjAddr: 0xEAA60, symBinAddr: 0x1000F4540, symSize: 0x0 }
  - { offsetInCU: 0x10B90F, offset: 0x10B90F, size: 0x8, addend: 0x0, symName: _.str.63, symObjAddr: 0xEAAA0, symBinAddr: 0x1000F4580, symSize: 0x0 }
  - { offsetInCU: 0x10B93B, offset: 0x10B93B, size: 0x8, addend: 0x0, symName: ___func__._ZNK5Eigen10MatrixBaseINS_5BlockIKNS_6MatrixIdLin1ELin1ELi0ELin1ELin1EEELi1ELin1ELb0EEEE3dotINS1_IKNS1_IKNS_9TransposeIS4_EELin1ELi1ELb0EEELin1ELi1ELb1EEEEENS_20ScalarBinaryOpTraitsIdNS_8internal6traitsIT_E6ScalarENSF_17scalar_product_opIdSJ_EEE10ReturnTypeERKNS0_ISH_EE, symObjAddr: 0xEAB00, symBinAddr: 0x1000F45E0, symSize: 0x0 }
  - { offsetInCU: 0x10B94D, offset: 0x10B94D, size: 0x8, addend: 0x0, symName: _.str.64, symObjAddr: 0xEAB20, symBinAddr: 0x1000F4600, symSize: 0x0 }
  - { offsetInCU: 0x10B95F, offset: 0x10B95F, size: 0x8, addend: 0x0, symName: _.str.65, symObjAddr: 0xEAB40, symBinAddr: 0x1000F4620, symSize: 0x0 }
  - { offsetInCU: 0x10B97F, offset: 0x10B97F, size: 0x8, addend: 0x0, symName: ___func__._ZN5Eigen8internal16blas_data_mapperIKdlLi0ELi0ELi1EEC2EPS2_ll, symObjAddr: 0xEAB80, symBinAddr: 0x1000F4660, symSize: 0x0 }
  - { offsetInCU: 0x10B991, offset: 0x10B991, size: 0x8, addend: 0x0, symName: _.str.66, symObjAddr: 0xEABC0, symBinAddr: 0x1000F46A0, symSize: 0x0 }
  - { offsetInCU: 0x10B9B1, offset: 0x10B9B1, size: 0x8, addend: 0x0, symName: _.str.67, symObjAddr: 0xEABE0, symBinAddr: 0x1000F46C0, symSize: 0x0 }
  - { offsetInCU: 0x10B9C3, offset: 0x10B9C3, size: 0x8, addend: 0x0, symName: _.str.68, symObjAddr: 0xEAC00, symBinAddr: 0x1000F46E0, symSize: 0x0 }
  - { offsetInCU: 0x10B9E3, offset: 0x10B9E3, size: 0x8, addend: 0x0, symName: _.str.69, symObjAddr: 0xEAC20, symBinAddr: 0x1000F4700, symSize: 0x0 }
  - { offsetInCU: 0x10BA03, offset: 0x10BA03, size: 0x8, addend: 0x0, symName: ___func__._ZNK5Eigen7MapBaseINS_3MapINS_6MatrixIdLin1ELi1ELi0ELin1ELi1EEELi2ENS_6StrideILi0ELi0EEEEELi0EE11checkSanityIS6_EEvNS_8internal9enable_ifIXgtsr8internal6traitsIT_EE9AlignmentLi0EEPvE4typeE, symObjAddr: 0xEACA0, symBinAddr: 0x1000F4780, symSize: 0x0 }
  - { offsetInCU: 0x10BA15, offset: 0x10BA15, size: 0x8, addend: 0x0, symName: _.str.70, symObjAddr: 0xEACC0, symBinAddr: 0x1000F47A0, symSize: 0x0 }
  - { offsetInCU: 0x10BA40, offset: 0x10BA40, size: 0x8, addend: 0x0, symName: ___func__._ZN5Eigen8internal13gemm_pack_lhsIdlNS0_22const_blas_data_mapperIdlLi0EEELi6ELi2E19__simd128_float64_tLi0ELb0ELb0EEclEPdRKS3_llll, symObjAddr: 0xEADC0, symBinAddr: 0x1000F48A0, symSize: 0x0 }
  - { offsetInCU: 0x10BA53, offset: 0x10BA53, size: 0x8, addend: 0x0, symName: _.str.71, symObjAddr: 0xEADE0, symBinAddr: 0x1000F48C0, symSize: 0x0 }
  - { offsetInCU: 0x10BA74, offset: 0x10BA74, size: 0x8, addend: 0x0, symName: _.str.72, symObjAddr: 0xEAE20, symBinAddr: 0x1000F4900, symSize: 0x0 }
  - { offsetInCU: 0x10BA94, offset: 0x10BA94, size: 0x8, addend: 0x0, symName: ___func__._ZN5Eigen8internal16BlasLinearMapperIKdlLi0ELi1EEC2EPS2_l, symObjAddr: 0xEAEA0, symBinAddr: 0x1000F4980, symSize: 0x0 }
  - { offsetInCU: 0x10BAA7, offset: 0x10BAA7, size: 0x8, addend: 0x0, symName: ___func__._ZN5Eigen15PlainObjectBaseINS_6MatrixIdLin1ELi1ELi0ELin1ELi1EEEE10resizeLikeINS_16PartialReduxExprINS1_IdLin1ELin1ELi0ELin1ELin1EEENS_8internal10member_sumIddEELi1EEEEEvRKNS_9EigenBaseIT_EE, symObjAddr: 0xEAEE0, symBinAddr: 0x1000F49C0, symSize: 0x0 }
  - { offsetInCU: 0x10BABA, offset: 0x10BABA, size: 0x8, addend: 0x0, symName: _.str.73, symObjAddr: 0xEAF00, symBinAddr: 0x1000F49E0, symSize: 0x0 }
  - { offsetInCU: 0x10BACC, offset: 0x10BACC, size: 0x8, addend: 0x0, symName: _.str.74, symObjAddr: 0xEAF60, symBinAddr: 0x1000F4A40, symSize: 0x0 }
  - { offsetInCU: 0x10BAED, offset: 0x10BAED, size: 0x8, addend: 0x0, symName: _.str.75, symObjAddr: 0xEB000, symBinAddr: 0x1000F4AE0, symSize: 0x0 }
  - { offsetInCU: 0x10BB00, offset: 0x10BB00, size: 0x8, addend: 0x0, symName: _.str.76, symObjAddr: 0xEB040, symBinAddr: 0x1000F4B20, symSize: 0x0 }
  - { offsetInCU: 0x10BB13, offset: 0x10BB13, size: 0x8, addend: 0x0, symName: _.str.77, symObjAddr: 0xEB0A0, symBinAddr: 0x1000F4B80, symSize: 0x0 }
  - { offsetInCU: 0x10BB25, offset: 0x10BB25, size: 0x8, addend: 0x0, symName: _.str.78, symObjAddr: 0xEB100, symBinAddr: 0x1000F4BE0, symSize: 0x0 }
  - { offsetInCU: 0x10BB37, offset: 0x10BB37, size: 0x8, addend: 0x0, symName: _.str.79, symObjAddr: 0xEB140, symBinAddr: 0x1000F2EC0, symSize: 0x0 }
  - { offsetInCU: 0x112C2B, offset: 0x112C2B, size: 0x8, addend: 0x0, symName: __ZN5Eigen8internal21dense_assignment_loopINS0_31generic_dense_assignment_kernelINS0_9evaluatorINS_5BlockINS_6MatrixIdLin1ELin1ELi0ELin1ELin1EEELin1ELin1ELb0EEEEENS3_IS6_EENS0_9assign_opIddEELi0EEELi4ELi0EE3runERSC_, symObjAddr: 0x3AE24, symBinAddr: 0x10003EA2C, symSize: 0x5B4 }
  - { offsetInCU: 0x112FDC, offset: 0x112FDC, size: 0x8, addend: 0x0, symName: __ZN5Eigen8internal21dense_assignment_loopINS0_31generic_dense_assignment_kernelINS0_9evaluatorINS_6MatrixIdLin1ELin1ELi0ELin1ELin1EEEEENS3_INS_13CwiseBinaryOpINS0_13scalar_sum_opIddEEKS5_SA_EEEENS0_9assign_opIddEELi0EEELi3ELi0EE3runERSF_, symObjAddr: 0x3E124, symBinAddr: 0x100041D2C, symSize: 0xAC }
  - { offsetInCU: 0x1132F7, offset: 0x1132F7, size: 0x8, addend: 0x0, symName: __ZN5Eigen8internal21dense_assignment_loopINS0_41restricted_packet_dense_assignment_kernelINS0_9evaluatorINS_6MatrixIdLin1ELin1ELi0ELin1ELin1EEEEENS3_INS_7ProductIS5_NS_9TransposeIKS5_EELi1EEEEENS0_9assign_opIddEEEELi4ELi0EE3runERSF_, symObjAddr: 0x4E3D8, symBinAddr: 0x100051FE0, symSize: 0x524 }
  - { offsetInCU: 0x1134D0, offset: 0x1134D0, size: 0x8, addend: 0x0, symName: __ZN5Eigen8internal29general_matrix_vector_productIldNS0_22const_blas_data_mapperIdlLi0EEELi0ELb0EdNS2_IdlLi1EEELb0ELi0EE3runEllRKS3_RKS4_Pdld, symObjAddr: 0x58CA0, symBinAddr: 0x10005C8A8, symSize: 0x4D08 }
  - { offsetInCU: 0x114652, offset: 0x114652, size: 0x8, addend: 0x0, symName: __ZN5Eigen8internal13gemm_pack_lhsIdlNS0_22const_blas_data_mapperIdlLi0EEELi6ELi2E19__simd128_float64_tLi0ELb0ELb0EEclEPdRKS3_llll, symObjAddr: 0x6A968, symBinAddr: 0x10006E570, symSize: 0xF6C }
  - { offsetInCU: 0x114BF7, offset: 0x114BF7, size: 0x8, addend: 0x0, symName: __ZN5Eigen8internal11gebp_kernelIddlNS0_16blas_data_mapperIdlLi0ELi0ELi1EEELi6ELi4ELb0ELb0EEclERKS3_PKdS8_llldllll, symObjAddr: 0x6C3E0, symBinAddr: 0x10006FFE8, symSize: 0x8FE0 }
  - { offsetInCU: 0x117AD1, offset: 0x117AD1, size: 0x8, addend: 0x0, symName: __ZN5Eigen8internal21dense_assignment_loopINS0_31generic_dense_assignment_kernelINS0_9evaluatorINS_6MatrixIdLin1ELin1ELi0ELin1ELin1EEEEENS3_INS_13CwiseBinaryOpINS0_18scalar_quotient_opIddEEKNS_7ProductIS5_NS_9TransposeIKS5_EELi0EEEKNS_14CwiseNullaryOpINS0_18scalar_constant_opIdEESC_EEEEEENS0_9assign_opIddEELi0EEELi3ELi0EE3runERSP_, symObjAddr: 0x4BBC0, symBinAddr: 0x10004F7C8, symSize: 0xAC }
  - { offsetInCU: 0x117C1B, offset: 0x117C1B, size: 0x8, addend: 0x0, symName: __ZN5Eigen8internal21dense_assignment_loopINS0_31generic_dense_assignment_kernelINS0_9evaluatorINS_6MatrixIdLin1ELin1ELi0ELin1ELin1EEEEENS3_INS_12CwiseUnaryOpINS0_13scalar_exp_opIdEEKNS_12ArrayWrapperIS5_EEEEEENS0_9assign_opIddEELi0EEELi3ELi0EE3runERSH_, symObjAddr: 0x7AE84, symBinAddr: 0x10007EA8C, symSize: 0xAC }
  - { offsetInCU: 0x117D56, offset: 0x117D56, size: 0x8, addend: 0x0, symName: __ZN5Eigen8internal21dense_assignment_loopINS0_31generic_dense_assignment_kernelINS0_9evaluatorINS_6MatrixIdLin1ELi1ELi0ELin1ELi1EEEEENS3_INS_16PartialReduxExprINS4_IdLin1ELin1ELi0ELin1ELin1EEENS0_10member_sumIddEELi1EEEEENS0_9assign_opIddEELi0EEELi3ELi0EE3runERSF_, symObjAddr: 0x7F474, symBinAddr: 0x10008307C, symSize: 0xAC }
  - { offsetInCU: 0x117DEC, offset: 0x117DEC, size: 0x8, addend: 0x0, symName: __ZNK5Eigen8internal9evaluatorINS_16PartialReduxExprINS_6MatrixIdLin1ELin1ELi0ELin1ELin1EEENS0_10member_sumIddEELi1EEEE6packetILi0E19__simd128_float64_tEET0_l, symObjAddr: 0x7FCA4, symBinAddr: 0x1000838AC, symSize: 0x4E8 }
  - { offsetInCU: 0x1182DF, offset: 0x1182DF, size: 0x8, addend: 0x0, symName: __ZN5Eigen8internal21dense_assignment_loopINS0_41restricted_packet_dense_assignment_kernelINS0_9evaluatorINS_6MatrixIdLin1ELin1ELi0ELin1ELin1EEEEENS3_INS_7ProductIS5_S5_Li1EEEEENS0_9assign_opIddEEEELi4ELi0EE3runERSC_, symObjAddr: 0x87048, symBinAddr: 0x10008AC50, symSize: 0x524 }
  - { offsetInCU: 0x11845E, offset: 0x11845E, size: 0x8, addend: 0x0, symName: __ZN5Eigen8internal29general_matrix_vector_productIldNS0_22const_blas_data_mapperIdlLi1EEELi1ELb0EdNS2_IdlLi0EEELb0ELi0EE3runEllRKS3_RKS4_Pdld, symObjAddr: 0x911E4, symBinAddr: 0x100094DEC, symSize: 0x4A18 }
  - { offsetInCU: 0x1196B7, offset: 0x1196B7, size: 0x8, addend: 0x0, symName: __ZN5Eigen8internal21dense_assignment_loopINS0_31generic_dense_assignment_kernelINS0_9evaluatorINS_6MatrixIdLin1ELin1ELi0ELin1ELin1EEEEENS3_INS_13CwiseBinaryOpINS0_13scalar_max_opIddLi0EEEKNS_12ArrayWrapperIS5_EEKNS_14CwiseNullaryOpINS0_18scalar_constant_opIdEENS_5ArrayIdLin1ELin1ELi0ELin1ELin1EEEEEEEEENS0_9assign_opIddEELi0EEELi3ELi0EE3runERSO_, symObjAddr: 0x9ED6C, symBinAddr: 0x1000A2974, symSize: 0xAC }
  - { offsetInCU: 0x119A7C, offset: 0x119A7C, size: 0x8, addend: 0x0, symName: __ZN5Eigen8internal21dense_assignment_loopINS0_31generic_dense_assignment_kernelINS0_9evaluatorINS_5ArrayIdLi1ELin1ELi1ELi1ELin1EEEEENS3_INS_9TransposeIKNS_12CwiseUnaryOpINS0_14scalar_sqrt_opIdEEKNS_12ArrayWrapperINS_6MatrixIdLin1ELi1ELi0ELin1ELi1EEEEEEEEEEENS0_9assign_opIddEELi0EEELi3ELi0EE3runERSM_, symObjAddr: 0xAD044, symBinAddr: 0x1000B0C4C, symSize: 0xAC }
  - { offsetInCU: 0x11A03C, offset: 0x11A03C, size: 0x8, addend: 0x0, symName: __ZN5Eigen8internal21dense_assignment_loopINS0_31generic_dense_assignment_kernelINS0_9evaluatorINS_6MatrixIdLin1ELin1ELi0ELin1ELin1EEEEENS3_INS_13CwiseBinaryOpINS0_13scalar_sum_opIddEEKNS7_INS0_17scalar_product_opIddEEKNS_12ArrayWrapperIS5_EESE_EESE_EEEENS0_9assign_opIddEELi0EEELi3ELi0EE3runERSL_, symObjAddr: 0xB1AD0, symBinAddr: 0x1000B56D8, symSize: 0xAC }
  - { offsetInCU: 0x11A9BC, offset: 0x11A9BC, size: 0x8, addend: 0x0, symName: __ZN5Eigen8internal21dense_assignment_loopINS0_31generic_dense_assignment_kernelINS0_9evaluatorINS_6MatrixIdLin1ELin1ELi0ELin1ELin1EEEEENS3_INS_13CwiseBinaryOpINS0_18scalar_quotient_opIddEEKNS7_INS0_20scalar_difference_opIddEEKNS_12ArrayWrapperIS5_EEKNS_14CwiseNullaryOpINS0_18scalar_constant_opIdEEKNS_5ArrayIdLin1ELin1ELi0ELin1ELin1EEEEEEESM_EEEENS0_9assign_opIddEELi0EEELi3ELi0EE3runERST_, symObjAddr: 0xB7D68, symBinAddr: 0x1000BB970, symSize: 0xAC }
  - { offsetInCU: 0x11AA84, offset: 0x11AA84, size: 0x8, addend: 0x0, symName: __ZN5Eigen8internal21dense_assignment_loopINS0_31generic_dense_assignment_kernelINS0_9evaluatorINS_6MatrixIdLin1ELin1ELi0ELin1ELin1EEEEES6_NS0_9assign_opIddEELi0EEELi3ELi0EE3runERS9_, symObjAddr: 0xBB3F8, symBinAddr: 0x1000BF000, symSize: 0xAC }
  - { offsetInCU: 0x11AD3B, offset: 0x11AD3B, size: 0x8, addend: 0x0, symName: __ZN5Eigen8internal21dense_assignment_loopINS0_31generic_dense_assignment_kernelINS0_9evaluatorINS_6MatrixIdLin1ELin1ELi0ELin1ELin1EEEEENS3_INS_13CwiseBinaryOpINS0_20scalar_difference_opIddEEKS5_SA_EEEENS0_9assign_opIddEELi0EEELi3ELi0EE3runERSF_, symObjAddr: 0xBE8F4, symBinAddr: 0x1000C24FC, symSize: 0xAC }
  - { offsetInCU: 0x11B1E6, offset: 0x11B1E6, size: 0x8, addend: 0x0, symName: __ZN5Eigen8internal21dense_assignment_loopINS0_31generic_dense_assignment_kernelINS0_9evaluatorINS_6MatrixIdLin1ELin1ELi0ELin1ELin1EEEEENS3_INS_13CwiseBinaryOpINS0_18scalar_quotient_opIddEEKNS7_INS0_17scalar_product_opIddEEKNS_14CwiseNullaryOpINS0_18scalar_constant_opIdEEKS5_EESF_EESH_EEEENS0_9assign_opIddEELi0EEELi3ELi0EE3runERSO_, symObjAddr: 0xC1F5C, symBinAddr: 0x1000C5B64, symSize: 0xAC }
  - { offsetInCU: 0x11B281, offset: 0x11B281, size: 0x8, addend: 0x0, symName: __ZN5Eigen8internal13gemm_pack_lhsIdlNS0_22const_blas_data_mapperIdlLi1EEELi6ELi2E19__simd128_float64_tLi1ELb0ELb0EEclEPdRKS3_llll, symObjAddr: 0xD5F80, symBinAddr: 0x1000D9B88, symSize: 0x1170 }
  - { offsetInCU: 0x11BDB9, offset: 0x11BDB9, size: 0x8, addend: 0x0, symName: __ZN5Eigen8internal21dense_assignment_loopINS0_31generic_dense_assignment_kernelINS0_9evaluatorINS_6MatrixIdLin1ELin1ELi0ELin1ELin1EEEEENS3_INS_13CwiseBinaryOpINS0_18scalar_quotient_opIddEEKNS_12ArrayWrapperIKNS_7ProductINS_9TransposeIS5_EES5_Li0EEEEEKNS_14CwiseNullaryOpINS0_18scalar_constant_opIdEEKNS_5ArrayIdLin1ELin1ELi0ELin1ELin1EEEEEEEEENS0_9assign_opIddEELi0EEELi3ELi0EE3runERSU_, symObjAddr: 0xC4BB4, symBinAddr: 0x1000C87BC, symSize: 0xAC }
  - { offsetInCU: 0x11C273, offset: 0x11C273, size: 0x8, addend: 0x0, symName: __ZN5Eigen8internal21dense_assignment_loopINS0_31generic_dense_assignment_kernelINS0_9evaluatorINS_6MatrixIdLin1ELin1ELi0ELin1ELin1EEEEENS3_INS_13CwiseBinaryOpINS0_18scalar_quotient_opIddEEKS5_KNS_14CwiseNullaryOpINS0_18scalar_constant_opIdEESA_EEEEEENS0_9assign_opIddEELi0EEELi3ELi0EE3runERSK_, symObjAddr: 0xDD370, symBinAddr: 0x1000E0F78, symSize: 0xAC }
  - { offsetInCU: 0x11C552, offset: 0x11C552, size: 0x8, addend: 0x0, symName: __ZN5Eigen8internal21dense_assignment_loopINS0_31generic_dense_assignment_kernelINS0_9evaluatorINS_6MatrixIdLin1ELi1ELi0ELin1ELi1EEEEENS3_INS_13CwiseBinaryOpINS0_18scalar_quotient_opIddEEKS5_KNS_14CwiseNullaryOpINS0_18scalar_constant_opIdEESA_EEEEEENS0_9assign_opIddEELi0EEELi3ELi0EE3runERSK_, symObjAddr: 0xDEF74, symBinAddr: 0x1000E2B7C, symSize: 0xAC }
  - { offsetInCU: 0x11C62E, offset: 0x11C62E, size: 0x8, addend: 0x0, symName: __ZN5Eigen8internal21dense_assignment_loopINS0_31generic_dense_assignment_kernelINS0_9evaluatorINS_6MatrixIdLin1ELin1ELi0ELin1ELin1EEEEENS3_INS_13CwiseBinaryOpINS0_17scalar_product_opIddEEKNS_14CwiseNullaryOpINS0_18scalar_constant_opIdEEKS5_EESD_EEEENS0_13sub_assign_opIddEELi0EEELi3ELi0EE3runERSK_, symObjAddr: 0xE0808, symBinAddr: 0x1000E4410, symSize: 0xAC }
  - { offsetInCU: 0x11C8E5, offset: 0x11C8E5, size: 0x8, addend: 0x0, symName: __ZN5Eigen8internal21dense_assignment_loopINS0_31generic_dense_assignment_kernelINS0_9evaluatorINS_6MatrixIdLin1ELi1ELi0ELin1ELi1EEEEENS3_INS_13CwiseBinaryOpINS0_17scalar_product_opIddEEKNS_14CwiseNullaryOpINS0_18scalar_constant_opIdEEKS5_EESD_EEEENS0_13sub_assign_opIddEELi0EEELi3ELi0EE3runERSK_, symObjAddr: 0xE1C78, symBinAddr: 0x1000E5880, symSize: 0xAC }
  - { offsetInCU: 0x11D04B, offset: 0x11D04B, size: 0x8, addend: 0x0, symName: __ZNSt3__16vectorI23TransformerEncoderLayerNS_9allocatorIS1_EEE26__swap_out_circular_bufferERNS_14__split_bufferIS1_RS3_EE, symObjAddr: 0x14090, symBinAddr: 0x100017C98, symSize: 0x56C }
  - { offsetInCU: 0x11D0E1, offset: 0x11D0E1, size: 0x8, addend: 0x0, symName: __ZNSt3__16vectorIN5Eigen6MatrixIdLin1ELin1ELi0ELin1ELin1EEENS_9allocatorIS3_EEE26__swap_out_circular_bufferERNS_14__split_bufferIS3_RS5_EE, symObjAddr: 0x1B87C, symBinAddr: 0x10001F484, symSize: 0x56C }
  - { offsetInCU: 0x11D76D, offset: 0x11D76D, size: 0x8, addend: 0x0, symName: __ZNSt3__16vectorI23TransformerDecoderLayerNS_9allocatorIS1_EEE26__swap_out_circular_bufferERNS_14__split_bufferIS1_RS3_EE, symObjAddr: 0x26100, symBinAddr: 0x100029D08, symSize: 0x56C }
  - { offsetInCU: 0x11DBF3, offset: 0x11DBF3, size: 0x8, addend: 0x0, symName: __ZNSt3__16vectorINS_10unique_ptrIN18MultiHeadAttention10ThreadDataENS_14default_deleteIS3_EEEENS_9allocatorIS6_EEE26__swap_out_circular_bufferERNS_14__split_bufferIS6_RS8_EE, symObjAddr: 0x35634, symBinAddr: 0x10003923C, symSize: 0x56C }
  - { offsetInCU: 0x11DEF4, offset: 0x11DEF4, size: 0x8, addend: 0x0, symName: __Z3powB8ue170006IifENSt3__19enable_ifIXaasr3std13is_arithmeticIT_EE5valuesr3std13is_arithmeticIT0_EE5valueENS0_9__promoteIS2_S3_vEEE4type4typeES2_S3_, symObjAddr: 0xAE8, symBinAddr: 0x1000046F0, symSize: 0x3C }
  - { offsetInCU: 0x11E596, offset: 0x11E596, size: 0x8, addend: 0x0, symName: __ZN5Eigen8internal19gemv_dense_selectorILi2ELi0ELb1EE3runINS_9TransposeIKNS4_IKNS_6MatrixIdLin1ELin1ELi0ELin1ELin1EEEEEEENS4_IKNS_5BlockIS7_Li1ELin1ELb0EEEEENS4_INSB_IS6_Li1ELin1ELb0EEEEEEEvRKT_RKT0_RT1_RKNSN_6ScalarE, symObjAddr: 0x61108, symBinAddr: 0x100064D10, symSize: 0xC18 }
  - { offsetInCU: 0x11F560, offset: 0x11F560, size: 0x8, addend: 0x0, symName: __ZN5Eigen8internal19gemv_dense_selectorILi2ELi1ELb1EE3runINS_9TransposeIKNS_6MatrixIdLin1ELin1ELi0ELin1ELin1EEEEENS4_IKNS_5BlockIS7_Li1ELin1ELb0EEEEENS4_INS9_IS6_Li1ELin1ELb0EEEEEEEvRKT_RKT0_RT1_RKNSL_6ScalarE, symObjAddr: 0x905C8, symBinAddr: 0x1000941D0, symSize: 0xB54 }
  - { offsetInCU: 0x12151F, offset: 0x12151F, size: 0x8, addend: 0x0, symName: __ZN5Eigen8internal19gemv_dense_selectorILi2ELi1ELb1EE3runINS_9TransposeINS_6MatrixIdLin1ELin1ELi0ELin1ELin1EEEEENS_5BlockIKS6_Lin1ELi1ELb1EEENS8_IS6_Lin1ELi1ELb1EEEEEvRKT_RKT0_RT1_RKNSI_6ScalarE, symObjAddr: 0xCBB2C, symBinAddr: 0x1000CF734, symSize: 0x9F0 }
  - { offsetInCU: 0x1219B0, offset: 0x1219B0, size: 0x8, addend: 0x0, symName: __ZN5Eigen8internal19gemv_dense_selectorILi2ELi1ELb1EE3runINS_9TransposeIKNS_6MatrixIdLin1ELin1ELi0ELin1ELin1EEEEENS4_IKNS_5BlockIKNS4_IS6_EELi1ELin1ELb1EEEEENS4_INS9_IS6_Li1ELin1ELb0EEEEEEEvRKT_RKT0_RT1_RKNSN_6ScalarE, symObjAddr: 0xD2DB4, symBinAddr: 0x1000D69BC, symSize: 0xA80 }
  - { offsetInCU: 0x1241B7, offset: 0x1241B7, size: 0x8, addend: 0x0, symName: __ZN5Eigen8symbolic10SymbolExprINS_8internal17symbolic_last_tagEEC1Ev, symObjAddr: 0x0, symBinAddr: 0x100003C08, symSize: 0x2C }
  - { offsetInCU: 0x1241E1, offset: 0x1241E1, size: 0x8, addend: 0x0, symName: __ZNK5Eigen8symbolic8BaseExprINS0_10SymbolExprINS_8internal17symbolic_last_tagEEEEplILi1EEENS0_7AddExprIS5_NS0_9ValueExprINS3_8FixedIntIXT_EEEEEEESB_, symObjAddr: 0x2C, symBinAddr: 0x100003C34, symSize: 0x2C4 }
  - { offsetInCU: 0x12421D, offset: 0x12421D, size: 0x8, addend: 0x0, symName: __ZNK5Eigen8internal8FixedIntILi1EEclEv, symObjAddr: 0x2F0, symBinAddr: 0x100003EF8, symSize: 0x10 }
  - { offsetInCU: 0x124243, offset: 0x124243, size: 0x8, addend: 0x0, symName: __ZN5Eigen8internal5all_tC1Ev, symObjAddr: 0x300, symBinAddr: 0x100003F08, symSize: 0x2C }
  - { offsetInCU: 0x12426C, offset: 0x12426C, size: 0x8, addend: 0x0, symName: __Z19positional_encodingii, symObjAddr: 0x32C, symBinAddr: 0x100003F34, symSize: 0x5D8 }
  - { offsetInCU: 0x1242EB, offset: 0x1242EB, size: 0x8, addend: 0x0, symName: __ZNSt3__113basic_ostreamIcNS_11char_traitsIcEEElsB8ue170006EPFRS3_S4_E, symObjAddr: 0x94C, symBinAddr: 0x100004554, symSize: 0x2C }
  - { offsetInCU: 0x12431F, offset: 0x12431F, size: 0x8, addend: 0x0, symName: __ZNSt3__16vectorIfNS_9allocatorIfEEEC1Em, symObjAddr: 0xA4C, symBinAddr: 0x100004654, symSize: 0x34 }
  - { offsetInCU: 0x12435A, offset: 0x12435A, size: 0x8, addend: 0x0, symName: __ZNSt3__16vectorINS0_IfNS_9allocatorIfEEEENS1_IS3_EEEC1EmRKS3_, symObjAddr: 0xA80, symBinAddr: 0x100004688, symSize: 0x3C }
  - { offsetInCU: 0x1243A4, offset: 0x1243A4, size: 0x8, addend: 0x0, symName: __ZNSt3__16vectorIfNS_9allocatorIfEEED1B8ue170006Ev, symObjAddr: 0xABC, symBinAddr: 0x1000046C4, symSize: 0x2C }
  - { offsetInCU: 0x1243CE, offset: 0x1243CE, size: 0x8, addend: 0x0, symName: __ZNSt3__16vectorINS0_IfNS_9allocatorIfEEEENS1_IS3_EEEixB8ue170006Em, symObjAddr: 0xB24, symBinAddr: 0x10000472C, symSize: 0x74 }
  - { offsetInCU: 0x124405, offset: 0x124405, size: 0x8, addend: 0x0, symName: __ZNSt3__16vectorIfNS_9allocatorIfEEEixB8ue170006Em, symObjAddr: 0xB98, symBinAddr: 0x1000047A0, symSize: 0x6C }
  - { offsetInCU: 0x12443C, offset: 0x12443C, size: 0x8, addend: 0x0, symName: __ZNSt3__16vectorINS0_IfNS_9allocatorIfEEEENS1_IS3_EEED1B8ue170006Ev, symObjAddr: 0xC04, symBinAddr: 0x10000480C, symSize: 0x2C }
  - { offsetInCU: 0x124465, offset: 0x124465, size: 0x8, addend: 0x0, symName: __Z28scaled_dot_product_attentionRKN5Eigen6MatrixIdLin1ELin1ELi0ELin1ELin1EEES3_S3_d, symObjAddr: 0xC30, symBinAddr: 0x100004838, symSize: 0xB00 }
  - { offsetInCU: 0x12451B, offset: 0x12451B, size: 0x8, addend: 0x0, symName: __ZNK5Eigen10MatrixBaseINS_6MatrixIdLin1ELin1ELi0ELin1ELin1EEEEmlINS_9TransposeIKS2_EEEEKNS_7ProductIS2_T_Li0EEERKNS0_IS9_EE, symObjAddr: 0x1730, symBinAddr: 0x100005338, symSize: 0x224 }
  - { offsetInCU: 0x12455D, offset: 0x12455D, size: 0x8, addend: 0x0, symName: __ZNK5Eigen9DenseBaseINS_6MatrixIdLin1ELin1ELi0ELin1ELin1EEEE9transposeEv, symObjAddr: 0x1954, symBinAddr: 0x10000555C, symSize: 0x204 }
  - { offsetInCU: 0x124586, offset: 0x124586, size: 0x8, addend: 0x0, symName: __ZNK5Eigen10MatrixBaseINS_7ProductINS_6MatrixIdLin1ELin1ELi0ELin1ELin1EEENS_9TransposeIKS3_EELi0EEEEdvIdEEKNS_13CwiseBinaryOpINS_8internal18scalar_quotient_opIdNSB_18promote_scalar_argIdT_Xsr5Eigen8internal14has_ReturnTypeINS_20ScalarBinaryOpTraitsIdSE_NSC_IdSE_EEEEEE5valueEE4typeEEEKS7_KNSB_19plain_constant_typeIS7_SJ_E4typeEEERKSE_, symObjAddr: 0x1B58, symBinAddr: 0x100005760, symSize: 0x2FC }
  - { offsetInCU: 0x1245CA, offset: 0x1245CA, size: 0x8, addend: 0x0, symName: __ZN5Eigen6MatrixIdLin1ELin1ELi0ELin1ELin1EEC1INS_13CwiseBinaryOpINS_8internal18scalar_quotient_opIddEEKNS_7ProductIS1_NS_9TransposeIKS1_EELi0EEEKNS_14CwiseNullaryOpINS4_18scalar_constant_opIdEES9_EEEEEERKNS_9EigenBaseIT_EE, symObjAddr: 0x1E54, symBinAddr: 0x100005A5C, symSize: 0x34 }
  - { offsetInCU: 0x12460C, offset: 0x12460C, size: 0x8, addend: 0x0, symName: __ZN5Eigen10MatrixBaseINS_6MatrixIdLin1ELin1ELi0ELin1ELin1EEEE5arrayEv, symObjAddr: 0x1E88, symBinAddr: 0x100005A90, symSize: 0x204 }
  - { offsetInCU: 0x124633, offset: 0x124633, size: 0x8, addend: 0x0, symName: __ZNK5Eigen9ArrayBaseINS_12ArrayWrapperINS_6MatrixIdLin1ELin1ELi0ELin1ELin1EEEEEE3expEv, symObjAddr: 0x208C, symBinAddr: 0x100005C94, symSize: 0x200 }
  - { offsetInCU: 0x12465F, offset: 0x12465F, size: 0x8, addend: 0x0, symName: __ZN5Eigen6MatrixIdLin1ELin1ELi0ELin1ELin1EEC1INS_12CwiseUnaryOpINS_8internal13scalar_exp_opIdEEKNS_12ArrayWrapperIS1_EEEEEERKNS_9EigenBaseIT_EE, symObjAddr: 0x228C, symBinAddr: 0x100005E94, symSize: 0x34 }
  - { offsetInCU: 0x1246A1, offset: 0x1246A1, size: 0x8, addend: 0x0, symName: __ZN5Eigen9DenseBaseINS_6MatrixIdLin1ELin1ELi0ELin1ELin1EEEE7rowwiseEv, symObjAddr: 0x22C0, symBinAddr: 0x100005EC8, symSize: 0x204 }
  - { offsetInCU: 0x1246CB, offset: 0x1246CB, size: 0x8, addend: 0x0, symName: __ZNK5Eigen12VectorwiseOpINS_6MatrixIdLin1ELin1ELi0ELin1ELin1EEELi1EE3sumEv, symObjAddr: 0x24C4, symBinAddr: 0x1000060CC, symSize: 0x200 }
  - { offsetInCU: 0x1246F7, offset: 0x1246F7, size: 0x8, addend: 0x0, symName: __ZN5Eigen6MatrixIdLin1ELi1ELi0ELin1ELi1EEC1INS_16PartialReduxExprINS0_IdLin1ELin1ELi0ELin1ELin1EEENS_8internal10member_sumIddEELi1EEEEERKNS_9EigenBaseIT_EE, symObjAddr: 0x26C4, symBinAddr: 0x1000062CC, symSize: 0x34 }
  - { offsetInCU: 0x124739, offset: 0x124739, size: 0x8, addend: 0x0, symName: __ZN5Eigen9DenseBaseINS_12ArrayWrapperINS_6MatrixIdLin1ELin1ELi0ELin1ELin1EEEEEE7colwiseEv, symObjAddr: 0x26F8, symBinAddr: 0x100006300, symSize: 0x204 }
  - { offsetInCU: 0x124763, offset: 0x124763, size: 0x8, addend: 0x0, symName: __ZNK5Eigen12VectorwiseOpINS_12ArrayWrapperINS_6MatrixIdLin1ELin1ELi0ELin1ELin1EEEEELi0EEdvINS1_INS2_IdLin1ELi1ELi0ELin1ELi1EEEEEEENS_13CwiseBinaryOpINS_8internal18scalar_quotient_opIddEEKS4_KNS5_12ExtendedTypeIT_E4TypeEEERKNS_9DenseBaseISF_EE, symObjAddr: 0x28FC, symBinAddr: 0x100006504, symSize: 0x23C }
  - { offsetInCU: 0x1247A3, offset: 0x1247A3, size: 0x8, addend: 0x0, symName: __ZN5Eigen10MatrixBaseINS_6MatrixIdLin1ELi1ELi0ELin1ELi1EEEE5arrayEv, symObjAddr: 0x2B38, symBinAddr: 0x100006740, symSize: 0x204 }
  - { offsetInCU: 0x1247CF, offset: 0x1247CF, size: 0x8, addend: 0x0, symName: __ZN5Eigen6MatrixIdLin1ELin1ELi0ELin1ELin1EEC1INS_13CwiseBinaryOpINS_8internal18scalar_quotient_opIddEEKNS_12ArrayWrapperIS1_EEKNS_9ReplicateINS7_INS0_IdLin1ELi1ELi0ELin1ELi1EEEEELi1ELin1EEEEEEERKNS_9EigenBaseIT_EE, symObjAddr: 0x2D3C, symBinAddr: 0x100006944, symSize: 0x34 }
  - { offsetInCU: 0x124811, offset: 0x124811, size: 0x8, addend: 0x0, symName: __ZNK5Eigen10MatrixBaseINS_6MatrixIdLin1ELin1ELi0ELin1ELin1EEEEmlIS2_EEKNS_7ProductIS2_T_Li0EEERKNS0_IS6_EE, symObjAddr: 0x2D70, symBinAddr: 0x100006978, symSize: 0x224 }
  - { offsetInCU: 0x124858, offset: 0x124858, size: 0x8, addend: 0x0, symName: __ZN5Eigen6MatrixIdLin1ELin1ELi0ELin1ELin1EEC1INS_7ProductIS1_S1_Li0EEEEERKNS_9EigenBaseIT_EE, symObjAddr: 0x2F94, symBinAddr: 0x100006B9C, symSize: 0x34 }
  - { offsetInCU: 0x12489A, offset: 0x12489A, size: 0x8, addend: 0x0, symName: __ZN5Eigen6MatrixIdLin1ELin1ELi0ELin1ELin1EED1Ev, symObjAddr: 0x2FC8, symBinAddr: 0x100006BD0, symSize: 0x2C }
  - { offsetInCU: 0x1248C6, offset: 0x1248C6, size: 0x8, addend: 0x0, symName: __ZN5Eigen6MatrixIdLin1ELi1ELi0ELin1ELi1EED1Ev, symObjAddr: 0x2FF4, symBinAddr: 0x100006BFC, symSize: 0x2C }
  - { offsetInCU: 0x1248F1, offset: 0x1248F1, size: 0x8, addend: 0x0, symName: __Z12feed_forwardRKN5Eigen6MatrixIdLin1ELin1ELi0ELin1ELin1EEES3_S3_RKNS0_IdLin1ELi1ELi0ELin1ELi1EEES6_, symObjAddr: 0x3020, symBinAddr: 0x100006C28, symSize: 0x8E4 }
  - { offsetInCU: 0x12497D, offset: 0x12497D, size: 0x8, addend: 0x0, symName: __ZNK5Eigen9DenseBaseINS_7ProductINS_6MatrixIdLin1ELin1ELi0ELin1ELin1EEES3_Li0EEEE7rowwiseEv, symObjAddr: 0x3904, symBinAddr: 0x10000750C, symSize: 0x210 }
  - { offsetInCU: 0x1249A4, offset: 0x1249A4, size: 0x8, addend: 0x0, symName: __ZNK5Eigen12VectorwiseOpIKNS_7ProductINS_6MatrixIdLin1ELin1ELi0ELin1ELin1EEES3_Li0EEELi1EEplINS_9TransposeIKNS2_IdLin1ELi1ELi0ELin1ELi1EEEEEEENS_13CwiseBinaryOpINS_8internal13scalar_sum_opIdNT_6ScalarEEES5_KNS6_12ExtendedTypeISF_E4TypeEEERKNS_9DenseBaseISF_EE, symObjAddr: 0x3B14, symBinAddr: 0x10000771C, symSize: 0x23C }
  - { offsetInCU: 0x1249E4, offset: 0x1249E4, size: 0x8, addend: 0x0, symName: __ZNK5Eigen9DenseBaseINS_6MatrixIdLin1ELi1ELi0ELin1ELi1EEEE9transposeEv, symObjAddr: 0x3D50, symBinAddr: 0x100007958, symSize: 0x204 }
  - { offsetInCU: 0x124A12, offset: 0x124A12, size: 0x8, addend: 0x0, symName: __ZN5Eigen6MatrixIdLin1ELin1ELi0ELin1ELin1EEC1INS_13CwiseBinaryOpINS_8internal13scalar_sum_opIddEEKNS_7ProductIS1_S1_Li0EEEKNS_9ReplicateINS_9TransposeIKNS0_IdLin1ELi1ELi0ELin1ELi1EEEEELin1ELi1EEEEEEERKNS_9EigenBaseIT_EE, symObjAddr: 0x3F54, symBinAddr: 0x100007B5C, symSize: 0x34 }
  - { offsetInCU: 0x124A54, offset: 0x124A54, size: 0x8, addend: 0x0, symName: __ZNK5Eigen9ArrayBaseINS_12ArrayWrapperINS_6MatrixIdLin1ELin1ELi0ELin1ELin1EEEEEE3maxERKd, symObjAddr: 0x3F88, symBinAddr: 0x100007B90, symSize: 0x24C }
  - { offsetInCU: 0x124A8A, offset: 0x124A8A, size: 0x8, addend: 0x0, symName: __ZN5Eigen6MatrixIdLin1ELin1ELi0ELin1ELin1EEaSINS_13CwiseBinaryOpINS_8internal13scalar_max_opIddLi0EEEKNS_12ArrayWrapperIS1_EEKNS_14CwiseNullaryOpINS4_18scalar_constant_opIdEENS_5ArrayIdLin1ELin1ELi0ELin1ELin1EEEEEEEEERS1_RKNS_9DenseBaseIT_EE, symObjAddr: 0x41D4, symBinAddr: 0x100007DDC, symSize: 0x2C }
  - { offsetInCU: 0x124AC6, offset: 0x124AC6, size: 0x8, addend: 0x0, symName: __Z10layer_normRKN5Eigen6MatrixIdLin1ELin1ELi0ELin1ELin1EEERKNS0_IdLin1ELi1ELi0ELin1ELi1EEES6_, symObjAddr: 0x4200, symBinAddr: 0x100007E08, symSize: 0x1264 }
  - { offsetInCU: 0x124B80, offset: 0x124B80, size: 0x8, addend: 0x0, symName: __ZNK5Eigen9DenseBaseINS_6MatrixIdLin1ELin1ELi0ELin1ELin1EEEE7colwiseEv, symObjAddr: 0x5464, symBinAddr: 0x10000906C, symSize: 0x204 }
  - { offsetInCU: 0x124BA7, offset: 0x124BA7, size: 0x8, addend: 0x0, symName: __ZNK5Eigen12VectorwiseOpIKNS_6MatrixIdLin1ELin1ELi0ELin1ELin1EEELi0EE4meanEv, symObjAddr: 0x5668, symBinAddr: 0x100009270, symSize: 0x2B0 }
  - { offsetInCU: 0x124BD3, offset: 0x124BD3, size: 0x8, addend: 0x0, symName: __ZN5Eigen6MatrixIdLin1ELi1ELi0ELin1ELi1EEC1INS_13CwiseBinaryOpINS_8internal18scalar_quotient_opIddEEKNS_16PartialReduxExprIKNS0_IdLin1ELin1ELi0ELin1ELin1EEENS4_10member_sumIddEELi0EEEKNS_14CwiseNullaryOpINS4_18scalar_constant_opIdEEKNS0_IdLi1ELin1ELi1ELi1ELin1EEEEEEEEERKNS_9EigenBaseIT_EE, symObjAddr: 0x5918, symBinAddr: 0x100009520, symSize: 0x34 }
  - { offsetInCU: 0x124C15, offset: 0x124C15, size: 0x8, addend: 0x0, symName: __ZNK5Eigen9DenseBaseINS_6MatrixIdLin1ELin1ELi0ELin1ELin1EEEE7rowwiseEv, symObjAddr: 0x594C, symBinAddr: 0x100009554, symSize: 0x204 }
  - { offsetInCU: 0x124C3C, offset: 0x124C3C, size: 0x8, addend: 0x0, symName: __ZNK5Eigen12VectorwiseOpIKNS_6MatrixIdLin1ELin1ELi0ELin1ELin1EEELi1EEmiINS_9TransposeINS1_IdLin1ELi1ELi0ELin1ELi1EEEEEEENS_13CwiseBinaryOpINS_8internal20scalar_difference_opIdNT_6ScalarEEES3_KNS4_12ExtendedTypeISC_E4TypeEEERKNS_9DenseBaseISC_EE, symObjAddr: 0x5B50, symBinAddr: 0x100009758, symSize: 0x274 }
  - { offsetInCU: 0x124C7C, offset: 0x124C7C, size: 0x8, addend: 0x0, symName: __ZN5Eigen9DenseBaseINS_6MatrixIdLin1ELi1ELi0ELin1ELi1EEEE9transposeEv, symObjAddr: 0x5DC4, symBinAddr: 0x1000099CC, symSize: 0x204 }
  - { offsetInCU: 0x124CA5, offset: 0x124CA5, size: 0x8, addend: 0x0, symName: __ZN5Eigen10MatrixBaseINS_13CwiseBinaryOpINS_8internal20scalar_difference_opIddEEKNS_6MatrixIdLin1ELin1ELi0ELin1ELin1EEEKNS_9ReplicateINS_9TransposeINS5_IdLin1ELi1ELi0ELin1ELi1EEEEELin1ELi1EEEEEE5arrayEv, symObjAddr: 0x5FC8, symBinAddr: 0x100009BD0, symSize: 0x38 }
  - { offsetInCU: 0x124CCB, offset: 0x124CCB, size: 0x8, addend: 0x0, symName: __ZNK5Eigen9ArrayBaseINS_12ArrayWrapperINS_13CwiseBinaryOpINS_8internal20scalar_difference_opIddEEKNS_6MatrixIdLin1ELin1ELi0ELin1ELin1EEEKNS_9ReplicateINS_9TransposeINS6_IdLin1ELi1ELi0ELin1ELi1EEEEELin1ELi1EEEEEEEE6squareEv, symObjAddr: 0x6000, symBinAddr: 0x100009C08, symSize: 0x200 }
  - { offsetInCU: 0x124CF2, offset: 0x124CF2, size: 0x8, addend: 0x0, symName: __ZNK5Eigen9DenseBaseINS_12CwiseUnaryOpINS_8internal16scalar_square_opIdEEKNS_12ArrayWrapperINS_13CwiseBinaryOpINS2_20scalar_difference_opIddEEKNS_6MatrixIdLin1ELin1ELi0ELin1ELin1EEEKNS_9ReplicateINS_9TransposeINS9_IdLin1ELi1ELi0ELin1ELi1EEEEELin1ELi1EEEEEEEEEE7colwiseEv, symObjAddr: 0x6200, symBinAddr: 0x100009E08, symSize: 0x38 }
  - { offsetInCU: 0x124D18, offset: 0x124D18, size: 0x8, addend: 0x0, symName: __ZNK5Eigen12VectorwiseOpIKNS_12CwiseUnaryOpINS_8internal16scalar_square_opIdEEKNS_12ArrayWrapperINS_13CwiseBinaryOpINS2_20scalar_difference_opIddEEKNS_6MatrixIdLin1ELin1ELi0ELin1ELin1EEEKNS_9ReplicateINS_9TransposeINS9_IdLin1ELi1ELi0ELin1ELi1EEEEELin1ELi1EEEEEEEEELi0EE4meanEv, symObjAddr: 0x6238, symBinAddr: 0x100009E40, symSize: 0x2BC }
  - { offsetInCU: 0x124D3F, offset: 0x124D3F, size: 0x8, addend: 0x0, symName: __ZNK5Eigen9ArrayBaseINS_13CwiseBinaryOpINS_8internal18scalar_quotient_opIddEEKNS_16PartialReduxExprIKNS_12CwiseUnaryOpINS2_16scalar_square_opIdEEKNS_12ArrayWrapperINS1_INS2_20scalar_difference_opIddEEKNS_6MatrixIdLin1ELin1ELi0ELin1ELin1EEEKNS_9ReplicateINS_9TransposeINSC_IdLin1ELi1ELi0ELin1ELi1EEEEELin1ELi1EEEEEEEEENS2_10member_sumIddEELi0EEEKNS_14CwiseNullaryOpINS2_18scalar_constant_opIdEEKNS_5ArrayIdLi1ELin1ELi1ELi1ELin1EEEEEEEE6matrixEv, symObjAddr: 0x64F4, symBinAddr: 0x10000A0FC, symSize: 0x38 }
  - { offsetInCU: 0x124D6A, offset: 0x124D6A, size: 0x8, addend: 0x0, symName: __ZN5Eigen6MatrixIdLin1ELi1ELi0ELin1ELi1EEC1INS_13MatrixWrapperIKNS_13CwiseBinaryOpINS_8internal18scalar_quotient_opIddEEKNS_16PartialReduxExprIKNS_12CwiseUnaryOpINS5_16scalar_square_opIdEEKNS_12ArrayWrapperINS4_INS5_20scalar_difference_opIddEEKNS0_IdLin1ELin1ELi0ELin1ELin1EEEKNS_9ReplicateINS_9TransposeIS1_EELin1ELi1EEEEEEEEENS5_10member_sumIddEELi0EEEKNS_14CwiseNullaryOpINS5_18scalar_constant_opIdEEKNS_5ArrayIdLi1ELin1ELi1ELi1ELin1EEEEEEEEEEERKNS_9EigenBaseIT_EE, symObjAddr: 0x652C, symBinAddr: 0x10000A134, symSize: 0x34 }
  - { offsetInCU: 0x124DAC, offset: 0x124DAC, size: 0x8, addend: 0x0, symName: __ZN5Eigen9DenseBaseINS_12ArrayWrapperINS_13CwiseBinaryOpINS_8internal20scalar_difference_opIddEEKNS_6MatrixIdLin1ELin1ELi0ELin1ELin1EEEKNS_9ReplicateINS_9TransposeINS6_IdLin1ELi1ELi0ELin1ELi1EEEEELin1ELi1EEEEEEEE7rowwiseEv, symObjAddr: 0x6560, symBinAddr: 0x10000A168, symSize: 0x38 }
  - { offsetInCU: 0x124DD5, offset: 0x124DD5, size: 0x8, addend: 0x0, symName: __ZNK5Eigen12VectorwiseOpINS_12ArrayWrapperINS_13CwiseBinaryOpINS_8internal20scalar_difference_opIddEEKNS_6MatrixIdLin1ELin1ELi0ELin1ELin1EEEKNS_9ReplicateINS_9TransposeINS6_IdLin1ELi1ELi0ELin1ELi1EEEEELin1ELi1EEEEEEELi1EEdvINSA_IKNS_12CwiseUnaryOpINS3_14scalar_sqrt_opIdEEKNS1_ISB_EEEEEEEENS2_INS3_18scalar_quotient_opIddEEKSG_KNSH_12ExtendedTypeIT_E4TypeEEERKNS_9DenseBaseISV_EE, symObjAddr: 0x6598, symBinAddr: 0x10000A1A0, symSize: 0x228 }
  - { offsetInCU: 0x124E15, offset: 0x124E15, size: 0x8, addend: 0x0, symName: __ZNK5Eigen9ArrayBaseINS_12ArrayWrapperINS_6MatrixIdLin1ELi1ELi0ELin1ELi1EEEEEE4sqrtEv, symObjAddr: 0x67C0, symBinAddr: 0x10000A3C8, symSize: 0x200 }
  - { offsetInCU: 0x124E3C, offset: 0x124E3C, size: 0x8, addend: 0x0, symName: __ZNK5Eigen9DenseBaseINS_12CwiseUnaryOpINS_8internal14scalar_sqrt_opIdEEKNS_12ArrayWrapperINS_6MatrixIdLin1ELi1ELi0ELin1ELi1EEEEEEEE9transposeEv, symObjAddr: 0x69C0, symBinAddr: 0x10000A5C8, symSize: 0x38 }
  - { offsetInCU: 0x124E69, offset: 0x124E69, size: 0x8, addend: 0x0, symName: __ZN5Eigen6MatrixIdLin1ELin1ELi0ELin1ELin1EEC1INS_13CwiseBinaryOpINS_8internal18scalar_quotient_opIddEEKNS_12ArrayWrapperINS3_INS4_20scalar_difference_opIddEEKS1_KNS_9ReplicateINS_9TransposeINS0_IdLin1ELi1ELi0ELin1ELi1EEEEELin1ELi1EEEEEEEKNSB_INSC_IKNS_12CwiseUnaryOpINS4_14scalar_sqrt_opIdEEKNS7_ISD_EEEEEELin1ELi1EEEEEEERKNS_9EigenBaseIT_EE, symObjAddr: 0x69F8, symBinAddr: 0x10000A600, symSize: 0x34 }
  - { offsetInCU: 0x124EAB, offset: 0x124EAB, size: 0x8, addend: 0x0, symName: __ZNK5Eigen9DenseBaseINS_9TransposeIKNS_6MatrixIdLin1ELi1ELi0ELin1ELi1EEEEEE9replicateEll, symObjAddr: 0x6A2C, symBinAddr: 0x10000A634, symSize: 0x44 }
  - { offsetInCU: 0x124EEF, offset: 0x124EEF, size: 0x8, addend: 0x0, symName: __ZNK5Eigen15PlainObjectBaseINS_6MatrixIdLin1ELin1ELi0ELin1ELin1EEEE4rowsEv, symObjAddr: 0x6A70, symBinAddr: 0x10000A678, symSize: 0x24 }
  - { offsetInCU: 0x124F1A, offset: 0x124F1A, size: 0x8, addend: 0x0, symName: __ZN5Eigen6MatrixIdLin1ELin1ELi0ELin1ELin1EEC1INS_9ReplicateINS_9TransposeIKNS0_IdLin1ELi1ELi0ELin1ELi1EEEEELin1ELin1EEEEERKNS_9EigenBaseIT_EE, symObjAddr: 0x6A94, symBinAddr: 0x10000A69C, symSize: 0x34 }
  - { offsetInCU: 0x124F5C, offset: 0x124F5C, size: 0x8, addend: 0x0, symName: __ZNK5Eigen9ArrayBaseINS_12ArrayWrapperINS_6MatrixIdLin1ELin1ELi0ELin1ELin1EEEEEEmlIS4_EEKNS_13CwiseBinaryOpINS_8internal17scalar_product_opIdNS8_6traitsIT_E6ScalarEEEKS4_KSB_EERKNS0_ISB_EE, symObjAddr: 0x6AC8, symBinAddr: 0x10000A6D0, symSize: 0x214 }
  - { offsetInCU: 0x124F9B, offset: 0x124F9B, size: 0x8, addend: 0x0, symName: __ZNK5Eigen9ArrayBaseINS_13CwiseBinaryOpINS_8internal17scalar_product_opIddEEKNS_12ArrayWrapperINS_6MatrixIdLin1ELin1ELi0ELin1ELin1EEEEES9_EEEplIS8_EEKNS1_INS2_13scalar_sum_opIdNS2_6traitsIT_E6ScalarEEEKSA_KSF_EERKNS0_ISF_EE, symObjAddr: 0x6CDC, symBinAddr: 0x10000A8E4, symSize: 0x214 }
  - { offsetInCU: 0x124FDF, offset: 0x124FDF, size: 0x8, addend: 0x0, symName: __ZN5Eigen6MatrixIdLin1ELin1ELi0ELin1ELin1EEC1INS_13CwiseBinaryOpINS_8internal13scalar_sum_opIddEEKNS3_INS4_17scalar_product_opIddEEKNS_12ArrayWrapperIS1_EESB_EESB_EEEERKNS_9EigenBaseIT_EE, symObjAddr: 0x6EF0, symBinAddr: 0x10000AAF8, symSize: 0x34 }
  - { offsetInCU: 0x125021, offset: 0x125021, size: 0x8, addend: 0x0, symName: _main, symObjAddr: 0x6F24, symBinAddr: 0x10000AB2C, symSize: 0x33E4 }
  - { offsetInCU: 0x125345, offset: 0x125345, size: 0x8, addend: 0x0, symName: __ZN5Eigen6MatrixIdLin1ELin1ELi0ELin1ELin1EEC1IiiEERKT_RKT0_, symObjAddr: 0xA308, symBinAddr: 0x10000DF10, symSize: 0x3C }
  - { offsetInCU: 0x12539F, offset: 0x12539F, size: 0x8, addend: 0x0, symName: __ZN5Eigen15DenseCoeffsBaseINS_6MatrixIdLin1ELin1ELi0ELin1ELin1EEELi1EEclEll, symObjAddr: 0xA344, symBinAddr: 0x10000DF4C, symSize: 0xF8 }
  - { offsetInCU: 0x1253E3, offset: 0x1253E3, size: 0x8, addend: 0x0, symName: __ZNK5Eigen9ArrayBaseINS_12ArrayWrapperINS_6MatrixIdLin1ELin1ELi0ELin1ELin1EEEEEEmiIdEEKNS_13CwiseBinaryOpINS_8internal20scalar_difference_opIdNS8_18promote_scalar_argIdT_Xsr5Eigen8internal14has_ReturnTypeINS_20ScalarBinaryOpTraitsIdSB_NS9_IdSB_EEEEEE5valueEE4typeEEEKS4_KNS8_19plain_constant_typeIS4_SG_E4typeEEERKSB_, symObjAddr: 0xA43C, symBinAddr: 0x10000E044, symSize: 0x2FC }
  - { offsetInCU: 0x125423, offset: 0x125423, size: 0x8, addend: 0x0, symName: __ZNK5Eigen9DenseBaseINS_6MatrixIdLin1ELin1ELi0ELin1ELin1EEEE4meanEv, symObjAddr: 0xA738, symBinAddr: 0x10000E340, symSize: 0x218 }
  - { offsetInCU: 0x12544D, offset: 0x12544D, size: 0x8, addend: 0x0, symName: __ZNK5Eigen9ArrayBaseINS_13CwiseBinaryOpINS_8internal20scalar_difference_opIddEEKNS_12ArrayWrapperINS_6MatrixIdLin1ELin1ELi0ELin1ELin1EEEEEKNS_14CwiseNullaryOpINS2_18scalar_constant_opIdEEKNS_5ArrayIdLin1ELin1ELi0ELin1ELin1EEEEEEEEdvIdEEKNS1_INS2_18scalar_quotient_opIdNS2_18promote_scalar_argIdT_Xsr5Eigen8internal14has_ReturnTypeINS_20ScalarBinaryOpTraitsIdSN_NSL_IdSN_EEEEEE5valueEE4typeEEEKSI_KNS2_19plain_constant_typeISI_SS_E4typeEEERKSN_, symObjAddr: 0xA950, symBinAddr: 0x10000E558, symSize: 0x2FC }
  - { offsetInCU: 0x12548C, offset: 0x12548C, size: 0x8, addend: 0x0, symName: __ZNK5Eigen9ArrayBaseINS_12ArrayWrapperINS_6MatrixIdLin1ELin1ELi0ELin1ELin1EEEEEE3absEv, symObjAddr: 0xAC4C, symBinAddr: 0x10000E854, symSize: 0x200 }
  - { offsetInCU: 0x1254B3, offset: 0x1254B3, size: 0x8, addend: 0x0, symName: __ZNK5Eigen9DenseBaseINS_12CwiseUnaryOpINS_8internal13scalar_abs_opIdEEKNS_12ArrayWrapperINS_6MatrixIdLin1ELin1ELi0ELin1ELin1EEEEEEEE8maxCoeffEv, symObjAddr: 0xAE4C, symBinAddr: 0x10000EA54, symSize: 0x24 }
  - { offsetInCU: 0x1254D9, offset: 0x1254D9, size: 0x8, addend: 0x0, symName: __ZN5Eigen6MatrixIdLin1ELin1ELi0ELin1ELin1EEaSINS_13CwiseBinaryOpINS_8internal18scalar_quotient_opIddEEKNS3_INS4_20scalar_difference_opIddEEKNS_12ArrayWrapperIS1_EEKNS_14CwiseNullaryOpINS4_18scalar_constant_opIdEEKNS_5ArrayIdLin1ELin1ELi0ELin1ELin1EEEEEEESJ_EEEERS1_RKNS_9DenseBaseIT_EE, symObjAddr: 0xAE70, symBinAddr: 0x10000EA78, symSize: 0x2C }
  - { offsetInCU: 0x125516, offset: 0x125516, size: 0x8, addend: 0x0, symName: __ZN5Eigen9DenseBaseINS_6MatrixIdLin1ELin1ELi0ELin1ELin1EEEE9setRandomEv, symObjAddr: 0xAE9C, symBinAddr: 0x10000EAA4, symSize: 0x240 }
  - { offsetInCU: 0x12553F, offset: 0x12553F, size: 0x8, addend: 0x0, symName: __ZN5Eigen9DenseBaseINS_6MatrixIdLin1ELin1ELi0ELin1ELin1EEEE6RandomEll, symObjAddr: 0xB0DC, symBinAddr: 0x10000ECE4, symSize: 0x200 }
  - { offsetInCU: 0x125576, offset: 0x125576, size: 0x8, addend: 0x0, symName: __ZNK5Eigen10MatrixBaseINS_14CwiseNullaryOpINS_8internal16scalar_random_opIdEENS_6MatrixIdLin1ELin1ELi0ELin1ELin1EEEEEEmlIdEEKNS_13CwiseBinaryOpINS2_17scalar_product_opIdNS2_18promote_scalar_argIdT_Xsr5Eigen8internal14has_ReturnTypeINS_20ScalarBinaryOpTraitsIdSD_NSB_IdSD_EEEEEE5valueEE4typeEEEKS7_KNS2_19plain_constant_typeIS7_SI_E4typeEEERKSD_, symObjAddr: 0xB2DC, symBinAddr: 0x10000EEE4, symSize: 0x2FC }
  - { offsetInCU: 0x1255BA, offset: 0x1255BA, size: 0x8, addend: 0x0, symName: __ZN5Eigen6MatrixIdLin1ELin1ELi0ELin1ELin1EEC1INS_13CwiseBinaryOpINS_8internal17scalar_product_opIddEEKNS_14CwiseNullaryOpINS4_16scalar_random_opIdEES1_EEKNS7_INS4_18scalar_constant_opIdEEKS1_EEEEEERKNS_9EigenBaseIT_EE, symObjAddr: 0xB5D8, symBinAddr: 0x10000F1E0, symSize: 0x34 }
  - { offsetInCU: 0x1255FC, offset: 0x1255FC, size: 0x8, addend: 0x0, symName: __ZN5Eigen6MatrixIdLin1ELin1ELi0ELin1ELin1EEaSINS_7ProductIS1_S1_Li0EEEEERS1_RKNS_9DenseBaseIT_EE, symObjAddr: 0xB60C, symBinAddr: 0x10000F214, symSize: 0x2C }
  - { offsetInCU: 0x125639, offset: 0x125639, size: 0x8, addend: 0x0, symName: __ZN5Eigen9DenseBaseINS_6MatrixIdLin1ELin1ELi0ELin1ELin1EEEE4OnesEll, symObjAddr: 0xB638, symBinAddr: 0x10000F240, symSize: 0x228 }
  - { offsetInCU: 0x125671, offset: 0x125671, size: 0x8, addend: 0x0, symName: __ZNK5Eigen10MatrixBaseINS_14CwiseNullaryOpINS_8internal18scalar_constant_opIdEENS_6MatrixIdLin1ELin1ELi0ELin1ELin1EEEEEE14triangularViewILj1EEENS8_29ConstTriangularViewReturnTypeIXT_EE4TypeEv, symObjAddr: 0xB860, symBinAddr: 0x10000F468, symSize: 0x38 }
  - { offsetInCU: 0x1256A9, offset: 0x1256A9, size: 0x8, addend: 0x0, symName: __ZN5Eigen6MatrixIdLin1ELin1ELi0ELin1ELin1EEC1INS_14TriangularViewIKNS_14CwiseNullaryOpINS_8internal18scalar_constant_opIdEES1_EELj1EEEEERKNS_9EigenBaseIT_EE, symObjAddr: 0xB898, symBinAddr: 0x10000F4A0, symSize: 0x34 }
  - { offsetInCU: 0x125790, offset: 0x125790, size: 0x8, addend: 0x0, symName: __ZN11TransformerC1Eiiii, symObjAddr: 0xB8CC, symBinAddr: 0x10000F4D4, symSize: 0x4C }
  - { offsetInCU: 0x1257F2, offset: 0x1257F2, size: 0x8, addend: 0x0, symName: __ZN5Eigen9DenseBaseINS_6MatrixIdLin1ELi1ELi0ELin1ELi1EEEE6RandomEl, symObjAddr: 0xB918, symBinAddr: 0x10000F520, symSize: 0x1F0 }
  - { offsetInCU: 0x125819, offset: 0x125819, size: 0x8, addend: 0x0, symName: __ZNK5Eigen10MatrixBaseINS_14CwiseNullaryOpINS_8internal16scalar_random_opIdEENS_6MatrixIdLin1ELi1ELi0ELin1ELi1EEEEEEmlIdEEKNS_13CwiseBinaryOpINS2_17scalar_product_opIdNS2_18promote_scalar_argIdT_Xsr5Eigen8internal14has_ReturnTypeINS_20ScalarBinaryOpTraitsIdSD_NSB_IdSD_EEEEEE5valueEE4typeEEEKS7_KNS2_19plain_constant_typeIS7_SI_E4typeEEERKSD_, symObjAddr: 0xBB08, symBinAddr: 0x10000F710, symSize: 0x2FC }
  - { offsetInCU: 0x12585D, offset: 0x12585D, size: 0x8, addend: 0x0, symName: __ZN5Eigen6MatrixIdLin1ELi1ELi0ELin1ELi1EEC1INS_13CwiseBinaryOpINS_8internal17scalar_product_opIddEEKNS_14CwiseNullaryOpINS4_16scalar_random_opIdEES1_EEKNS7_INS4_18scalar_constant_opIdEEKS1_EEEEEERKNS_9EigenBaseIT_EE, symObjAddr: 0xBE04, symBinAddr: 0x10000FA0C, symSize: 0x34 }
  - { offsetInCU: 0x12593B, offset: 0x12593B, size: 0x8, addend: 0x0, symName: __ZNSt3__114basic_ofstreamIcNS_11char_traitsIcEEEC1EPKcj, symObjAddr: 0xBE38, symBinAddr: 0x10000FA40, symSize: 0x2AC }
  - { offsetInCU: 0x125985, offset: 0x125985, size: 0x8, addend: 0x0, symName: __ZN11TransformerclERKN5Eigen6MatrixIdLin1ELin1ELi0ELin1ELin1EEES4_, symObjAddr: 0xC0E4, symBinAddr: 0x10000FCEC, symSize: 0x614 }
  - { offsetInCU: 0x125A1E, offset: 0x125A1E, size: 0x8, addend: 0x0, symName: __ZNK5Eigen10MatrixBaseINS_6MatrixIdLin1ELin1ELi0ELin1ELin1EEEEmiIS2_EEKNS_13CwiseBinaryOpINS_8internal20scalar_difference_opIdNS6_6traitsIT_E6ScalarEEEKS2_KS9_EERKNS0_IS9_EE, symObjAddr: 0xC6F8, symBinAddr: 0x100010300, symSize: 0x214 }
  - { offsetInCU: 0x125A62, offset: 0x125A62, size: 0x8, addend: 0x0, symName: __ZN5Eigen6MatrixIdLin1ELin1ELi0ELin1ELin1EEC1INS_13CwiseBinaryOpINS_8internal20scalar_difference_opIddEEKS1_S7_EEEERKNS_9EigenBaseIT_EE, symObjAddr: 0xC90C, symBinAddr: 0x100010514, symSize: 0x34 }
  - { offsetInCU: 0x125AA4, offset: 0x125AA4, size: 0x8, addend: 0x0, symName: __ZNK5Eigen9ArrayBaseINS_12ArrayWrapperINS_6MatrixIdLin1ELin1ELi0ELin1ELin1EEEEEE6squareEv, symObjAddr: 0xC940, symBinAddr: 0x100010548, symSize: 0x200 }
  - { offsetInCU: 0x125ACB, offset: 0x125ACB, size: 0x8, addend: 0x0, symName: __ZNK5Eigen9DenseBaseINS_12CwiseUnaryOpINS_8internal16scalar_square_opIdEEKNS_12ArrayWrapperINS_6MatrixIdLin1ELin1ELi0ELin1ELin1EEEEEEEE3sumEv, symObjAddr: 0xCB40, symBinAddr: 0x100010748, symSize: 0x230 }
  - { offsetInCU: 0x125AF5, offset: 0x125AF5, size: 0x8, addend: 0x0, symName: __ZNK5Eigen10MatrixBaseINS_13CwiseBinaryOpINS_8internal17scalar_product_opIddEEKNS_14CwiseNullaryOpINS2_18scalar_constant_opIdEEKNS_6MatrixIdLin1ELin1ELi0ELin1ELin1EEEEESA_EEEdvIiEEKNS1_INS2_18scalar_quotient_opIdNS2_18promote_scalar_argIdT_Xsr5Eigen8internal14has_ReturnTypeINS_20ScalarBinaryOpTraitsIdSI_NSG_IdSI_EEEEEE5valueEE4typeEEEKSD_KNS2_19plain_constant_typeISD_SN_E4typeEEERKSI_, symObjAddr: 0xD128, symBinAddr: 0x100010D30, symSize: 0x3C4 }
  - { offsetInCU: 0x125B39, offset: 0x125B39, size: 0x8, addend: 0x0, symName: __ZN5Eigen6MatrixIdLin1ELin1ELi0ELin1ELin1EEC1INS_13CwiseBinaryOpINS_8internal18scalar_quotient_opIddEEKNS3_INS4_17scalar_product_opIddEEKNS_14CwiseNullaryOpINS4_18scalar_constant_opIdEEKS1_EESC_EESE_EEEERKNS_9EigenBaseIT_EE, symObjAddr: 0xD4EC, symBinAddr: 0x1000110F4, symSize: 0x34 }
  - { offsetInCU: 0x125B7B, offset: 0x125B7B, size: 0x8, addend: 0x0, symName: __ZN5Eigen9DenseBaseINS_6MatrixIdLin1ELin1ELi0ELin1ELin1EEEE9transposeEv, symObjAddr: 0xD520, symBinAddr: 0x100011128, symSize: 0x204 }
  - { offsetInCU: 0x125BA4, offset: 0x125BA4, size: 0x8, addend: 0x0, symName: __ZNK5Eigen10MatrixBaseINS_9TransposeINS_6MatrixIdLin1ELin1ELi0ELin1ELin1EEEEEEmlIS3_EEKNS_7ProductIS4_T_Li0EEERKNS0_IS8_EE, symObjAddr: 0xD724, symBinAddr: 0x10001132C, symSize: 0x224 }
  - { offsetInCU: 0x125BE6, offset: 0x125BE6, size: 0x8, addend: 0x0, symName: __ZNK5Eigen10MatrixBaseINS_7ProductINS_9TransposeINS_6MatrixIdLin1ELin1ELi0ELin1ELin1EEEEES4_Li0EEEE5arrayEv, symObjAddr: 0xD948, symBinAddr: 0x100011550, symSize: 0x210 }
  - { offsetInCU: 0x125C0D, offset: 0x125C0D, size: 0x8, addend: 0x0, symName: __ZNK5Eigen9ArrayBaseINS_12ArrayWrapperIKNS_7ProductINS_9TransposeINS_6MatrixIdLin1ELin1ELi0ELin1ELin1EEEEES5_Li0EEEEEEdvIiEEKNS_13CwiseBinaryOpINS_8internal18scalar_quotient_opIdNSD_18promote_scalar_argIdT_Xsr5Eigen8internal14has_ReturnTypeINS_20ScalarBinaryOpTraitsIdSG_NSE_IdSG_EEEEEE5valueEE4typeEEEKS9_KNSD_19plain_constant_typeIS9_SL_E4typeEEERKSG_, symObjAddr: 0xDB58, symBinAddr: 0x100011760, symSize: 0x3C4 }
  - { offsetInCU: 0x125C51, offset: 0x125C51, size: 0x8, addend: 0x0, symName: __ZN5Eigen6MatrixIdLin1ELin1ELi0ELin1ELin1EEC1INS_13CwiseBinaryOpINS_8internal18scalar_quotient_opIddEEKNS_12ArrayWrapperIKNS_7ProductINS_9TransposeIS1_EES1_Li0EEEEEKNS_14CwiseNullaryOpINS4_18scalar_constant_opIdEEKNS_5ArrayIdLin1ELin1ELi0ELin1ELin1EEEEEEEEERKNS_9EigenBaseIT_EE, symObjAddr: 0xDF1C, symBinAddr: 0x100011B24, symSize: 0x34 }
  - { offsetInCU: 0x125C93, offset: 0x125C93, size: 0x8, addend: 0x0, symName: __ZN5Eigen9DenseBaseINS_6MatrixIdLin1ELin1ELi0ELin1ELin1EEEE7colwiseEv, symObjAddr: 0xDF50, symBinAddr: 0x100011B58, symSize: 0x204 }
  - { offsetInCU: 0x125CBD, offset: 0x125CBD, size: 0x8, addend: 0x0, symName: __ZNK5Eigen12VectorwiseOpINS_6MatrixIdLin1ELin1ELi0ELin1ELin1EEELi0EE3sumEv, symObjAddr: 0xE154, symBinAddr: 0x100011D5C, symSize: 0x200 }
  - { offsetInCU: 0x125CE4, offset: 0x125CE4, size: 0x8, addend: 0x0, symName: __ZNK5Eigen9DenseBaseINS_16PartialReduxExprINS_6MatrixIdLin1ELin1ELi0ELin1ELin1EEENS_8internal10member_sumIddEELi0EEEE9transposeEv, symObjAddr: 0xE354, symBinAddr: 0x100011F5C, symSize: 0x38 }
  - { offsetInCU: 0x125D0C, offset: 0x125D0C, size: 0x8, addend: 0x0, symName: __ZNK5Eigen10MatrixBaseINS_9TransposeIKNS_16PartialReduxExprINS_6MatrixIdLin1ELin1ELi0ELin1ELin1EEENS_8internal10member_sumIddEELi0EEEEEE5arrayEv, symObjAddr: 0xE38C, symBinAddr: 0x100011F94, symSize: 0x38 }
  - { offsetInCU: 0x125D32, offset: 0x125D32, size: 0x8, addend: 0x0, symName: __ZNK5Eigen9ArrayBaseINS_12ArrayWrapperIKNS_9TransposeIKNS_16PartialReduxExprINS_6MatrixIdLin1ELin1ELi0ELin1ELin1EEENS_8internal10member_sumIddEELi0EEEEEEEEdvIiEEKNS_13CwiseBinaryOpINS6_18scalar_quotient_opIdNS6_18promote_scalar_argIdT_Xsr5Eigen8internal14has_ReturnTypeINS_20ScalarBinaryOpTraitsIdSJ_NSH_IdSJ_EEEEEE5valueEE4typeEEEKSD_KNS6_19plain_constant_typeISD_SO_E4typeEEERKSJ_, symObjAddr: 0xE3C4, symBinAddr: 0x100011FCC, symSize: 0x3C4 }
  - { offsetInCU: 0x125D76, offset: 0x125D76, size: 0x8, addend: 0x0, symName: __ZN5Eigen6MatrixIdLin1ELi1ELi0ELin1ELi1EEC1INS_13CwiseBinaryOpINS_8internal18scalar_quotient_opIddEEKNS_12ArrayWrapperIKNS_9TransposeIKNS_16PartialReduxExprINS0_IdLin1ELin1ELi0ELin1ELin1EEENS4_10member_sumIddEELi0EEEEEEEKNS_14CwiseNullaryOpINS4_18scalar_constant_opIdEEKNS_5ArrayIdLin1ELi1ELi0ELin1ELi1EEEEEEEEERKNS_9EigenBaseIT_EE, symObjAddr: 0xE788, symBinAddr: 0x100012390, symSize: 0x34 }
  - { offsetInCU: 0x125DB8, offset: 0x125DB8, size: 0x8, addend: 0x0, symName: __ZNK5Eigen9ArrayBaseINS_12ArrayWrapperINS_6MatrixIdLin1ELi1ELi0ELin1ELi1EEEEEE6squareEv, symObjAddr: 0xE7BC, symBinAddr: 0x1000123C4, symSize: 0x200 }
  - { offsetInCU: 0x125DDF, offset: 0x125DDF, size: 0x8, addend: 0x0, symName: __ZNK5Eigen9DenseBaseINS_12CwiseUnaryOpINS_8internal16scalar_square_opIdEEKNS_12ArrayWrapperINS_6MatrixIdLin1ELi1ELi0ELin1ELi1EEEEEEEE3sumEv, symObjAddr: 0xE9BC, symBinAddr: 0x1000125C4, symSize: 0x230 }
  - { offsetInCU: 0x125E09, offset: 0x125E09, size: 0x8, addend: 0x0, symName: __ZNK5Eigen10MatrixBaseINS_6MatrixIdLin1ELin1ELi0ELin1ELin1EEEEdvIdEEKNS_13CwiseBinaryOpINS_8internal18scalar_quotient_opIdNS6_18promote_scalar_argIdT_Xsr5Eigen8internal14has_ReturnTypeINS_20ScalarBinaryOpTraitsIdS9_NS7_IdS9_EEEEEE5valueEE4typeEEEKS2_KNS6_19plain_constant_typeIS2_SE_E4typeEEERKS9_, symObjAddr: 0xEBEC, symBinAddr: 0x1000127F4, symSize: 0x2FC }
  - { offsetInCU: 0x125E48, offset: 0x125E48, size: 0x8, addend: 0x0, symName: __ZN5Eigen6MatrixIdLin1ELin1ELi0ELin1ELin1EEaSINS_13CwiseBinaryOpINS_8internal18scalar_quotient_opIddEEKS1_KNS_14CwiseNullaryOpINS4_18scalar_constant_opIdEES7_EEEEEERS1_RKNS_9DenseBaseIT_EE, symObjAddr: 0xEEE8, symBinAddr: 0x100012AF0, symSize: 0x2C }
  - { offsetInCU: 0x125E85, offset: 0x125E85, size: 0x8, addend: 0x0, symName: __ZNK5Eigen10MatrixBaseINS_6MatrixIdLin1ELi1ELi0ELin1ELi1EEEEdvIdEEKNS_13CwiseBinaryOpINS_8internal18scalar_quotient_opIdNS6_18promote_scalar_argIdT_Xsr5Eigen8internal14has_ReturnTypeINS_20ScalarBinaryOpTraitsIdS9_NS7_IdS9_EEEEEE5valueEE4typeEEEKS2_KNS6_19plain_constant_typeIS2_SE_E4typeEEERKS9_, symObjAddr: 0xEF14, symBinAddr: 0x100012B1C, symSize: 0x2FC }
  - { offsetInCU: 0x125EC4, offset: 0x125EC4, size: 0x8, addend: 0x0, symName: __ZN5Eigen6MatrixIdLin1ELi1ELi0ELin1ELi1EEaSINS_13CwiseBinaryOpINS_8internal18scalar_quotient_opIddEEKS1_KNS_14CwiseNullaryOpINS4_18scalar_constant_opIdEES7_EEEEEERS1_RKNS_9DenseBaseIT_EE, symObjAddr: 0xF210, symBinAddr: 0x100012E18, symSize: 0x2C }
  - { offsetInCU: 0x125F01, offset: 0x125F01, size: 0x8, addend: 0x0, symName: __ZN5Eigen10MatrixBaseINS_6MatrixIdLin1ELin1ELi0ELin1ELin1EEEEmIINS_13CwiseBinaryOpINS_8internal17scalar_product_opIddEEKNS_14CwiseNullaryOpINS6_18scalar_constant_opIdEEKS2_EESC_EEEERS2_RKNS0_IT_EE, symObjAddr: 0xF52C, symBinAddr: 0x100013134, symSize: 0x220 }
  - { offsetInCU: 0x125F42, offset: 0x125F42, size: 0x8, addend: 0x0, symName: __ZN5Eigen10MatrixBaseINS_6MatrixIdLin1ELi1ELi0ELin1ELi1EEEEmIINS_13CwiseBinaryOpINS_8internal17scalar_product_opIddEEKNS_14CwiseNullaryOpINS6_18scalar_constant_opIdEEKS2_EESC_EEEERS2_RKNS0_IT_EE, symObjAddr: 0xFA3C, symBinAddr: 0x100013644, symSize: 0x220 }
  - { offsetInCU: 0x125F83, offset: 0x125F83, size: 0x8, addend: 0x0, symName: __ZNSt3__114basic_ofstreamIcNS_11char_traitsIcEEE5closeEv, symObjAddr: 0xFC5C, symBinAddr: 0x100013864, symSize: 0xD4 }
  - { offsetInCU: 0x125FB0, offset: 0x125FB0, size: 0x8, addend: 0x0, symName: __ZNSt3__114basic_ofstreamIcNS_11char_traitsIcEEED1Ev, symObjAddr: 0x10454, symBinAddr: 0x10001405C, symSize: 0x40 }
  - { offsetInCU: 0x125FDD, offset: 0x125FDD, size: 0x8, addend: 0x0, symName: __ZN11TransformerD1Ev, symObjAddr: 0x10494, symBinAddr: 0x10001409C, symSize: 0x2C }
  - { offsetInCU: 0x126009, offset: 0x126009, size: 0x8, addend: 0x0, symName: __ZN5Eigen8internal8FixedIntILi1EEC1Ev, symObjAddr: 0x104C0, symBinAddr: 0x1000140C8, symSize: 0x2C }
  - { offsetInCU: 0x126033, offset: 0x126033, size: 0x8, addend: 0x0, symName: __ZN5Eigen8internal8FixedIntILi0EEC1Ev, symObjAddr: 0x104EC, symBinAddr: 0x1000140F4, symSize: 0x2C }
  - { offsetInCU: 0x12605D, offset: 0x12605D, size: 0x8, addend: 0x0, symName: __ZN5Eigen8internal8FixedIntILi2EEC1Ev, symObjAddr: 0x10518, symBinAddr: 0x100014120, symSize: 0x2C }
  - { offsetInCU: 0x126087, offset: 0x126087, size: 0x8, addend: 0x0, symName: __ZN5Eigen8internal8FixedIntILi3EEC1Ev, symObjAddr: 0x10544, symBinAddr: 0x10001414C, symSize: 0x2C }
  - { offsetInCU: 0x1260B1, offset: 0x1260B1, size: 0x8, addend: 0x0, symName: __ZN5Eigen8internal5all_tC2Ev, symObjAddr: 0x10570, symBinAddr: 0x100014178, symSize: 0x14 }
  - { offsetInCU: 0x1260DB, offset: 0x1260DB, size: 0x8, addend: 0x0, symName: __ZN5Eigen6MatrixIdLin1ELin1ELi0ELin1ELin1EED2Ev, symObjAddr: 0x10584, symBinAddr: 0x10001418C, symSize: 0x2C }
  - { offsetInCU: 0x126107, offset: 0x126107, size: 0x8, addend: 0x0, symName: __ZN5Eigen15PlainObjectBaseINS_6MatrixIdLin1ELin1ELi0ELin1ELin1EEEED2Ev, symObjAddr: 0x105B0, symBinAddr: 0x1000141B8, symSize: 0x2C }
  - { offsetInCU: 0x126133, offset: 0x126133, size: 0x8, addend: 0x0, symName: __ZN5Eigen12DenseStorageIdLin1ELin1ELin1ELi0EED1Ev, symObjAddr: 0x105DC, symBinAddr: 0x1000141E4, symSize: 0x2C }
  - { offsetInCU: 0x12615D, offset: 0x12615D, size: 0x8, addend: 0x0, symName: __ZN5Eigen12DenseStorageIdLin1ELin1ELin1ELi0EED2Ev, symObjAddr: 0x10608, symBinAddr: 0x100014210, symSize: 0x104 }
  - { offsetInCU: 0x126187, offset: 0x126187, size: 0x8, addend: 0x0, symName: __ZN5Eigen6MatrixIdLin1ELi1ELi0ELin1ELi1EED2Ev, symObjAddr: 0x10788, symBinAddr: 0x100014390, symSize: 0x2C }
  - { offsetInCU: 0x1261B3, offset: 0x1261B3, size: 0x8, addend: 0x0, symName: __ZN5Eigen15PlainObjectBaseINS_6MatrixIdLin1ELi1ELi0ELin1ELi1EEEED2Ev, symObjAddr: 0x107B4, symBinAddr: 0x1000143BC, symSize: 0x2C }
  - { offsetInCU: 0x1261DF, offset: 0x1261DF, size: 0x8, addend: 0x0, symName: __ZN5Eigen12DenseStorageIdLin1ELin1ELi1ELi0EED1Ev, symObjAddr: 0x107E0, symBinAddr: 0x1000143E8, symSize: 0x2C }
  - { offsetInCU: 0x126209, offset: 0x126209, size: 0x8, addend: 0x0, symName: __ZN5Eigen12DenseStorageIdLin1ELin1ELi1ELi0EED2Ev, symObjAddr: 0x1080C, symBinAddr: 0x100014414, symSize: 0xC8 }
  - { offsetInCU: 0x126233, offset: 0x126233, size: 0x8, addend: 0x0, symName: __ZNK5Eigen12DenseStorageIdLin1ELin1ELin1ELi0EE4rowsEv, symObjAddr: 0x108D4, symBinAddr: 0x1000144DC, symSize: 0x64 }
  - { offsetInCU: 0x126259, offset: 0x126259, size: 0x8, addend: 0x0, symName: __ZN11TransformerC2Eiiii, symObjAddr: 0x10938, symBinAddr: 0x100014540, symSize: 0x6F8 }
  - { offsetInCU: 0x1262DD, offset: 0x1262DD, size: 0x8, addend: 0x0, symName: __ZNSt3__16vectorI23TransformerEncoderLayerNS_9allocatorIS1_EEEC1B8ue170006Ev, symObjAddr: 0x11030, symBinAddr: 0x100014C38, symSize: 0x2C }
  - { offsetInCU: 0x126307, offset: 0x126307, size: 0x8, addend: 0x0, symName: __ZNSt3__16vectorI23TransformerDecoderLayerNS_9allocatorIS1_EEEC1B8ue170006Ev, symObjAddr: 0x1105C, symBinAddr: 0x100014C64, symSize: 0x2C }
  - { offsetInCU: 0x126331, offset: 0x126331, size: 0x8, addend: 0x0, symName: __ZNSt3__16vectorI23TransformerEncoderLayerNS_9allocatorIS1_EEE9push_backB8ue170006EOS1_, symObjAddr: 0x11088, symBinAddr: 0x100014C90, symSize: 0xE0 }
  - { offsetInCU: 0x126368, offset: 0x126368, size: 0x8, addend: 0x0, symName: __ZN23TransformerEncoderLayerC1Eiii, symObjAddr: 0x11168, symBinAddr: 0x100014D70, symSize: 0x44 }
  - { offsetInCU: 0x1263BC, offset: 0x1263BC, size: 0x8, addend: 0x0, symName: __ZN23TransformerEncoderLayerD1Ev, symObjAddr: 0x111AC, symBinAddr: 0x100014DB4, symSize: 0x2C }
  - { offsetInCU: 0x1263E8, offset: 0x1263E8, size: 0x8, addend: 0x0, symName: __ZNSt3__16vectorI23TransformerDecoderLayerNS_9allocatorIS1_EEE9push_backB8ue170006EOS1_, symObjAddr: 0x111D8, symBinAddr: 0x100014DE0, symSize: 0xE0 }
  - { offsetInCU: 0x12641F, offset: 0x12641F, size: 0x8, addend: 0x0, symName: __ZN23TransformerDecoderLayerC1Eiii, symObjAddr: 0x112B8, symBinAddr: 0x100014EC0, symSize: 0x44 }
  - { offsetInCU: 0x126473, offset: 0x126473, size: 0x8, addend: 0x0, symName: __ZN23TransformerDecoderLayerD1Ev, symObjAddr: 0x112FC, symBinAddr: 0x100014F04, symSize: 0x2C }
  - { offsetInCU: 0x12649F, offset: 0x12649F, size: 0x8, addend: 0x0, symName: __ZNSt3__16vectorI23TransformerDecoderLayerNS_9allocatorIS1_EEED1B8ue170006Ev, symObjAddr: 0x11328, symBinAddr: 0x100014F30, symSize: 0x2C }
  - { offsetInCU: 0x1264C9, offset: 0x1264C9, size: 0x8, addend: 0x0, symName: __ZNSt3__16vectorI23TransformerEncoderLayerNS_9allocatorIS1_EEED1B8ue170006Ev, symObjAddr: 0x11354, symBinAddr: 0x100014F5C, symSize: 0x2C }
  - { offsetInCU: 0x1264F3, offset: 0x1264F3, size: 0x8, addend: 0x0, symName: __ZNSt3__16vectorI23TransformerEncoderLayerNS_9allocatorIS1_EEEC2B8ue170006Ev, symObjAddr: 0x11380, symBinAddr: 0x100014F88, symSize: 0x2E8 }
  - { offsetInCU: 0x12652A, offset: 0x12652A, size: 0x8, addend: 0x0, symName: __ZNSt3__117__compressed_pairIP23TransformerEncoderLayerNS_9allocatorIS1_EEEC1B8ue170006IDnNS_18__default_init_tagEEEOT_OT0_, symObjAddr: 0x11668, symBinAddr: 0x100015270, symSize: 0x3C }
  - { offsetInCU: 0x126582, offset: 0x126582, size: 0x8, addend: 0x0, symName: __ZNSt3__117__compressed_pairIP23TransformerEncoderLayerNS_9allocatorIS1_EEEC2B8ue170006IDnNS_18__default_init_tagEEEOT_OT0_, symObjAddr: 0x116A4, symBinAddr: 0x1000152AC, symSize: 0x40 }
  - { offsetInCU: 0x1265DA, offset: 0x1265DA, size: 0x8, addend: 0x0, symName: __ZNSt3__122__compressed_pair_elemIP23TransformerEncoderLayerLi0ELb0EEC2B8ue170006IDnvEEOT_, symObjAddr: 0x116E4, symBinAddr: 0x1000152EC, symSize: 0x64 }
  - { offsetInCU: 0x12661C, offset: 0x12661C, size: 0x8, addend: 0x0, symName: __ZNSt3__122__compressed_pair_elemINS_9allocatorI23TransformerEncoderLayerEELi1ELb1EEC2B8ue170006ENS_18__default_init_tagE, symObjAddr: 0x11748, symBinAddr: 0x100015350, symSize: 0x2C }
  - { offsetInCU: 0x126650, offset: 0x126650, size: 0x8, addend: 0x0, symName: __ZNSt3__19allocatorI23TransformerEncoderLayerEC2B8ue170006Ev, symObjAddr: 0x11774, symBinAddr: 0x10001537C, symSize: 0x2C }
  - { offsetInCU: 0x12667A, offset: 0x12667A, size: 0x8, addend: 0x0, symName: __ZNSt3__116__non_trivial_ifILb1ENS_9allocatorI23TransformerEncoderLayerEEEC2B8ue170006Ev, symObjAddr: 0x117A0, symBinAddr: 0x1000153A8, symSize: 0x14 }
  - { offsetInCU: 0x1266A4, offset: 0x1266A4, size: 0x8, addend: 0x0, symName: __ZNSt3__16vectorI23TransformerDecoderLayerNS_9allocatorIS1_EEEC2B8ue170006Ev, symObjAddr: 0x117B4, symBinAddr: 0x1000153BC, symSize: 0x2E8 }
  - { offsetInCU: 0x1266CF, offset: 0x1266CF, size: 0x8, addend: 0x0, symName: __ZNSt3__117__compressed_pairIP23TransformerDecoderLayerNS_9allocatorIS1_EEEC1B8ue170006IDnNS_18__default_init_tagEEEOT_OT0_, symObjAddr: 0x11A9C, symBinAddr: 0x1000156A4, symSize: 0x3C }
  - { offsetInCU: 0x126727, offset: 0x126727, size: 0x8, addend: 0x0, symName: __ZNSt3__117__compressed_pairIP23TransformerDecoderLayerNS_9allocatorIS1_EEEC2B8ue170006IDnNS_18__default_init_tagEEEOT_OT0_, symObjAddr: 0x11AD8, symBinAddr: 0x1000156E0, symSize: 0x40 }
  - { offsetInCU: 0x12677F, offset: 0x12677F, size: 0x8, addend: 0x0, symName: __ZNSt3__122__compressed_pair_elemIP23TransformerDecoderLayerLi0ELb0EEC2B8ue170006IDnvEEOT_, symObjAddr: 0x11B18, symBinAddr: 0x100015720, symSize: 0x64 }
  - { offsetInCU: 0x1267C1, offset: 0x1267C1, size: 0x8, addend: 0x0, symName: __ZNSt3__122__compressed_pair_elemINS_9allocatorI23TransformerDecoderLayerEELi1ELb1EEC2B8ue170006ENS_18__default_init_tagE, symObjAddr: 0x11B7C, symBinAddr: 0x100015784, symSize: 0x2C }
  - { offsetInCU: 0x1267F5, offset: 0x1267F5, size: 0x8, addend: 0x0, symName: __ZNSt3__19allocatorI23TransformerDecoderLayerEC2B8ue170006Ev, symObjAddr: 0x11BA8, symBinAddr: 0x1000157B0, symSize: 0x2C }
  - { offsetInCU: 0x12681F, offset: 0x12681F, size: 0x8, addend: 0x0, symName: __ZNSt3__116__non_trivial_ifILb1ENS_9allocatorI23TransformerDecoderLayerEEEC2B8ue170006Ev, symObjAddr: 0x11BD4, symBinAddr: 0x1000157DC, symSize: 0x14 }
  - { offsetInCU: 0x126849, offset: 0x126849, size: 0x8, addend: 0x0, symName: __ZNSt3__16vectorI23TransformerEncoderLayerNS_9allocatorIS1_EEE9__end_capB8ue170006Ev, symObjAddr: 0x11BE8, symBinAddr: 0x1000157F0, symSize: 0x28 }
  - { offsetInCU: 0x126875, offset: 0x126875, size: 0x8, addend: 0x0, symName: __ZNSt3__16vectorI23TransformerEncoderLayerNS_9allocatorIS1_EEE22__construct_one_at_endB8ue170006IJS1_EEEvDpOT_, symObjAddr: 0x11C10, symBinAddr: 0x100015818, symSize: 0x36C }
  - { offsetInCU: 0x1268CA, offset: 0x1268CA, size: 0x8, addend: 0x0, symName: __ZNSt3__16vectorI23TransformerEncoderLayerNS_9allocatorIS1_EEE21__push_back_slow_pathIS1_EEvOT_, symObjAddr: 0x11F7C, symBinAddr: 0x100015B84, symSize: 0x3C0 }
  - { offsetInCU: 0x12692F, offset: 0x12692F, size: 0x8, addend: 0x0, symName: __ZNSt3__117__compressed_pairIP23TransformerEncoderLayerNS_9allocatorIS1_EEE5firstB8ue170006Ev, symObjAddr: 0x1233C, symBinAddr: 0x100015F44, symSize: 0x24 }
  - { offsetInCU: 0x126955, offset: 0x126955, size: 0x8, addend: 0x0, symName: __ZNSt3__122__compressed_pair_elemIP23TransformerEncoderLayerLi0ELb0EE5__getB8ue170006Ev, symObjAddr: 0x12360, symBinAddr: 0x100015F68, symSize: 0x14 }
  - { offsetInCU: 0x126994, offset: 0x126994, size: 0x8, addend: 0x0, symName: __ZNSt3__16vectorI23TransformerEncoderLayerNS_9allocatorIS1_EEE21_ConstructTransactionC1B8ue170006ERS4_m, symObjAddr: 0x12374, symBinAddr: 0x100015F7C, symSize: 0x3C }
  - { offsetInCU: 0x1269DC, offset: 0x1269DC, size: 0x8, addend: 0x0, symName: __ZNSt3__116allocator_traitsINS_9allocatorI23TransformerEncoderLayerEEE9constructB8ue170006IS2_JS2_EvEEvRS3_PT_DpOT0_, symObjAddr: 0x123B0, symBinAddr: 0x100015FB8, symSize: 0x34 }
  - { offsetInCU: 0x126A33, offset: 0x126A33, size: 0x8, addend: 0x0, symName: __ZNSt3__16vectorI23TransformerEncoderLayerNS_9allocatorIS1_EEE7__allocB8ue170006Ev, symObjAddr: 0x123E4, symBinAddr: 0x100015FEC, symSize: 0x28 }
  - { offsetInCU: 0x126A59, offset: 0x126A59, size: 0x8, addend: 0x0, symName: __ZNSt3__16vectorI23TransformerEncoderLayerNS_9allocatorIS1_EEE21_ConstructTransactionD1B8ue170006Ev, symObjAddr: 0x12420, symBinAddr: 0x100016028, symSize: 0x2C }
  - { offsetInCU: 0x126A83, offset: 0x126A83, size: 0x8, addend: 0x0, symName: __ZNSt3__16vectorI23TransformerEncoderLayerNS_9allocatorIS1_EEE21_ConstructTransactionC2B8ue170006ERS4_m, symObjAddr: 0x1244C, symBinAddr: 0x100016054, symSize: 0x1D8 }
  - { offsetInCU: 0x126ACB, offset: 0x126ACB, size: 0x8, addend: 0x0, symName: __ZNKSt3__16vectorI23TransformerEncoderLayerNS_9allocatorIS1_EEE19__annotate_increaseB8ue170006Em, symObjAddr: 0x12624, symBinAddr: 0x10001622C, symSize: 0xF8 }
  - { offsetInCU: 0x126B00, offset: 0x126B00, size: 0x8, addend: 0x0, symName: __ZNKSt3__16vectorI23TransformerEncoderLayerNS_9allocatorIS1_EEE31__annotate_contiguous_containerEPKvS6_S6_S6_, symObjAddr: 0x1271C, symBinAddr: 0x100016324, symSize: 0x58 }
  - { offsetInCU: 0x126B62, offset: 0x126B62, size: 0x8, addend: 0x0, symName: __ZNKSt3__16vectorI23TransformerEncoderLayerNS_9allocatorIS1_EEE4dataB8ue170006Ev, symObjAddr: 0x12774, symBinAddr: 0x10001637C, symSize: 0x64 }
  - { offsetInCU: 0x126B88, offset: 0x126B88, size: 0x8, addend: 0x0, symName: __ZNKSt3__16vectorI23TransformerEncoderLayerNS_9allocatorIS1_EEE8capacityB8ue170006Ev, symObjAddr: 0x127D8, symBinAddr: 0x1000163E0, symSize: 0xBC }
  - { offsetInCU: 0x126BAE, offset: 0x126BAE, size: 0x8, addend: 0x0, symName: __ZNKSt3__16vectorI23TransformerEncoderLayerNS_9allocatorIS1_EEE4sizeB8ue170006Ev, symObjAddr: 0x12894, symBinAddr: 0x10001649C, symSize: 0xB0 }
  - { offsetInCU: 0x126BD4, offset: 0x126BD4, size: 0x8, addend: 0x0, symName: __ZNKSt3__16vectorI23TransformerEncoderLayerNS_9allocatorIS1_EEE9__end_capB8ue170006Ev, symObjAddr: 0x12944, symBinAddr: 0x10001654C, symSize: 0x28 }
  - { offsetInCU: 0x126BFA, offset: 0x126BFA, size: 0x8, addend: 0x0, symName: __ZNKSt3__117__compressed_pairIP23TransformerEncoderLayerNS_9allocatorIS1_EEE5firstB8ue170006Ev, symObjAddr: 0x1296C, symBinAddr: 0x100016574, symSize: 0x24 }
  - { offsetInCU: 0x126C20, offset: 0x126C20, size: 0x8, addend: 0x0, symName: __ZNKSt3__122__compressed_pair_elemIP23TransformerEncoderLayerLi0ELb0EE5__getB8ue170006Ev, symObjAddr: 0x12990, symBinAddr: 0x100016598, symSize: 0x14 }
  - { offsetInCU: 0x126C46, offset: 0x126C46, size: 0x8, addend: 0x0, symName: __ZNSt3__19allocatorI23TransformerEncoderLayerE9constructB8ue170006IS1_JS1_EEEvPT_DpOT0_, symObjAddr: 0x129A4, symBinAddr: 0x1000165AC, symSize: 0x30 }
  - { offsetInCU: 0x126C9C, offset: 0x126C9C, size: 0x8, addend: 0x0, symName: __ZN23TransformerEncoderLayerC1EOS_, symObjAddr: 0x129D4, symBinAddr: 0x1000165DC, symSize: 0x34 }
  - { offsetInCU: 0x126CD1, offset: 0x126CD1, size: 0x8, addend: 0x0, symName: __ZN23TransformerEncoderLayerC2EOS_, symObjAddr: 0x12A08, symBinAddr: 0x100016610, symSize: 0xC4 }
  - { offsetInCU: 0x126D0C, offset: 0x126D0C, size: 0x8, addend: 0x0, symName: __ZN18MultiHeadAttentionC1EOS_, symObjAddr: 0x12ACC, symBinAddr: 0x1000166D4, symSize: 0x34 }
  - { offsetInCU: 0x126D41, offset: 0x126D41, size: 0x8, addend: 0x0, symName: __ZN5Eigen6MatrixIdLin1ELin1ELi0ELin1ELin1EEC1EOS1_, symObjAddr: 0x12B00, symBinAddr: 0x100016708, symSize: 0x34 }
  - { offsetInCU: 0x126D7A, offset: 0x126D7A, size: 0x8, addend: 0x0, symName: __ZN5Eigen6MatrixIdLin1ELi1ELi0ELin1ELi1EEC1EOS1_, symObjAddr: 0x12B34, symBinAddr: 0x10001673C, symSize: 0x34 }
  - { offsetInCU: 0x126DB3, offset: 0x126DB3, size: 0x8, addend: 0x0, symName: __ZN18MultiHeadAttentionC2EOS_, symObjAddr: 0x12B68, symBinAddr: 0x100016770, symSize: 0x88 }
  - { offsetInCU: 0x126DE8, offset: 0x126DE8, size: 0x8, addend: 0x0, symName: __ZNSt3__16vectorIN5Eigen6MatrixIdLin1ELin1ELi0ELin1ELin1EEENS_9allocatorIS3_EEEC1B8ue170006EOS6_, symObjAddr: 0x12BF0, symBinAddr: 0x1000167F8, symSize: 0x34 }
  - { offsetInCU: 0x126E23, offset: 0x126E23, size: 0x8, addend: 0x0, symName: __ZNSt3__16vectorIN5Eigen6MatrixIdLin1ELin1ELi0ELin1ELin1EEENS_9allocatorIS3_EEEC2B8ue170006EOS6_, symObjAddr: 0x12C24, symBinAddr: 0x10001682C, symSize: 0x4F4 }
  - { offsetInCU: 0x126E60, offset: 0x126E60, size: 0x8, addend: 0x0, symName: __ZNSt3__16vectorIN5Eigen6MatrixIdLin1ELin1ELi0ELin1ELin1EEENS_9allocatorIS3_EEE7__allocB8ue170006Ev, symObjAddr: 0x13118, symBinAddr: 0x100016D20, symSize: 0x28 }
  - { offsetInCU: 0x126E8C, offset: 0x126E8C, size: 0x8, addend: 0x0, symName: __ZNSt3__117__compressed_pairIPN5Eigen6MatrixIdLin1ELin1ELi0ELin1ELin1EEENS_9allocatorIS3_EEEC1B8ue170006IDnS6_EEOT_OT0_, symObjAddr: 0x13140, symBinAddr: 0x100016D48, symSize: 0x3C }
  - { offsetInCU: 0x126EE4, offset: 0x126EE4, size: 0x8, addend: 0x0, symName: __ZNSt3__16vectorIN5Eigen6MatrixIdLin1ELin1ELi0ELin1ELin1EEENS_9allocatorIS3_EEE9__end_capB8ue170006Ev, symObjAddr: 0x1317C, symBinAddr: 0x100016D84, symSize: 0x28 }
  - { offsetInCU: 0x126F0A, offset: 0x126F0A, size: 0x8, addend: 0x0, symName: __ZNSt3__117__compressed_pairIPN5Eigen6MatrixIdLin1ELin1ELi0ELin1ELin1EEENS_9allocatorIS3_EEE6secondB8ue170006Ev, symObjAddr: 0x131A4, symBinAddr: 0x100016DAC, symSize: 0x24 }
  - { offsetInCU: 0x126F30, offset: 0x126F30, size: 0x8, addend: 0x0, symName: __ZNSt3__122__compressed_pair_elemINS_9allocatorIN5Eigen6MatrixIdLin1ELin1ELi0ELin1ELin1EEEEELi1ELb1EE5__getB8ue170006Ev, symObjAddr: 0x131C8, symBinAddr: 0x100016DD0, symSize: 0x14 }
  - { offsetInCU: 0x126F56, offset: 0x126F56, size: 0x8, addend: 0x0, symName: __ZNSt3__117__compressed_pairIPN5Eigen6MatrixIdLin1ELin1ELi0ELin1ELin1EEENS_9allocatorIS3_EEEC2B8ue170006IDnS6_EEOT_OT0_, symObjAddr: 0x131DC, symBinAddr: 0x100016DE4, symSize: 0x44 }
  - { offsetInCU: 0x126FAE, offset: 0x126FAE, size: 0x8, addend: 0x0, symName: __ZNSt3__122__compressed_pair_elemIPN5Eigen6MatrixIdLin1ELin1ELi0ELin1ELin1EEELi0ELb0EEC2B8ue170006IDnvEEOT_, symObjAddr: 0x13220, symBinAddr: 0x100016E28, symSize: 0x64 }
  - { offsetInCU: 0x126FF0, offset: 0x126FF0, size: 0x8, addend: 0x0, symName: __ZNSt3__122__compressed_pair_elemINS_9allocatorIN5Eigen6MatrixIdLin1ELin1ELi0ELin1ELin1EEEEELi1ELb1EEC2B8ue170006IS5_vEEOT_, symObjAddr: 0x13284, symBinAddr: 0x100016E8C, symSize: 0x18 }
  - { offsetInCU: 0x127032, offset: 0x127032, size: 0x8, addend: 0x0, symName: __ZNSt3__117__compressed_pairIPN5Eigen6MatrixIdLin1ELin1ELi0ELin1ELin1EEENS_9allocatorIS3_EEE5firstB8ue170006Ev, symObjAddr: 0x1329C, symBinAddr: 0x100016EA4, symSize: 0x24 }
  - { offsetInCU: 0x127058, offset: 0x127058, size: 0x8, addend: 0x0, symName: __ZNSt3__122__compressed_pair_elemIPN5Eigen6MatrixIdLin1ELin1ELi0ELin1ELin1EEELi0ELb0EE5__getB8ue170006Ev, symObjAddr: 0x132C0, symBinAddr: 0x100016EC8, symSize: 0x14 }
  - { offsetInCU: 0x12707E, offset: 0x12707E, size: 0x8, addend: 0x0, symName: __ZN5Eigen6MatrixIdLin1ELin1ELi0ELin1ELin1EEC2EOS1_, symObjAddr: 0x132D4, symBinAddr: 0x100016EDC, symSize: 0x4C }
  - { offsetInCU: 0x1270B7, offset: 0x1270B7, size: 0x8, addend: 0x0, symName: __ZN5Eigen15PlainObjectBaseINS_6MatrixIdLin1ELin1ELi0ELin1ELin1EEEEC2EOS3_, symObjAddr: 0x13320, symBinAddr: 0x100016F28, symSize: 0x50 }
  - { offsetInCU: 0x1270F0, offset: 0x1270F0, size: 0x8, addend: 0x0, symName: __ZN5Eigen15PlainObjectBaseINS_6MatrixIdLin1ELin1ELi0ELin1ELin1EEEE22_check_template_paramsEv, symObjAddr: 0x13370, symBinAddr: 0x100016F78, symSize: 0x4 }
  - { offsetInCU: 0x127104, offset: 0x127104, size: 0x8, addend: 0x0, symName: __ZN5Eigen10MatrixBaseINS_6MatrixIdLin1ELin1ELi0ELin1ELin1EEEEC2Ev, symObjAddr: 0x13374, symBinAddr: 0x100016F7C, symSize: 0x2C }
  - { offsetInCU: 0x12712E, offset: 0x12712E, size: 0x8, addend: 0x0, symName: __ZN5Eigen12DenseStorageIdLin1ELin1ELin1ELi0EEC1EOS1_, symObjAddr: 0x133A0, symBinAddr: 0x100016FA8, symSize: 0x34 }
  - { offsetInCU: 0x127167, offset: 0x127167, size: 0x8, addend: 0x0, symName: __ZN5Eigen9DenseBaseINS_6MatrixIdLin1ELin1ELi0ELin1ELin1EEEEC2Ev, symObjAddr: 0x133D4, symBinAddr: 0x100016FDC, symSize: 0x14 }
  - { offsetInCU: 0x127191, offset: 0x127191, size: 0x8, addend: 0x0, symName: __ZN5Eigen12DenseStorageIdLin1ELin1ELin1ELi0EEC2EOS1_, symObjAddr: 0x133E8, symBinAddr: 0x100016FF0, symSize: 0x280 }
  - { offsetInCU: 0x1271CA, offset: 0x1271CA, size: 0x8, addend: 0x0, symName: __ZN5Eigen6MatrixIdLin1ELi1ELi0ELin1ELi1EEC2EOS1_, symObjAddr: 0x13668, symBinAddr: 0x100017270, symSize: 0x4C }
  - { offsetInCU: 0x127203, offset: 0x127203, size: 0x8, addend: 0x0, symName: __ZN5Eigen15PlainObjectBaseINS_6MatrixIdLin1ELi1ELi0ELin1ELi1EEEEC2EOS3_, symObjAddr: 0x136B4, symBinAddr: 0x1000172BC, symSize: 0x50 }
  - { offsetInCU: 0x12723C, offset: 0x12723C, size: 0x8, addend: 0x0, symName: __ZN5Eigen15PlainObjectBaseINS_6MatrixIdLin1ELi1ELi0ELin1ELi1EEEE22_check_template_paramsEv, symObjAddr: 0x13704, symBinAddr: 0x10001730C, symSize: 0x4 }
  - { offsetInCU: 0x127250, offset: 0x127250, size: 0x8, addend: 0x0, symName: __ZN5Eigen10MatrixBaseINS_6MatrixIdLin1ELi1ELi0ELin1ELi1EEEEC2Ev, symObjAddr: 0x13708, symBinAddr: 0x100017310, symSize: 0x2C }
  - { offsetInCU: 0x12727A, offset: 0x12727A, size: 0x8, addend: 0x0, symName: __ZN5Eigen12DenseStorageIdLin1ELin1ELi1ELi0EEC1EOS1_, symObjAddr: 0x13734, symBinAddr: 0x10001733C, symSize: 0x34 }
  - { offsetInCU: 0x1272B3, offset: 0x1272B3, size: 0x8, addend: 0x0, symName: __ZN5Eigen9DenseBaseINS_6MatrixIdLin1ELi1ELi0ELin1ELi1EEEEC2Ev, symObjAddr: 0x13768, symBinAddr: 0x100017370, symSize: 0x14 }
  - { offsetInCU: 0x1272DD, offset: 0x1272DD, size: 0x8, addend: 0x0, symName: __ZN5Eigen12DenseStorageIdLin1ELin1ELi1ELi0EEC2EOS1_, symObjAddr: 0x1377C, symBinAddr: 0x100017384, symSize: 0x1B8 }
  - { offsetInCU: 0x127316, offset: 0x127316, size: 0x8, addend: 0x0, symName: __ZNSt3__117__compressed_pairIP23TransformerEncoderLayerNS_9allocatorIS1_EEE6secondB8ue170006Ev, symObjAddr: 0x13934, symBinAddr: 0x10001753C, symSize: 0x24 }
  - { offsetInCU: 0x12733C, offset: 0x12733C, size: 0x8, addend: 0x0, symName: __ZNSt3__122__compressed_pair_elemINS_9allocatorI23TransformerEncoderLayerEELi1ELb1EE5__getB8ue170006Ev, symObjAddr: 0x13958, symBinAddr: 0x100017560, symSize: 0x14 }
  - { offsetInCU: 0x127362, offset: 0x127362, size: 0x8, addend: 0x0, symName: __ZNSt3__16vectorI23TransformerEncoderLayerNS_9allocatorIS1_EEE21_ConstructTransactionD2B8ue170006Ev, symObjAddr: 0x1396C, symBinAddr: 0x100017574, symSize: 0x278 }
  - { offsetInCU: 0x12738C, offset: 0x12738C, size: 0x8, addend: 0x0, symName: __ZNKSt3__16vectorI23TransformerEncoderLayerNS_9allocatorIS1_EEE17__annotate_shrinkB8ue170006Em, symObjAddr: 0x13BE4, symBinAddr: 0x1000177EC, symSize: 0xE4 }
  - { offsetInCU: 0x1273C1, offset: 0x1273C1, size: 0x8, addend: 0x0, symName: __ZNKSt3__16vectorI23TransformerEncoderLayerNS_9allocatorIS1_EEE11__recommendB8ue170006Em, symObjAddr: 0x13CC8, symBinAddr: 0x1000178D0, symSize: 0x384 }
  - { offsetInCU: 0x12741D, offset: 0x12741D, size: 0x8, addend: 0x0, symName: __ZNSt3__114__split_bufferI23TransformerEncoderLayerRNS_9allocatorIS1_EEEC1EmmS4_, symObjAddr: 0x1404C, symBinAddr: 0x100017C54, symSize: 0x44 }
  - { offsetInCU: 0x127473, offset: 0x127473, size: 0x8, addend: 0x0, symName: __ZNSt3__114__split_bufferI23TransformerEncoderLayerRNS_9allocatorIS1_EEED1Ev, symObjAddr: 0x145FC, symBinAddr: 0x100018204, symSize: 0x2C }
  - { offsetInCU: 0x12749F, offset: 0x12749F, size: 0x8, addend: 0x0, symName: __ZNKSt3__16vectorI23TransformerEncoderLayerNS_9allocatorIS1_EEE8max_sizeEv, symObjAddr: 0x14628, symBinAddr: 0x100018230, symSize: 0x2FC }
  - { offsetInCU: 0x1274C8, offset: 0x1274C8, size: 0x8, addend: 0x0, symName: __ZNKSt3__16vectorI23TransformerEncoderLayerNS_9allocatorIS1_EEE20__throw_length_errorB8ue170006Ev, symObjAddr: 0x14924, symBinAddr: 0x10001852C, symSize: 0x20 }
  - { offsetInCU: 0x1274F8, offset: 0x1274F8, size: 0x8, addend: 0x0, symName: __ZNSt3__116allocator_traitsINS_9allocatorI23TransformerEncoderLayerEEE8max_sizeB8ue170006IS3_vEEmRKS3_, symObjAddr: 0x1499C, symBinAddr: 0x1000185A4, symSize: 0x24 }
  - { offsetInCU: 0x127526, offset: 0x127526, size: 0x8, addend: 0x0, symName: __ZNKSt3__16vectorI23TransformerEncoderLayerNS_9allocatorIS1_EEE7__allocB8ue170006Ev, symObjAddr: 0x149C0, symBinAddr: 0x1000185C8, symSize: 0x28 }
  - { offsetInCU: 0x12754C, offset: 0x12754C, size: 0x8, addend: 0x0, symName: __ZNSt3__114numeric_limitsIlE3maxB8ue170006Ev, symObjAddr: 0x149E8, symBinAddr: 0x1000185F0, symSize: 0x14 }
  - { offsetInCU: 0x127574, offset: 0x127574, size: 0x8, addend: 0x0, symName: __ZNKSt3__16__lessIvvEclB8ue170006ImmEEbRKT_RKT0_, symObjAddr: 0x14BE4, symBinAddr: 0x1000187EC, symSize: 0xBC }
  - { offsetInCU: 0x1275C8, offset: 0x1275C8, size: 0x8, addend: 0x0, symName: __ZNKSt3__19allocatorI23TransformerEncoderLayerE8max_sizeB8ue170006Ev, symObjAddr: 0x14CA0, symBinAddr: 0x1000188A8, symSize: 0x18 }
  - { offsetInCU: 0x1275EE, offset: 0x1275EE, size: 0x8, addend: 0x0, symName: __ZNKSt3__117__compressed_pairIP23TransformerEncoderLayerNS_9allocatorIS1_EEE6secondB8ue170006Ev, symObjAddr: 0x14CB8, symBinAddr: 0x1000188C0, symSize: 0x24 }
  - { offsetInCU: 0x127614, offset: 0x127614, size: 0x8, addend: 0x0, symName: __ZNKSt3__122__compressed_pair_elemINS_9allocatorI23TransformerEncoderLayerEELi1ELb1EE5__getB8ue170006Ev, symObjAddr: 0x14CDC, symBinAddr: 0x1000188E4, symSize: 0x14 }
  - { offsetInCU: 0x12763A, offset: 0x12763A, size: 0x8, addend: 0x0, symName: __ZNSt3__123__libcpp_numeric_limitsIlLb1EE3maxB8ue170006Ev, symObjAddr: 0x14CF0, symBinAddr: 0x1000188F8, symSize: 0x8 }
  - { offsetInCU: 0x12764E, offset: 0x12764E, size: 0x8, addend: 0x0, symName: __ZNSt12length_errorC1B8ue170006EPKc, symObjAddr: 0x14D60, symBinAddr: 0x100018968, symSize: 0x34 }
  - { offsetInCU: 0x127686, offset: 0x127686, size: 0x8, addend: 0x0, symName: __ZNSt12length_errorC2B8ue170006EPKc, symObjAddr: 0x14D94, symBinAddr: 0x10001899C, symSize: 0x8C }
  - { offsetInCU: 0x1276BE, offset: 0x1276BE, size: 0x8, addend: 0x0, symName: __ZNSt3__114__split_bufferI23TransformerEncoderLayerRNS_9allocatorIS1_EEEC2EmmS4_, symObjAddr: 0x15008, symBinAddr: 0x100018C10, symSize: 0x530 }
  - { offsetInCU: 0x127739, offset: 0x127739, size: 0x8, addend: 0x0, symName: __ZNSt3__117__compressed_pairIP23TransformerEncoderLayerRNS_9allocatorIS1_EEEC1B8ue170006IDnS5_EEOT_OT0_, symObjAddr: 0x15538, symBinAddr: 0x100019140, symSize: 0x3C }
  - { offsetInCU: 0x127791, offset: 0x127791, size: 0x8, addend: 0x0, symName: __ZNSt3__114__split_bufferI23TransformerEncoderLayerRNS_9allocatorIS1_EEE7__allocB8ue170006Ev, symObjAddr: 0x15800, symBinAddr: 0x100019408, symSize: 0x28 }
  - { offsetInCU: 0x1277B7, offset: 0x1277B7, size: 0x8, addend: 0x0, symName: __ZNSt3__114__split_bufferI23TransformerEncoderLayerRNS_9allocatorIS1_EEE9__end_capB8ue170006Ev, symObjAddr: 0x15828, symBinAddr: 0x100019430, symSize: 0x28 }
  - { offsetInCU: 0x1277DD, offset: 0x1277DD, size: 0x8, addend: 0x0, symName: __ZNSt3__117__compressed_pairIP23TransformerEncoderLayerRNS_9allocatorIS1_EEEC2B8ue170006IDnS5_EEOT_OT0_, symObjAddr: 0x15850, symBinAddr: 0x100019458, symSize: 0x48 }
  - { offsetInCU: 0x127835, offset: 0x127835, size: 0x8, addend: 0x0, symName: __ZNSt3__122__compressed_pair_elemIRNS_9allocatorI23TransformerEncoderLayerEELi1ELb0EEC2B8ue170006IS4_vEEOT_, symObjAddr: 0x15898, symBinAddr: 0x1000194A0, symSize: 0x70 }
  - { offsetInCU: 0x127877, offset: 0x127877, size: 0x8, addend: 0x0, symName: __ZNSt3__19allocatorI23TransformerEncoderLayerE8allocateB8ue170006Em, symObjAddr: 0x15908, symBinAddr: 0x100019510, symSize: 0x60 }
  - { offsetInCU: 0x1278AB, offset: 0x1278AB, size: 0x8, addend: 0x0, symName: __ZNSt3__117__compressed_pairIP23TransformerEncoderLayerRNS_9allocatorIS1_EEE6secondB8ue170006Ev, symObjAddr: 0x159EC, symBinAddr: 0x1000195F4, symSize: 0x28 }
  - { offsetInCU: 0x1278D1, offset: 0x1278D1, size: 0x8, addend: 0x0, symName: __ZNSt3__122__compressed_pair_elemIRNS_9allocatorI23TransformerEncoderLayerEELi1ELb0EE5__getB8ue170006Ev, symObjAddr: 0x15A14, symBinAddr: 0x10001961C, symSize: 0x60 }
  - { offsetInCU: 0x1278F7, offset: 0x1278F7, size: 0x8, addend: 0x0, symName: __ZNSt3__117__compressed_pairIP23TransformerEncoderLayerRNS_9allocatorIS1_EEE5firstB8ue170006Ev, symObjAddr: 0x15A74, symBinAddr: 0x10001967C, symSize: 0x24 }
  - { offsetInCU: 0x12791D, offset: 0x12791D, size: 0x8, addend: 0x0, symName: __ZNKSt3__16vectorI23TransformerEncoderLayerNS_9allocatorIS1_EEE17__annotate_deleteB8ue170006Ev, symObjAddr: 0x15A98, symBinAddr: 0x1000196A0, symSize: 0xE8 }
  - { offsetInCU: 0x127943, offset: 0x127943, size: 0x8, addend: 0x0, symName: __ZNSt3__116reverse_iteratorIP23TransformerEncoderLayerEC1B8ue170006ES2_, symObjAddr: 0x160C4, symBinAddr: 0x100019CCC, symSize: 0x34 }
  - { offsetInCU: 0x12797B, offset: 0x12797B, size: 0x8, addend: 0x0, symName: __ZNKSt3__116reverse_iteratorIP23TransformerEncoderLayerE4baseB8ue170006Ev, symObjAddr: 0x160F8, symBinAddr: 0x100019D00, symSize: 0x64 }
  - { offsetInCU: 0x1279A1, offset: 0x1279A1, size: 0x8, addend: 0x0, symName: __ZNKSt3__16vectorI23TransformerEncoderLayerNS_9allocatorIS1_EEE14__annotate_newB8ue170006Em, symObjAddr: 0x16290, symBinAddr: 0x100019E98, symSize: 0xDC }
  - { offsetInCU: 0x1279D6, offset: 0x1279D6, size: 0x8, addend: 0x0, symName: __ZNSt3__129_AllocatorDestroyRangeReverseINS_9allocatorI23TransformerEncoderLayerEENS_16reverse_iteratorIPS2_EEEC1B8ue170006ERS3_RS6_S9_, symObjAddr: 0x16564, symBinAddr: 0x10001A16C, symSize: 0x44 }
  - { offsetInCU: 0x127A2D, offset: 0x127A2D, size: 0x8, addend: 0x0, symName: __ZNKSt3__116reverse_iteratorIP23TransformerEncoderLayerEdeB8ue170006Ev, symObjAddr: 0x16614, symBinAddr: 0x10001A21C, symSize: 0x74 }
  - { offsetInCU: 0x127A61, offset: 0x127A61, size: 0x8, addend: 0x0, symName: __ZNSt3__116reverse_iteratorIP23TransformerEncoderLayerEppB8ue170006Ev, symObjAddr: 0x16688, symBinAddr: 0x10001A290, symSize: 0x6C }
  - { offsetInCU: 0x127A87, offset: 0x127A87, size: 0x8, addend: 0x0, symName: __ZNSt3__128__exception_guard_exceptionsINS_29_AllocatorDestroyRangeReverseINS_9allocatorI23TransformerEncoderLayerEENS_16reverse_iteratorIPS3_EEEEE10__completeB8ue170006Ev, symObjAddr: 0x166F4, symBinAddr: 0x10001A2FC, symSize: 0x8C }
  - { offsetInCU: 0x127AAD, offset: 0x127AAD, size: 0x8, addend: 0x0, symName: __ZNSt3__128__exception_guard_exceptionsINS_29_AllocatorDestroyRangeReverseINS_9allocatorI23TransformerEncoderLayerEENS_16reverse_iteratorIPS3_EEEEED1B8ue170006Ev, symObjAddr: 0x16780, symBinAddr: 0x10001A388, symSize: 0x2C }
  - { offsetInCU: 0x127AD7, offset: 0x127AD7, size: 0x8, addend: 0x0, symName: __ZNSt3__128__exception_guard_exceptionsINS_29_AllocatorDestroyRangeReverseINS_9allocatorI23TransformerEncoderLayerEENS_16reverse_iteratorIPS3_EEEEEC1B8ue170006ES8_, symObjAddr: 0x167AC, symBinAddr: 0x10001A3B4, symSize: 0x34 }
  - { offsetInCU: 0x127B10, offset: 0x127B10, size: 0x8, addend: 0x0, symName: __ZNSt3__128__exception_guard_exceptionsINS_29_AllocatorDestroyRangeReverseINS_9allocatorI23TransformerEncoderLayerEENS_16reverse_iteratorIPS3_EEEEEC2B8ue170006ES8_, symObjAddr: 0x167E0, symBinAddr: 0x10001A3E8, symSize: 0xA4 }
  - { offsetInCU: 0x127B49, offset: 0x127B49, size: 0x8, addend: 0x0, symName: __ZNSt3__129_AllocatorDestroyRangeReverseINS_9allocatorI23TransformerEncoderLayerEENS_16reverse_iteratorIPS2_EEEC2B8ue170006ERS3_RS6_S9_, symObjAddr: 0x16884, symBinAddr: 0x10001A48C, symSize: 0x104 }
  - { offsetInCU: 0x127BA5, offset: 0x127BA5, size: 0x8, addend: 0x0, symName: __ZNSt3__119__to_address_helperINS_16reverse_iteratorIP23TransformerEncoderLayerEEvE6__callB8ue170006ERKS4_, symObjAddr: 0x16988, symBinAddr: 0x10001A590, symSize: 0x44 }
  - { offsetInCU: 0x127BC8, offset: 0x127BC8, size: 0x8, addend: 0x0, symName: __ZNKSt3__116reverse_iteratorIP23TransformerEncoderLayerEptB8ue170006Ev, symObjAddr: 0x169CC, symBinAddr: 0x10001A5D4, symSize: 0x24 }
  - { offsetInCU: 0x127BEE, offset: 0x127BEE, size: 0x8, addend: 0x0, symName: __ZNSt3__128__exception_guard_exceptionsINS_29_AllocatorDestroyRangeReverseINS_9allocatorI23TransformerEncoderLayerEENS_16reverse_iteratorIPS3_EEEEED2B8ue170006Ev, symObjAddr: 0x169F0, symBinAddr: 0x10001A5F8, symSize: 0xBC }
  - { offsetInCU: 0x127C18, offset: 0x127C18, size: 0x8, addend: 0x0, symName: __ZNKSt3__129_AllocatorDestroyRangeReverseINS_9allocatorI23TransformerEncoderLayerEENS_16reverse_iteratorIPS2_EEEclB8ue170006Ev, symObjAddr: 0x16AAC, symBinAddr: 0x10001A6B4, symSize: 0x3A8 }
  - { offsetInCU: 0x127C3F, offset: 0x127C3F, size: 0x8, addend: 0x0, symName: __ZNSt3__116reverse_iteratorINS0_IP23TransformerEncoderLayerEEEC1B8ue170006ES3_, symObjAddr: 0x16EC4, symBinAddr: 0x10001AACC, symSize: 0x248 }
  - { offsetInCU: 0x127C7C, offset: 0x127C7C, size: 0x8, addend: 0x0, symName: __ZNSt3__116allocator_traitsINS_9allocatorI23TransformerEncoderLayerEEE7destroyB8ue170006IS2_vEEvRS3_PT_, symObjAddr: 0x173D8, symBinAddr: 0x10001AFE0, symSize: 0x2C }
  - { offsetInCU: 0x127CB9, offset: 0x127CB9, size: 0x8, addend: 0x0, symName: __ZNSt3__116reverse_iteratorINS0_IP23TransformerEncoderLayerEEEppB8ue170006Ev, symObjAddr: 0x17428, symBinAddr: 0x10001B030, symSize: 0x30 }
  - { offsetInCU: 0x127CDF, offset: 0x127CDF, size: 0x8, addend: 0x0, symName: __ZNKSt3__116reverse_iteratorINS0_IP23TransformerEncoderLayerEEE4baseB8ue170006Ev, symObjAddr: 0x17458, symBinAddr: 0x10001B060, symSize: 0x20C }
  - { offsetInCU: 0x127D06, offset: 0x127D06, size: 0x8, addend: 0x0, symName: __ZNSt3__19allocatorI23TransformerEncoderLayerE7destroyB8ue170006EPS1_, symObjAddr: 0x17664, symBinAddr: 0x10001B26C, symSize: 0x28 }
  - { offsetInCU: 0x127D3F, offset: 0x127D3F, size: 0x8, addend: 0x0, symName: __ZNSt3__119__to_address_helperINS_16reverse_iteratorINS1_IP23TransformerEncoderLayerEEEEvE6__callB8ue170006ERKS5_, symObjAddr: 0x1768C, symBinAddr: 0x10001B294, symSize: 0x44 }
  - { offsetInCU: 0x127D62, offset: 0x127D62, size: 0x8, addend: 0x0, symName: __ZNKSt3__116reverse_iteratorINS0_IP23TransformerEncoderLayerEEEptB8ue170006Ev, symObjAddr: 0x176D0, symBinAddr: 0x10001B2D8, symSize: 0x24 }
  - { offsetInCU: 0x127D88, offset: 0x127D88, size: 0x8, addend: 0x0, symName: __ZNKSt3__116reverse_iteratorINS0_IP23TransformerEncoderLayerEEEdeB8ue170006Ev, symObjAddr: 0x176F4, symBinAddr: 0x10001B2FC, symSize: 0x1EC }
  - { offsetInCU: 0x127DC1, offset: 0x127DC1, size: 0x8, addend: 0x0, symName: __ZNSt3__116reverse_iteratorIP23TransformerEncoderLayerEmmB8ue170006Ev, symObjAddr: 0x178E0, symBinAddr: 0x10001B4E8, symSize: 0x6C }
  - { offsetInCU: 0x127DE7, offset: 0x127DE7, size: 0x8, addend: 0x0, symName: __ZNSt3__116reverse_iteratorINS0_IP23TransformerEncoderLayerEEEC2B8ue170006ES3_, symObjAddr: 0x1794C, symBinAddr: 0x10001B554, symSize: 0x22C }
  - { offsetInCU: 0x127E24, offset: 0x127E24, size: 0x8, addend: 0x0, symName: __ZNSt3__116reverse_iteratorIP23TransformerEncoderLayerEC2B8ue170006ES2_, symObjAddr: 0x17B78, symBinAddr: 0x10001B780, symSize: 0xB8 }
  - { offsetInCU: 0x127E5C, offset: 0x127E5C, size: 0x8, addend: 0x0, symName: __ZNSt3__114__split_bufferI23TransformerEncoderLayerRNS_9allocatorIS1_EEED2Ev, symObjAddr: 0x17C30, symBinAddr: 0x10001B838, symSize: 0x104 }
  - { offsetInCU: 0x127E88, offset: 0x127E88, size: 0x8, addend: 0x0, symName: __ZNSt3__114__split_bufferI23TransformerEncoderLayerRNS_9allocatorIS1_EEE5clearB8ue170006Ev, symObjAddr: 0x17D34, symBinAddr: 0x10001B93C, symSize: 0x68 }
  - { offsetInCU: 0x127EAE, offset: 0x127EAE, size: 0x8, addend: 0x0, symName: __ZNSt3__116allocator_traitsINS_9allocatorI23TransformerEncoderLayerEEE10deallocateB8ue170006ERS3_PS2_m, symObjAddr: 0x17D9C, symBinAddr: 0x10001B9A4, symSize: 0x34 }
  - { offsetInCU: 0x127EF0, offset: 0x127EF0, size: 0x8, addend: 0x0, symName: __ZNKSt3__114__split_bufferI23TransformerEncoderLayerRNS_9allocatorIS1_EEE8capacityB8ue170006Ev, symObjAddr: 0x17DD0, symBinAddr: 0x10001B9D8, symSize: 0xBC }
  - { offsetInCU: 0x127F16, offset: 0x127F16, size: 0x8, addend: 0x0, symName: __ZNSt3__114__split_bufferI23TransformerEncoderLayerRNS_9allocatorIS1_EEE17__destruct_at_endB8ue170006EPS1_, symObjAddr: 0x17E8C, symBinAddr: 0x10001BA94, symSize: 0x2C }
  - { offsetInCU: 0x127F4A, offset: 0x127F4A, size: 0x8, addend: 0x0, symName: __ZNSt3__114__split_bufferI23TransformerEncoderLayerRNS_9allocatorIS1_EEE17__destruct_at_endB8ue170006EPS1_NS_17integral_constantIbLb0EEE, symObjAddr: 0x17EB8, symBinAddr: 0x10001BAC0, symSize: 0x10C }
  - { offsetInCU: 0x127F8A, offset: 0x127F8A, size: 0x8, addend: 0x0, symName: __ZNSt3__19allocatorI23TransformerEncoderLayerE10deallocateB8ue170006EPS1_m, symObjAddr: 0x17FC4, symBinAddr: 0x10001BBCC, symSize: 0x50 }
  - { offsetInCU: 0x127FCC, offset: 0x127FCC, size: 0x8, addend: 0x0, symName: __ZNKSt3__114__split_bufferI23TransformerEncoderLayerRNS_9allocatorIS1_EEE9__end_capB8ue170006Ev, symObjAddr: 0x18090, symBinAddr: 0x10001BC98, symSize: 0x28 }
  - { offsetInCU: 0x127FF2, offset: 0x127FF2, size: 0x8, addend: 0x0, symName: __ZNKSt3__117__compressed_pairIP23TransformerEncoderLayerRNS_9allocatorIS1_EEE5firstB8ue170006Ev, symObjAddr: 0x180B8, symBinAddr: 0x10001BCC0, symSize: 0x24 }
  - { offsetInCU: 0x128018, offset: 0x128018, size: 0x8, addend: 0x0, symName: __ZN23TransformerEncoderLayerC2Eiii, symObjAddr: 0x180DC, symBinAddr: 0x10001BCE4, symSize: 0xCA0 }
  - { offsetInCU: 0x128070, offset: 0x128070, size: 0x8, addend: 0x0, symName: __ZN18MultiHeadAttentionC1Eii, symObjAddr: 0x18D7C, symBinAddr: 0x10001C984, symSize: 0x3C }
  - { offsetInCU: 0x1280B6, offset: 0x1280B6, size: 0x8, addend: 0x0, symName: __ZN5Eigen6MatrixIdLin1ELin1ELi0ELin1ELin1EEC1INS_13CwiseBinaryOpINS_8internal17scalar_product_opIddEEKNS_14CwiseNullaryOpINS4_16scalar_random_opIdEES1_EEKNS7_INS4_18scalar_constant_opIdEEKS1_EEEEEERKT_, symObjAddr: 0x18DB8, symBinAddr: 0x10001C9C0, symSize: 0x34 }
  - { offsetInCU: 0x1280F8, offset: 0x1280F8, size: 0x8, addend: 0x0, symName: __ZN5Eigen6MatrixIdLin1ELi1ELi0ELin1ELi1EEC1INS_13CwiseBinaryOpINS_8internal17scalar_product_opIddEEKNS_14CwiseNullaryOpINS4_16scalar_random_opIdEES1_EEKNS7_INS4_18scalar_constant_opIdEEKS1_EEEEEERKT_, symObjAddr: 0x18DEC, symBinAddr: 0x10001C9F4, symSize: 0x34 }
  - { offsetInCU: 0x12813A, offset: 0x12813A, size: 0x8, addend: 0x0, symName: __ZN18MultiHeadAttentionD1Ev, symObjAddr: 0x18E20, symBinAddr: 0x10001CA28, symSize: 0x2C }
  - { offsetInCU: 0x128166, offset: 0x128166, size: 0x8, addend: 0x0, symName: __ZN18MultiHeadAttentionC2Eii, symObjAddr: 0x18E4C, symBinAddr: 0x10001CA54, symSize: 0x280 }
  - { offsetInCU: 0x1281AC, offset: 0x1281AC, size: 0x8, addend: 0x0, symName: __ZNSt3__16vectorIN5Eigen6MatrixIdLin1ELin1ELi0ELin1ELin1EEENS_9allocatorIS3_EEEC1B8ue170006Ev, symObjAddr: 0x190CC, symBinAddr: 0x10001CCD4, symSize: 0x2C }
  - { offsetInCU: 0x1281D6, offset: 0x1281D6, size: 0x8, addend: 0x0, symName: __ZN5Eigen6MatrixIdLin1ELin1ELi0ELin1ELin1EEC1Ev, symObjAddr: 0x190F8, symBinAddr: 0x10001CD00, symSize: 0x2C }
  - { offsetInCU: 0x128200, offset: 0x128200, size: 0x8, addend: 0x0, symName: __ZN18MultiHeadAttention18initialize_weightsEv, symObjAddr: 0x19124, symBinAddr: 0x10001CD2C, symSize: 0xC64 }
  - { offsetInCU: 0x12823C, offset: 0x12823C, size: 0x8, addend: 0x0, symName: __ZNSt3__16vectorIN5Eigen6MatrixIdLin1ELin1ELi0ELin1ELin1EEENS_9allocatorIS3_EEED1B8ue170006Ev, symObjAddr: 0x19D88, symBinAddr: 0x10001D990, symSize: 0x2C }
  - { offsetInCU: 0x128266, offset: 0x128266, size: 0x8, addend: 0x0, symName: __ZNSt3__16vectorIN5Eigen6MatrixIdLin1ELin1ELi0ELin1ELin1EEENS_9allocatorIS3_EEEC2B8ue170006Ev, symObjAddr: 0x19DB4, symBinAddr: 0x10001D9BC, symSize: 0x2E8 }
  - { offsetInCU: 0x128291, offset: 0x128291, size: 0x8, addend: 0x0, symName: __ZNSt3__117__compressed_pairIPN5Eigen6MatrixIdLin1ELin1ELi0ELin1ELin1EEENS_9allocatorIS3_EEEC1B8ue170006IDnNS_18__default_init_tagEEEOT_OT0_, symObjAddr: 0x1A09C, symBinAddr: 0x10001DCA4, symSize: 0x3C }
  - { offsetInCU: 0x1282E9, offset: 0x1282E9, size: 0x8, addend: 0x0, symName: __ZNSt3__117__compressed_pairIPN5Eigen6MatrixIdLin1ELin1ELi0ELin1ELin1EEENS_9allocatorIS3_EEEC2B8ue170006IDnNS_18__default_init_tagEEEOT_OT0_, symObjAddr: 0x1A0D8, symBinAddr: 0x10001DCE0, symSize: 0x40 }
  - { offsetInCU: 0x128341, offset: 0x128341, size: 0x8, addend: 0x0, symName: __ZNSt3__122__compressed_pair_elemINS_9allocatorIN5Eigen6MatrixIdLin1ELin1ELi0ELin1ELin1EEEEELi1ELb1EEC2B8ue170006ENS_18__default_init_tagE, symObjAddr: 0x1A118, symBinAddr: 0x10001DD20, symSize: 0x2C }
  - { offsetInCU: 0x128375, offset: 0x128375, size: 0x8, addend: 0x0, symName: __ZNSt3__19allocatorIN5Eigen6MatrixIdLin1ELin1ELi0ELin1ELin1EEEEC2B8ue170006Ev, symObjAddr: 0x1A144, symBinAddr: 0x10001DD4C, symSize: 0x2C }
  - { offsetInCU: 0x12839F, offset: 0x12839F, size: 0x8, addend: 0x0, symName: __ZNSt3__116__non_trivial_ifILb1ENS_9allocatorIN5Eigen6MatrixIdLin1ELin1ELi0ELin1ELin1EEEEEEC2B8ue170006Ev, symObjAddr: 0x1A170, symBinAddr: 0x10001DD78, symSize: 0x14 }
  - { offsetInCU: 0x1283C9, offset: 0x1283C9, size: 0x8, addend: 0x0, symName: __ZN5Eigen6MatrixIdLin1ELin1ELi0ELin1ELin1EEC2Ev, symObjAddr: 0x1A184, symBinAddr: 0x10001DD8C, symSize: 0x30 }
  - { offsetInCU: 0x1283F3, offset: 0x1283F3, size: 0x8, addend: 0x0, symName: __ZN5Eigen15PlainObjectBaseINS_6MatrixIdLin1ELin1ELi0ELin1ELin1EEEEC2Ev, symObjAddr: 0x1A1B4, symBinAddr: 0x10001DDBC, symSize: 0x34 }
  - { offsetInCU: 0x12841D, offset: 0x12841D, size: 0x8, addend: 0x0, symName: __ZN5Eigen12DenseStorageIdLin1ELin1ELin1ELi0EEC1Ev, symObjAddr: 0x1A1E8, symBinAddr: 0x10001DDF0, symSize: 0x2C }
  - { offsetInCU: 0x128447, offset: 0x128447, size: 0x8, addend: 0x0, symName: __ZN5Eigen12DenseStorageIdLin1ELin1ELin1ELi0EEC2Ev, symObjAddr: 0x1A214, symBinAddr: 0x10001DE1C, symSize: 0xD4 }
  - { offsetInCU: 0x128471, offset: 0x128471, size: 0x8, addend: 0x0, symName: __ZNSt3__16vectorIN5Eigen6MatrixIdLin1ELin1ELi0ELin1ELin1EEENS_9allocatorIS3_EEE9push_backB8ue170006EOS3_, symObjAddr: 0x1A2E8, symBinAddr: 0x10001DEF0, symSize: 0xE0 }
  - { offsetInCU: 0x1284A8, offset: 0x1284A8, size: 0x8, addend: 0x0, symName: __ZN5Eigen6MatrixIdLin1ELin1ELi0ELin1ELin1EEaSINS_13CwiseBinaryOpINS_8internal17scalar_product_opIddEEKNS_14CwiseNullaryOpINS4_16scalar_random_opIdEES1_EEKNS7_INS4_18scalar_constant_opIdEEKS1_EEEEEERS1_RKNS_9DenseBaseIT_EE, symObjAddr: 0x1A3C8, symBinAddr: 0x10001DFD0, symSize: 0x2C }
  - { offsetInCU: 0x1284E5, offset: 0x1284E5, size: 0x8, addend: 0x0, symName: __ZNSt3__16vectorIN5Eigen6MatrixIdLin1ELin1ELi0ELin1ELin1EEENS_9allocatorIS3_EEE22__construct_one_at_endB8ue170006IJS3_EEEvDpOT_, symObjAddr: 0x1A3F4, symBinAddr: 0x10001DFFC, symSize: 0x36C }
  - { offsetInCU: 0x12853A, offset: 0x12853A, size: 0x8, addend: 0x0, symName: __ZNSt3__16vectorIN5Eigen6MatrixIdLin1ELin1ELi0ELin1ELin1EEENS_9allocatorIS3_EEE21__push_back_slow_pathIS3_EEvOT_, symObjAddr: 0x1A760, symBinAddr: 0x10001E368, symSize: 0x3C0 }
  - { offsetInCU: 0x1285B8, offset: 0x1285B8, size: 0x8, addend: 0x0, symName: __ZNSt3__16vectorIN5Eigen6MatrixIdLin1ELin1ELi0ELin1ELin1EEENS_9allocatorIS3_EEE21_ConstructTransactionC1B8ue170006ERS6_m, symObjAddr: 0x1AB20, symBinAddr: 0x10001E728, symSize: 0x3C }
  - { offsetInCU: 0x128600, offset: 0x128600, size: 0x8, addend: 0x0, symName: __ZNSt3__116allocator_traitsINS_9allocatorIN5Eigen6MatrixIdLin1ELin1ELi0ELin1ELin1EEEEEE9constructB8ue170006IS4_JS4_EvEEvRS5_PT_DpOT0_, symObjAddr: 0x1AB5C, symBinAddr: 0x10001E764, symSize: 0x34 }
  - { offsetInCU: 0x128657, offset: 0x128657, size: 0x8, addend: 0x0, symName: __ZNSt3__16vectorIN5Eigen6MatrixIdLin1ELin1ELi0ELin1ELin1EEENS_9allocatorIS3_EEE21_ConstructTransactionD1B8ue170006Ev, symObjAddr: 0x1ABA4, symBinAddr: 0x10001E7AC, symSize: 0x2C }
  - { offsetInCU: 0x128681, offset: 0x128681, size: 0x8, addend: 0x0, symName: __ZNSt3__16vectorIN5Eigen6MatrixIdLin1ELin1ELi0ELin1ELin1EEENS_9allocatorIS3_EEE21_ConstructTransactionC2B8ue170006ERS6_m, symObjAddr: 0x1ABD0, symBinAddr: 0x10001E7D8, symSize: 0x1D8 }
  - { offsetInCU: 0x1286C9, offset: 0x1286C9, size: 0x8, addend: 0x0, symName: __ZNKSt3__16vectorIN5Eigen6MatrixIdLin1ELin1ELi0ELin1ELin1EEENS_9allocatorIS3_EEE19__annotate_increaseB8ue170006Em, symObjAddr: 0x1ADA8, symBinAddr: 0x10001E9B0, symSize: 0xF8 }
  - { offsetInCU: 0x1286FE, offset: 0x1286FE, size: 0x8, addend: 0x0, symName: __ZNKSt3__16vectorIN5Eigen6MatrixIdLin1ELin1ELi0ELin1ELin1EEENS_9allocatorIS3_EEE31__annotate_contiguous_containerEPKvS8_S8_S8_, symObjAddr: 0x1AEA0, symBinAddr: 0x10001EAA8, symSize: 0x58 }
  - { offsetInCU: 0x128760, offset: 0x128760, size: 0x8, addend: 0x0, symName: __ZNKSt3__16vectorIN5Eigen6MatrixIdLin1ELin1ELi0ELin1ELin1EEENS_9allocatorIS3_EEE4dataB8ue170006Ev, symObjAddr: 0x1AEF8, symBinAddr: 0x10001EB00, symSize: 0x64 }
  - { offsetInCU: 0x128786, offset: 0x128786, size: 0x8, addend: 0x0, symName: __ZNKSt3__16vectorIN5Eigen6MatrixIdLin1ELin1ELi0ELin1ELin1EEENS_9allocatorIS3_EEE8capacityB8ue170006Ev, symObjAddr: 0x1AF5C, symBinAddr: 0x10001EB64, symSize: 0xBC }
  - { offsetInCU: 0x1287AC, offset: 0x1287AC, size: 0x8, addend: 0x0, symName: __ZNKSt3__16vectorIN5Eigen6MatrixIdLin1ELin1ELi0ELin1ELin1EEENS_9allocatorIS3_EEE4sizeB8ue170006Ev, symObjAddr: 0x1B018, symBinAddr: 0x10001EC20, symSize: 0xB0 }
  - { offsetInCU: 0x1287D2, offset: 0x1287D2, size: 0x8, addend: 0x0, symName: __ZNKSt3__16vectorIN5Eigen6MatrixIdLin1ELin1ELi0ELin1ELin1EEENS_9allocatorIS3_EEE9__end_capB8ue170006Ev, symObjAddr: 0x1B0C8, symBinAddr: 0x10001ECD0, symSize: 0x28 }
  - { offsetInCU: 0x1287F8, offset: 0x1287F8, size: 0x8, addend: 0x0, symName: __ZNKSt3__117__compressed_pairIPN5Eigen6MatrixIdLin1ELin1ELi0ELin1ELin1EEENS_9allocatorIS3_EEE5firstB8ue170006Ev, symObjAddr: 0x1B0F0, symBinAddr: 0x10001ECF8, symSize: 0x24 }
  - { offsetInCU: 0x12881E, offset: 0x12881E, size: 0x8, addend: 0x0, symName: __ZNKSt3__122__compressed_pair_elemIPN5Eigen6MatrixIdLin1ELin1ELi0ELin1ELin1EEELi0ELb0EE5__getB8ue170006Ev, symObjAddr: 0x1B114, symBinAddr: 0x10001ED1C, symSize: 0x14 }
  - { offsetInCU: 0x128844, offset: 0x128844, size: 0x8, addend: 0x0, symName: __ZNSt3__19allocatorIN5Eigen6MatrixIdLin1ELin1ELi0ELin1ELin1EEEE9constructB8ue170006IS3_JS3_EEEvPT_DpOT0_, symObjAddr: 0x1B128, symBinAddr: 0x10001ED30, symSize: 0x30 }
  - { offsetInCU: 0x12889A, offset: 0x12889A, size: 0x8, addend: 0x0, symName: __ZNSt3__16vectorIN5Eigen6MatrixIdLin1ELin1ELi0ELin1ELin1EEENS_9allocatorIS3_EEE21_ConstructTransactionD2B8ue170006Ev, symObjAddr: 0x1B158, symBinAddr: 0x10001ED60, symSize: 0x278 }
  - { offsetInCU: 0x1288C4, offset: 0x1288C4, size: 0x8, addend: 0x0, symName: __ZNKSt3__16vectorIN5Eigen6MatrixIdLin1ELin1ELi0ELin1ELin1EEENS_9allocatorIS3_EEE17__annotate_shrinkB8ue170006Em, symObjAddr: 0x1B3D0, symBinAddr: 0x10001EFD8, symSize: 0xE4 }
  - { offsetInCU: 0x1288F9, offset: 0x1288F9, size: 0x8, addend: 0x0, symName: __ZNKSt3__16vectorIN5Eigen6MatrixIdLin1ELin1ELi0ELin1ELin1EEENS_9allocatorIS3_EEE11__recommendB8ue170006Em, symObjAddr: 0x1B4B4, symBinAddr: 0x10001F0BC, symSize: 0x384 }
  - { offsetInCU: 0x128955, offset: 0x128955, size: 0x8, addend: 0x0, symName: __ZNSt3__114__split_bufferIN5Eigen6MatrixIdLin1ELin1ELi0ELin1ELin1EEERNS_9allocatorIS3_EEEC1EmmS6_, symObjAddr: 0x1B838, symBinAddr: 0x10001F440, symSize: 0x44 }
  - { offsetInCU: 0x1289AB, offset: 0x1289AB, size: 0x8, addend: 0x0, symName: __ZNSt3__114__split_bufferIN5Eigen6MatrixIdLin1ELin1ELi0ELin1ELin1EEERNS_9allocatorIS3_EEED1Ev, symObjAddr: 0x1BDE8, symBinAddr: 0x10001F9F0, symSize: 0x2C }
  - { offsetInCU: 0x1289D7, offset: 0x1289D7, size: 0x8, addend: 0x0, symName: __ZNKSt3__16vectorIN5Eigen6MatrixIdLin1ELin1ELi0ELin1ELin1EEENS_9allocatorIS3_EEE8max_sizeEv, symObjAddr: 0x1BE14, symBinAddr: 0x10001FA1C, symSize: 0x2FC }
  - { offsetInCU: 0x128A00, offset: 0x128A00, size: 0x8, addend: 0x0, symName: __ZNKSt3__16vectorIN5Eigen6MatrixIdLin1ELin1ELi0ELin1ELin1EEENS_9allocatorIS3_EEE20__throw_length_errorB8ue170006Ev, symObjAddr: 0x1C110, symBinAddr: 0x10001FD18, symSize: 0x20 }
  - { offsetInCU: 0x128A30, offset: 0x128A30, size: 0x8, addend: 0x0, symName: __ZNSt3__116allocator_traitsINS_9allocatorIN5Eigen6MatrixIdLin1ELin1ELi0ELin1ELin1EEEEEE8max_sizeB8ue170006IS5_vEEmRKS5_, symObjAddr: 0x1C130, symBinAddr: 0x10001FD38, symSize: 0x24 }
  - { offsetInCU: 0x128A5E, offset: 0x128A5E, size: 0x8, addend: 0x0, symName: __ZNKSt3__16vectorIN5Eigen6MatrixIdLin1ELin1ELi0ELin1ELin1EEENS_9allocatorIS3_EEE7__allocB8ue170006Ev, symObjAddr: 0x1C154, symBinAddr: 0x10001FD5C, symSize: 0x28 }
  - { offsetInCU: 0x128A84, offset: 0x128A84, size: 0x8, addend: 0x0, symName: __ZNKSt3__19allocatorIN5Eigen6MatrixIdLin1ELin1ELi0ELin1ELin1EEEE8max_sizeB8ue170006Ev, symObjAddr: 0x1C17C, symBinAddr: 0x10001FD84, symSize: 0x18 }
  - { offsetInCU: 0x128AAA, offset: 0x128AAA, size: 0x8, addend: 0x0, symName: __ZNKSt3__117__compressed_pairIPN5Eigen6MatrixIdLin1ELin1ELi0ELin1ELin1EEENS_9allocatorIS3_EEE6secondB8ue170006Ev, symObjAddr: 0x1C194, symBinAddr: 0x10001FD9C, symSize: 0x24 }
  - { offsetInCU: 0x128AD0, offset: 0x128AD0, size: 0x8, addend: 0x0, symName: __ZNKSt3__122__compressed_pair_elemINS_9allocatorIN5Eigen6MatrixIdLin1ELin1ELi0ELin1ELin1EEEEELi1ELb1EE5__getB8ue170006Ev, symObjAddr: 0x1C1B8, symBinAddr: 0x10001FDC0, symSize: 0x14 }
  - { offsetInCU: 0x128AF6, offset: 0x128AF6, size: 0x8, addend: 0x0, symName: __ZNSt3__114__split_bufferIN5Eigen6MatrixIdLin1ELin1ELi0ELin1ELin1EEERNS_9allocatorIS3_EEEC2EmmS6_, symObjAddr: 0x1C1CC, symBinAddr: 0x10001FDD4, symSize: 0x530 }
  - { offsetInCU: 0x128B71, offset: 0x128B71, size: 0x8, addend: 0x0, symName: __ZNSt3__117__compressed_pairIPN5Eigen6MatrixIdLin1ELin1ELi0ELin1ELin1EEERNS_9allocatorIS3_EEEC1B8ue170006IDnS7_EEOT_OT0_, symObjAddr: 0x1C6FC, symBinAddr: 0x100020304, symSize: 0x3C }
  - { offsetInCU: 0x128BC9, offset: 0x128BC9, size: 0x8, addend: 0x0, symName: __ZNSt3__114__split_bufferIN5Eigen6MatrixIdLin1ELin1ELi0ELin1ELin1EEERNS_9allocatorIS3_EEE7__allocB8ue170006Ev, symObjAddr: 0x1C9C4, symBinAddr: 0x1000205CC, symSize: 0x28 }
  - { offsetInCU: 0x128BEF, offset: 0x128BEF, size: 0x8, addend: 0x0, symName: __ZNSt3__114__split_bufferIN5Eigen6MatrixIdLin1ELin1ELi0ELin1ELin1EEERNS_9allocatorIS3_EEE9__end_capB8ue170006Ev, symObjAddr: 0x1C9EC, symBinAddr: 0x1000205F4, symSize: 0x28 }
  - { offsetInCU: 0x128C15, offset: 0x128C15, size: 0x8, addend: 0x0, symName: __ZNSt3__117__compressed_pairIPN5Eigen6MatrixIdLin1ELin1ELi0ELin1ELin1EEERNS_9allocatorIS3_EEEC2B8ue170006IDnS7_EEOT_OT0_, symObjAddr: 0x1CA14, symBinAddr: 0x10002061C, symSize: 0x48 }
  - { offsetInCU: 0x128C6D, offset: 0x128C6D, size: 0x8, addend: 0x0, symName: __ZNSt3__122__compressed_pair_elemIRNS_9allocatorIN5Eigen6MatrixIdLin1ELin1ELi0ELin1ELin1EEEEELi1ELb0EEC2B8ue170006IS6_vEEOT_, symObjAddr: 0x1CA5C, symBinAddr: 0x100020664, symSize: 0x70 }
  - { offsetInCU: 0x128CAF, offset: 0x128CAF, size: 0x8, addend: 0x0, symName: __ZNSt3__19allocatorIN5Eigen6MatrixIdLin1ELin1ELi0ELin1ELin1EEEE8allocateB8ue170006Em, symObjAddr: 0x1CACC, symBinAddr: 0x1000206D4, symSize: 0x60 }
  - { offsetInCU: 0x128CE3, offset: 0x128CE3, size: 0x8, addend: 0x0, symName: __ZNSt3__117__compressed_pairIPN5Eigen6MatrixIdLin1ELin1ELi0ELin1ELin1EEERNS_9allocatorIS3_EEE6secondB8ue170006Ev, symObjAddr: 0x1CB2C, symBinAddr: 0x100020734, symSize: 0x28 }
  - { offsetInCU: 0x128D09, offset: 0x128D09, size: 0x8, addend: 0x0, symName: __ZNSt3__122__compressed_pair_elemIRNS_9allocatorIN5Eigen6MatrixIdLin1ELin1ELi0ELin1ELin1EEEEELi1ELb0EE5__getB8ue170006Ev, symObjAddr: 0x1CB54, symBinAddr: 0x10002075C, symSize: 0x60 }
  - { offsetInCU: 0x128D2F, offset: 0x128D2F, size: 0x8, addend: 0x0, symName: __ZNSt3__117__compressed_pairIPN5Eigen6MatrixIdLin1ELin1ELi0ELin1ELin1EEERNS_9allocatorIS3_EEE5firstB8ue170006Ev, symObjAddr: 0x1CBB4, symBinAddr: 0x1000207BC, symSize: 0x24 }
  - { offsetInCU: 0x128D55, offset: 0x128D55, size: 0x8, addend: 0x0, symName: __ZNKSt3__16vectorIN5Eigen6MatrixIdLin1ELin1ELi0ELin1ELin1EEENS_9allocatorIS3_EEE17__annotate_deleteB8ue170006Ev, symObjAddr: 0x1CBD8, symBinAddr: 0x1000207E0, symSize: 0xE8 }
  - { offsetInCU: 0x128D7B, offset: 0x128D7B, size: 0x8, addend: 0x0, symName: __ZNSt3__116reverse_iteratorIPN5Eigen6MatrixIdLin1ELin1ELi0ELin1ELin1EEEEC1B8ue170006ES4_, symObjAddr: 0x1D204, symBinAddr: 0x100020E0C, symSize: 0x34 }
  - { offsetInCU: 0x128DB3, offset: 0x128DB3, size: 0x8, addend: 0x0, symName: __ZNKSt3__116reverse_iteratorIPN5Eigen6MatrixIdLin1ELin1ELi0ELin1ELin1EEEE4baseB8ue170006Ev, symObjAddr: 0x1D238, symBinAddr: 0x100020E40, symSize: 0x64 }
  - { offsetInCU: 0x128DD9, offset: 0x128DD9, size: 0x8, addend: 0x0, symName: __ZNKSt3__16vectorIN5Eigen6MatrixIdLin1ELin1ELi0ELin1ELin1EEENS_9allocatorIS3_EEE14__annotate_newB8ue170006Em, symObjAddr: 0x1D3D0, symBinAddr: 0x100020FD8, symSize: 0xDC }
  - { offsetInCU: 0x128E0E, offset: 0x128E0E, size: 0x8, addend: 0x0, symName: __ZNSt3__129_AllocatorDestroyRangeReverseINS_9allocatorIN5Eigen6MatrixIdLin1ELin1ELi0ELin1ELin1EEEEENS_16reverse_iteratorIPS4_EEEC1B8ue170006ERS5_RS8_SB_, symObjAddr: 0x1D6A4, symBinAddr: 0x1000212AC, symSize: 0x44 }
  - { offsetInCU: 0x128E65, offset: 0x128E65, size: 0x8, addend: 0x0, symName: __ZNKSt3__116reverse_iteratorIPN5Eigen6MatrixIdLin1ELin1ELi0ELin1ELin1EEEEdeB8ue170006Ev, symObjAddr: 0x1D754, symBinAddr: 0x10002135C, symSize: 0x74 }
  - { offsetInCU: 0x128E99, offset: 0x128E99, size: 0x8, addend: 0x0, symName: __ZNSt3__116reverse_iteratorIPN5Eigen6MatrixIdLin1ELin1ELi0ELin1ELin1EEEEppB8ue170006Ev, symObjAddr: 0x1D7C8, symBinAddr: 0x1000213D0, symSize: 0x6C }
  - { offsetInCU: 0x128EBF, offset: 0x128EBF, size: 0x8, addend: 0x0, symName: __ZNSt3__128__exception_guard_exceptionsINS_29_AllocatorDestroyRangeReverseINS_9allocatorIN5Eigen6MatrixIdLin1ELin1ELi0ELin1ELin1EEEEENS_16reverse_iteratorIPS5_EEEEE10__completeB8ue170006Ev, symObjAddr: 0x1D834, symBinAddr: 0x10002143C, symSize: 0x8C }
  - { offsetInCU: 0x128EE5, offset: 0x128EE5, size: 0x8, addend: 0x0, symName: __ZNSt3__128__exception_guard_exceptionsINS_29_AllocatorDestroyRangeReverseINS_9allocatorIN5Eigen6MatrixIdLin1ELin1ELi0ELin1ELin1EEEEENS_16reverse_iteratorIPS5_EEEEED1B8ue170006Ev, symObjAddr: 0x1D8C0, symBinAddr: 0x1000214C8, symSize: 0x2C }
  - { offsetInCU: 0x128F0F, offset: 0x128F0F, size: 0x8, addend: 0x0, symName: __ZNSt3__128__exception_guard_exceptionsINS_29_AllocatorDestroyRangeReverseINS_9allocatorIN5Eigen6MatrixIdLin1ELin1ELi0ELin1ELin1EEEEENS_16reverse_iteratorIPS5_EEEEEC1B8ue170006ESA_, symObjAddr: 0x1D8EC, symBinAddr: 0x1000214F4, symSize: 0x34 }
  - { offsetInCU: 0x128F48, offset: 0x128F48, size: 0x8, addend: 0x0, symName: __ZNSt3__128__exception_guard_exceptionsINS_29_AllocatorDestroyRangeReverseINS_9allocatorIN5Eigen6MatrixIdLin1ELin1ELi0ELin1ELin1EEEEENS_16reverse_iteratorIPS5_EEEEEC2B8ue170006ESA_, symObjAddr: 0x1D920, symBinAddr: 0x100021528, symSize: 0xA4 }
  - { offsetInCU: 0x128F81, offset: 0x128F81, size: 0x8, addend: 0x0, symName: __ZNSt3__129_AllocatorDestroyRangeReverseINS_9allocatorIN5Eigen6MatrixIdLin1ELin1ELi0ELin1ELin1EEEEENS_16reverse_iteratorIPS4_EEEC2B8ue170006ERS5_RS8_SB_, symObjAddr: 0x1D9C4, symBinAddr: 0x1000215CC, symSize: 0x104 }
  - { offsetInCU: 0x128FDD, offset: 0x128FDD, size: 0x8, addend: 0x0, symName: __ZNSt3__119__to_address_helperINS_16reverse_iteratorIPN5Eigen6MatrixIdLin1ELin1ELi0ELin1ELin1EEEEEvE6__callB8ue170006ERKS6_, symObjAddr: 0x1DAC8, symBinAddr: 0x1000216D0, symSize: 0x44 }
  - { offsetInCU: 0x129000, offset: 0x129000, size: 0x8, addend: 0x0, symName: __ZNKSt3__116reverse_iteratorIPN5Eigen6MatrixIdLin1ELin1ELi0ELin1ELin1EEEEptB8ue170006Ev, symObjAddr: 0x1DB0C, symBinAddr: 0x100021714, symSize: 0x24 }
  - { offsetInCU: 0x129026, offset: 0x129026, size: 0x8, addend: 0x0, symName: __ZNSt3__128__exception_guard_exceptionsINS_29_AllocatorDestroyRangeReverseINS_9allocatorIN5Eigen6MatrixIdLin1ELin1ELi0ELin1ELin1EEEEENS_16reverse_iteratorIPS5_EEEEED2B8ue170006Ev, symObjAddr: 0x1DB30, symBinAddr: 0x100021738, symSize: 0xBC }
  - { offsetInCU: 0x129050, offset: 0x129050, size: 0x8, addend: 0x0, symName: __ZNKSt3__129_AllocatorDestroyRangeReverseINS_9allocatorIN5Eigen6MatrixIdLin1ELin1ELi0ELin1ELin1EEEEENS_16reverse_iteratorIPS4_EEEclB8ue170006Ev, symObjAddr: 0x1DBEC, symBinAddr: 0x1000217F4, symSize: 0x3A8 }
  - { offsetInCU: 0x129077, offset: 0x129077, size: 0x8, addend: 0x0, symName: __ZNSt3__116reverse_iteratorINS0_IPN5Eigen6MatrixIdLin1ELin1ELi0ELin1ELin1EEEEEEC1B8ue170006ES5_, symObjAddr: 0x1E004, symBinAddr: 0x100021C0C, symSize: 0x248 }
  - { offsetInCU: 0x1290B4, offset: 0x1290B4, size: 0x8, addend: 0x0, symName: __ZNSt3__116allocator_traitsINS_9allocatorIN5Eigen6MatrixIdLin1ELin1ELi0ELin1ELin1EEEEEE7destroyB8ue170006IS4_vEEvRS5_PT_, symObjAddr: 0x1E518, symBinAddr: 0x100022120, symSize: 0x2C }
  - { offsetInCU: 0x1290F1, offset: 0x1290F1, size: 0x8, addend: 0x0, symName: __ZNSt3__116reverse_iteratorINS0_IPN5Eigen6MatrixIdLin1ELin1ELi0ELin1ELin1EEEEEEppB8ue170006Ev, symObjAddr: 0x1E568, symBinAddr: 0x100022170, symSize: 0x30 }
  - { offsetInCU: 0x129117, offset: 0x129117, size: 0x8, addend: 0x0, symName: __ZNKSt3__116reverse_iteratorINS0_IPN5Eigen6MatrixIdLin1ELin1ELi0ELin1ELin1EEEEEE4baseB8ue170006Ev, symObjAddr: 0x1E598, symBinAddr: 0x1000221A0, symSize: 0x20C }
  - { offsetInCU: 0x12913E, offset: 0x12913E, size: 0x8, addend: 0x0, symName: __ZNSt3__19allocatorIN5Eigen6MatrixIdLin1ELin1ELi0ELin1ELin1EEEE7destroyB8ue170006EPS3_, symObjAddr: 0x1E7A4, symBinAddr: 0x1000223AC, symSize: 0x28 }
  - { offsetInCU: 0x129177, offset: 0x129177, size: 0x8, addend: 0x0, symName: __ZNSt3__119__to_address_helperINS_16reverse_iteratorINS1_IPN5Eigen6MatrixIdLin1ELin1ELi0ELin1ELin1EEEEEEEvE6__callB8ue170006ERKS7_, symObjAddr: 0x1E7CC, symBinAddr: 0x1000223D4, symSize: 0x44 }
  - { offsetInCU: 0x12919A, offset: 0x12919A, size: 0x8, addend: 0x0, symName: __ZNKSt3__116reverse_iteratorINS0_IPN5Eigen6MatrixIdLin1ELin1ELi0ELin1ELin1EEEEEEptB8ue170006Ev, symObjAddr: 0x1E810, symBinAddr: 0x100022418, symSize: 0x24 }
  - { offsetInCU: 0x1291C0, offset: 0x1291C0, size: 0x8, addend: 0x0, symName: __ZNKSt3__116reverse_iteratorINS0_IPN5Eigen6MatrixIdLin1ELin1ELi0ELin1ELin1EEEEEEdeB8ue170006Ev, symObjAddr: 0x1E834, symBinAddr: 0x10002243C, symSize: 0x1EC }
  - { offsetInCU: 0x1291F9, offset: 0x1291F9, size: 0x8, addend: 0x0, symName: __ZNSt3__116reverse_iteratorIPN5Eigen6MatrixIdLin1ELin1ELi0ELin1ELin1EEEEmmB8ue170006Ev, symObjAddr: 0x1EA20, symBinAddr: 0x100022628, symSize: 0x6C }
  - { offsetInCU: 0x12921F, offset: 0x12921F, size: 0x8, addend: 0x0, symName: __ZNSt3__116reverse_iteratorINS0_IPN5Eigen6MatrixIdLin1ELin1ELi0ELin1ELin1EEEEEEC2B8ue170006ES5_, symObjAddr: 0x1EA8C, symBinAddr: 0x100022694, symSize: 0x22C }
  - { offsetInCU: 0x12925C, offset: 0x12925C, size: 0x8, addend: 0x0, symName: __ZNSt3__116reverse_iteratorIPN5Eigen6MatrixIdLin1ELin1ELi0ELin1ELin1EEEEC2B8ue170006ES4_, symObjAddr: 0x1ECB8, symBinAddr: 0x1000228C0, symSize: 0xB8 }
  - { offsetInCU: 0x129294, offset: 0x129294, size: 0x8, addend: 0x0, symName: __ZNSt3__114__split_bufferIN5Eigen6MatrixIdLin1ELin1ELi0ELin1ELin1EEERNS_9allocatorIS3_EEED2Ev, symObjAddr: 0x1ED70, symBinAddr: 0x100022978, symSize: 0x104 }
  - { offsetInCU: 0x1292C0, offset: 0x1292C0, size: 0x8, addend: 0x0, symName: __ZNSt3__114__split_bufferIN5Eigen6MatrixIdLin1ELin1ELi0ELin1ELin1EEERNS_9allocatorIS3_EEE5clearB8ue170006Ev, symObjAddr: 0x1EE74, symBinAddr: 0x100022A7C, symSize: 0x68 }
  - { offsetInCU: 0x1292E6, offset: 0x1292E6, size: 0x8, addend: 0x0, symName: __ZNSt3__116allocator_traitsINS_9allocatorIN5Eigen6MatrixIdLin1ELin1ELi0ELin1ELin1EEEEEE10deallocateB8ue170006ERS5_PS4_m, symObjAddr: 0x1EEDC, symBinAddr: 0x100022AE4, symSize: 0x34 }
  - { offsetInCU: 0x129328, offset: 0x129328, size: 0x8, addend: 0x0, symName: __ZNKSt3__114__split_bufferIN5Eigen6MatrixIdLin1ELin1ELi0ELin1ELin1EEERNS_9allocatorIS3_EEE8capacityB8ue170006Ev, symObjAddr: 0x1EF10, symBinAddr: 0x100022B18, symSize: 0xBC }
  - { offsetInCU: 0x12934E, offset: 0x12934E, size: 0x8, addend: 0x0, symName: __ZNSt3__114__split_bufferIN5Eigen6MatrixIdLin1ELin1ELi0ELin1ELin1EEERNS_9allocatorIS3_EEE17__destruct_at_endB8ue170006EPS3_, symObjAddr: 0x1EFCC, symBinAddr: 0x100022BD4, symSize: 0x2C }
  - { offsetInCU: 0x129382, offset: 0x129382, size: 0x8, addend: 0x0, symName: __ZNSt3__114__split_bufferIN5Eigen6MatrixIdLin1ELin1ELi0ELin1ELin1EEERNS_9allocatorIS3_EEE17__destruct_at_endB8ue170006EPS3_NS_17integral_constantIbLb0EEE, symObjAddr: 0x1EFF8, symBinAddr: 0x100022C00, symSize: 0x10C }
  - { offsetInCU: 0x1293C2, offset: 0x1293C2, size: 0x8, addend: 0x0, symName: __ZNSt3__19allocatorIN5Eigen6MatrixIdLin1ELin1ELi0ELin1ELin1EEEE10deallocateB8ue170006EPS3_m, symObjAddr: 0x1F104, symBinAddr: 0x100022D0C, symSize: 0x50 }
  - { offsetInCU: 0x129404, offset: 0x129404, size: 0x8, addend: 0x0, symName: __ZNKSt3__114__split_bufferIN5Eigen6MatrixIdLin1ELin1ELi0ELin1ELin1EEERNS_9allocatorIS3_EEE9__end_capB8ue170006Ev, symObjAddr: 0x1F154, symBinAddr: 0x100022D5C, symSize: 0x28 }
  - { offsetInCU: 0x12942A, offset: 0x12942A, size: 0x8, addend: 0x0, symName: __ZNKSt3__117__compressed_pairIPN5Eigen6MatrixIdLin1ELin1ELi0ELin1ELin1EEERNS_9allocatorIS3_EEE5firstB8ue170006Ev, symObjAddr: 0x1F17C, symBinAddr: 0x100022D84, symSize: 0x24 }
  - { offsetInCU: 0x129450, offset: 0x129450, size: 0x8, addend: 0x0, symName: __ZN5Eigen15PlainObjectBaseINS_6MatrixIdLin1ELin1ELi0ELin1ELin1EEEE4_setINS_13CwiseBinaryOpINS_8internal17scalar_product_opIddEEKNS_14CwiseNullaryOpINS6_16scalar_random_opIdEES2_EEKNS9_INS6_18scalar_constant_opIdEEKS2_EEEEEERS2_RKNS_9DenseBaseIT_EE, symObjAddr: 0x1F1A0, symBinAddr: 0x100022DA8, symSize: 0x4C }
  - { offsetInCU: 0x12948E, offset: 0x12948E, size: 0x8, addend: 0x0, symName: __ZN5Eigen9EigenBaseINS_6MatrixIdLin1ELin1ELi0ELin1ELin1EEEE7derivedEv, symObjAddr: 0x1F3E4, symBinAddr: 0x100022FEC, symSize: 0x14 }
  - { offsetInCU: 0x1294B4, offset: 0x1294B4, size: 0x8, addend: 0x0, symName: __ZNK5Eigen9EigenBaseINS_13CwiseBinaryOpINS_8internal17scalar_product_opIddEEKNS_14CwiseNullaryOpINS2_16scalar_random_opIdEENS_6MatrixIdLin1ELin1ELi0ELin1ELin1EEEEEKNS5_INS2_18scalar_constant_opIdEEKS9_EEEEE7derivedEv, symObjAddr: 0x1F3F8, symBinAddr: 0x100023000, symSize: 0x14 }
  - { offsetInCU: 0x1294DA, offset: 0x1294DA, size: 0x8, addend: 0x0, symName: __ZN5Eigen8internal9assign_opIddEC1Ev, symObjAddr: 0x1F444, symBinAddr: 0x10002304C, symSize: 0x2C }
  - { offsetInCU: 0x129504, offset: 0x129504, size: 0x8, addend: 0x0, symName: __ZN5Eigen8internal10AssignmentINS_6MatrixIdLin1ELin1ELi0ELin1ELin1EEENS_13CwiseBinaryOpINS0_17scalar_product_opIddEEKNS_14CwiseNullaryOpINS0_16scalar_random_opIdEES3_EEKNS7_INS0_18scalar_constant_opIdEEKS3_EEEENS0_9assign_opIddEENS0_11Dense2DenseEvE3runERS3_RKSH_RKSJ_, symObjAddr: 0x1F4AC, symBinAddr: 0x1000230B4, symSize: 0x40 }
  - { offsetInCU: 0x129546, offset: 0x129546, size: 0x8, addend: 0x0, symName: __ZNK5Eigen15PlainObjectBaseINS_6MatrixIdLin1ELin1ELi0ELin1ELin1EEEE4colsEv, symObjAddr: 0x1F970, symBinAddr: 0x100023578, symSize: 0x24 }
  - { offsetInCU: 0x12956C, offset: 0x12956C, size: 0x8, addend: 0x0, symName: __ZN5Eigen8internal27checkTransposeAliasing_implINS_6MatrixIdLin1ELin1ELi0ELin1ELin1EEENS_13CwiseBinaryOpINS0_17scalar_product_opIddEEKNS_14CwiseNullaryOpINS0_16scalar_random_opIdEES3_EEKNS7_INS0_18scalar_constant_opIdEEKS3_EEEELb0EE3runERSE_RKSH_, symObjAddr: 0x1F994, symBinAddr: 0x10002359C, symSize: 0x14 }
  - { offsetInCU: 0x129597, offset: 0x129597, size: 0x8, addend: 0x0, symName: __ZNK5Eigen12DenseStorageIdLin1ELin1ELin1ELi0EE4colsEv, symObjAddr: 0x1F9A8, symBinAddr: 0x1000235B0, symSize: 0x64 }
  - { offsetInCU: 0x12962B, offset: 0x12962B, size: 0x8, addend: 0x0, symName: __ZN5Eigen8internal9evaluatorINS_13CwiseBinaryOpINS0_17scalar_product_opIddEEKNS_14CwiseNullaryOpINS0_16scalar_random_opIdEENS_6MatrixIdLin1ELin1ELi0ELin1ELin1EEEEEKNS5_INS0_18scalar_constant_opIdEEKS9_EEEEEC1ERKSH_, symObjAddr: 0x1FA0C, symBinAddr: 0x100023614, symSize: 0x34 }
  - { offsetInCU: 0x129664, offset: 0x129664, size: 0x8, addend: 0x0, symName: __ZN5Eigen8internal9evaluatorINS_6MatrixIdLin1ELin1ELi0ELin1ELin1EEEEC1ERKS3_, symObjAddr: 0x1FB3C, symBinAddr: 0x100023744, symSize: 0x34 }
  - { offsetInCU: 0x12969D, offset: 0x12969D, size: 0x8, addend: 0x0, symName: __ZNK5Eigen9EigenBaseINS_6MatrixIdLin1ELin1ELi0ELin1ELin1EEEE18const_cast_derivedEv, symObjAddr: 0x1FB70, symBinAddr: 0x100023778, symSize: 0x14 }
  - { offsetInCU: 0x1296F0, offset: 0x1296F0, size: 0x8, addend: 0x0, symName: __ZN5Eigen8internal31generic_dense_assignment_kernelINS0_9evaluatorINS_6MatrixIdLin1ELin1ELi0ELin1ELin1EEEEENS2_INS_13CwiseBinaryOpINS0_17scalar_product_opIddEEKNS_14CwiseNullaryOpINS0_16scalar_random_opIdEES4_EEKNS9_INS0_18scalar_constant_opIdEEKS4_EEEEEENS0_9assign_opIddEELi0EEC1ERS5_RKSK_RKSM_RS4_, symObjAddr: 0x1FB84, symBinAddr: 0x10002378C, symSize: 0x4C }
  - { offsetInCU: 0x12975B, offset: 0x12975B, size: 0x8, addend: 0x0, symName: __ZN5Eigen8internal21dense_assignment_loopINS0_31generic_dense_assignment_kernelINS0_9evaluatorINS_6MatrixIdLin1ELin1ELi0ELin1ELin1EEEEENS3_INS_13CwiseBinaryOpINS0_17scalar_product_opIddEEKNS_14CwiseNullaryOpINS0_16scalar_random_opIdEES5_EEKNSA_INS0_18scalar_constant_opIdEEKS5_EEEEEENS0_9assign_opIddEELi0EEELi1ELi0EE3runERSO_, symObjAddr: 0x1FBD0, symBinAddr: 0x1000237D8, symSize: 0x6C }
  - { offsetInCU: 0x1297AB, offset: 0x1297AB, size: 0x8, addend: 0x0, symName: __ZN5Eigen8internal9evaluatorINS_6MatrixIdLin1ELin1ELi0ELin1ELin1EEEED1Ev, symObjAddr: 0x1FC3C, symBinAddr: 0x100023844, symSize: 0x2C }
  - { offsetInCU: 0x1297D8, offset: 0x1297D8, size: 0x8, addend: 0x0, symName: __ZN5Eigen8internal9evaluatorINS_13CwiseBinaryOpINS0_17scalar_product_opIddEEKNS_14CwiseNullaryOpINS0_16scalar_random_opIdEENS_6MatrixIdLin1ELin1ELi0ELin1ELin1EEEEEKNS5_INS0_18scalar_constant_opIdEEKS9_EEEEED1Ev, symObjAddr: 0x1FC68, symBinAddr: 0x100023870, symSize: 0x2C }
  - { offsetInCU: 0x129805, offset: 0x129805, size: 0x8, addend: 0x0, symName: __ZN5Eigen8internal9evaluatorINS_13CwiseBinaryOpINS0_17scalar_product_opIddEEKNS_14CwiseNullaryOpINS0_16scalar_random_opIdEENS_6MatrixIdLin1ELin1ELi0ELin1ELin1EEEEEKNS5_INS0_18scalar_constant_opIdEEKS9_EEEEEC2ERKSH_, symObjAddr: 0x1FC94, symBinAddr: 0x10002389C, symSize: 0x34 }
  - { offsetInCU: 0x12983E, offset: 0x12983E, size: 0x8, addend: 0x0, symName: __ZN5Eigen8internal16binary_evaluatorINS_13CwiseBinaryOpINS0_17scalar_product_opIddEEKNS_14CwiseNullaryOpINS0_16scalar_random_opIdEENS_6MatrixIdLin1ELin1ELi0ELin1ELin1EEEEEKNS5_INS0_18scalar_constant_opIdEEKS9_EEEENS0_10IndexBasedESI_ddEC2ERKSH_, symObjAddr: 0x1FCC8, symBinAddr: 0x1000238D0, symSize: 0x64 }
  - { offsetInCU: 0x129877, offset: 0x129877, size: 0x8, addend: 0x0, symName: __ZN5Eigen8internal14evaluator_baseINS_13CwiseBinaryOpINS0_17scalar_product_opIddEEKNS_14CwiseNullaryOpINS0_16scalar_random_opIdEENS_6MatrixIdLin1ELin1ELi0ELin1ELin1EEEEEKNS5_INS0_18scalar_constant_opIdEEKS9_EEEEEC2Ev, symObjAddr: 0x1FD2C, symBinAddr: 0x100023934, symSize: 0x14 }
  - { offsetInCU: 0x1298A1, offset: 0x1298A1, size: 0x8, addend: 0x0, symName: __ZN5Eigen8internal16binary_evaluatorINS_13CwiseBinaryOpINS0_17scalar_product_opIddEEKNS_14CwiseNullaryOpINS0_16scalar_random_opIdEENS_6MatrixIdLin1ELin1ELi0ELin1ELin1EEEEEKNS5_INS0_18scalar_constant_opIdEEKS9_EEEENS0_10IndexBasedESI_ddE4DataC1ERKSH_, symObjAddr: 0x1FD40, symBinAddr: 0x100023948, symSize: 0x34 }
  - { offsetInCU: 0x1298DA, offset: 0x1298DA, size: 0x8, addend: 0x0, symName: __ZN5Eigen8internal14evaluator_baseINS_13CwiseBinaryOpINS0_17scalar_product_opIddEEKNS_14CwiseNullaryOpINS0_16scalar_random_opIdEENS_6MatrixIdLin1ELin1ELi0ELin1ELin1EEEEEKNS5_INS0_18scalar_constant_opIdEEKS9_EEEEED2Ev, symObjAddr: 0x1FD74, symBinAddr: 0x10002397C, symSize: 0x14 }
  - { offsetInCU: 0x129904, offset: 0x129904, size: 0x8, addend: 0x0, symName: __ZN5Eigen8internal16binary_evaluatorINS_13CwiseBinaryOpINS0_17scalar_product_opIddEEKNS_14CwiseNullaryOpINS0_16scalar_random_opIdEENS_6MatrixIdLin1ELin1ELi0ELin1ELin1EEEEEKNS5_INS0_18scalar_constant_opIdEEKS9_EEEENS0_10IndexBasedESI_ddE4DataC2ERKSH_, symObjAddr: 0x1FD88, symBinAddr: 0x100023990, symSize: 0xA8 }
  - { offsetInCU: 0x12993D, offset: 0x12993D, size: 0x8, addend: 0x0, symName: __ZNK5Eigen13CwiseBinaryOpINS_8internal17scalar_product_opIddEEKNS_14CwiseNullaryOpINS1_16scalar_random_opIdEENS_6MatrixIdLin1ELin1ELi0ELin1ELin1EEEEEKNS4_INS1_18scalar_constant_opIdEEKS8_EEE7functorEv, symObjAddr: 0x1FE30, symBinAddr: 0x100023A38, symSize: 0x18 }
  - { offsetInCU: 0x129963, offset: 0x129963, size: 0x8, addend: 0x0, symName: __ZN5Eigen8internal17scalar_product_opIddEC1ERKS2_, symObjAddr: 0x1FE48, symBinAddr: 0x100023A50, symSize: 0x34 }
  - { offsetInCU: 0x129997, offset: 0x129997, size: 0x8, addend: 0x0, symName: __ZNK5Eigen13CwiseBinaryOpINS_8internal17scalar_product_opIddEEKNS_14CwiseNullaryOpINS1_16scalar_random_opIdEENS_6MatrixIdLin1ELin1ELi0ELin1ELin1EEEEEKNS4_INS1_18scalar_constant_opIdEEKS8_EEE3lhsEv, symObjAddr: 0x1FE7C, symBinAddr: 0x100023A84, symSize: 0x18 }
  - { offsetInCU: 0x1299BD, offset: 0x1299BD, size: 0x8, addend: 0x0, symName: __ZN5Eigen8internal9evaluatorIKNS_14CwiseNullaryOpINS0_16scalar_random_opIdEENS_6MatrixIdLin1ELin1ELi0ELin1ELin1EEEEEEC1ERS8_, symObjAddr: 0x1FE94, symBinAddr: 0x100023A9C, symSize: 0x34 }
  - { offsetInCU: 0x1299F5, offset: 0x1299F5, size: 0x8, addend: 0x0, symName: __ZNK5Eigen13CwiseBinaryOpINS_8internal17scalar_product_opIddEEKNS_14CwiseNullaryOpINS1_16scalar_random_opIdEENS_6MatrixIdLin1ELin1ELi0ELin1ELin1EEEEEKNS4_INS1_18scalar_constant_opIdEEKS8_EEE3rhsEv, symObjAddr: 0x1FEC8, symBinAddr: 0x100023AD0, symSize: 0x18 }
  - { offsetInCU: 0x129A1B, offset: 0x129A1B, size: 0x8, addend: 0x0, symName: __ZN5Eigen8internal9evaluatorIKNS_14CwiseNullaryOpINS0_18scalar_constant_opIdEEKNS_6MatrixIdLin1ELin1ELi0ELin1ELin1EEEEEEC1ERS9_, symObjAddr: 0x1FEE0, symBinAddr: 0x100023AE8, symSize: 0x34 }
  - { offsetInCU: 0x129A53, offset: 0x129A53, size: 0x8, addend: 0x0, symName: __ZN5Eigen8internal9evaluatorIKNS_14CwiseNullaryOpINS0_16scalar_random_opIdEENS_6MatrixIdLin1ELin1ELi0ELin1ELin1EEEEEED1Ev, symObjAddr: 0x1FF14, symBinAddr: 0x100023B1C, symSize: 0x2C }
  - { offsetInCU: 0x129A7F, offset: 0x129A7F, size: 0x8, addend: 0x0, symName: __ZN5Eigen8internal17scalar_product_opIddEC2ERKS2_, symObjAddr: 0x1FF40, symBinAddr: 0x100023B48, symSize: 0x18 }
  - { offsetInCU: 0x129AB3, offset: 0x129AB3, size: 0x8, addend: 0x0, symName: __ZN5Eigen8internal9evaluatorIKNS_14CwiseNullaryOpINS0_16scalar_random_opIdEENS_6MatrixIdLin1ELin1ELi0ELin1ELin1EEEEEEC2ERS8_, symObjAddr: 0x1FF58, symBinAddr: 0x100023B60, symSize: 0x34 }
  - { offsetInCU: 0x129AEB, offset: 0x129AEB, size: 0x8, addend: 0x0, symName: __ZN5Eigen8internal9evaluatorINS_14CwiseNullaryOpINS0_16scalar_random_opIdEENS_6MatrixIdLin1ELin1ELi0ELin1ELin1EEEEEEC2ERKS7_, symObjAddr: 0x1FF8C, symBinAddr: 0x100023B94, symSize: 0x74 }
  - { offsetInCU: 0x129B24, offset: 0x129B24, size: 0x8, addend: 0x0, symName: __ZN5Eigen8internal14evaluator_baseINS_14CwiseNullaryOpINS0_16scalar_random_opIdEENS_6MatrixIdLin1ELin1ELi0ELin1ELin1EEEEEEC2Ev, symObjAddr: 0x20000, symBinAddr: 0x100023C08, symSize: 0x14 }
  - { offsetInCU: 0x129B4E, offset: 0x129B4E, size: 0x8, addend: 0x0, symName: __ZNK5Eigen14CwiseNullaryOpINS_8internal16scalar_random_opIdEENS_6MatrixIdLin1ELin1ELi0ELin1ELin1EEEE7functorEv, symObjAddr: 0x20014, symBinAddr: 0x100023C1C, symSize: 0x18 }
  - { offsetInCU: 0x129B74, offset: 0x129B74, size: 0x8, addend: 0x0, symName: __ZN5Eigen8internal16scalar_random_opIdEC1ERKS2_, symObjAddr: 0x2002C, symBinAddr: 0x100023C34, symSize: 0x34 }
  - { offsetInCU: 0x129BA8, offset: 0x129BA8, size: 0x8, addend: 0x0, symName: __ZN5Eigen8internal14evaluator_baseINS_14CwiseNullaryOpINS0_16scalar_random_opIdEENS_6MatrixIdLin1ELin1ELi0ELin1ELin1EEEEEED2Ev, symObjAddr: 0x20060, symBinAddr: 0x100023C68, symSize: 0x14 }
  - { offsetInCU: 0x129BD2, offset: 0x129BD2, size: 0x8, addend: 0x0, symName: __ZN5Eigen8internal16scalar_random_opIdEC2ERKS2_, symObjAddr: 0x20074, symBinAddr: 0x100023C7C, symSize: 0x18 }
  - { offsetInCU: 0x129C06, offset: 0x129C06, size: 0x8, addend: 0x0, symName: __ZN5Eigen8internal9evaluatorIKNS_14CwiseNullaryOpINS0_18scalar_constant_opIdEEKNS_6MatrixIdLin1ELin1ELi0ELin1ELin1EEEEEEC2ERS9_, symObjAddr: 0x2008C, symBinAddr: 0x100023C94, symSize: 0x34 }
  - { offsetInCU: 0x129C3E, offset: 0x129C3E, size: 0x8, addend: 0x0, symName: __ZN5Eigen8internal9evaluatorINS_14CwiseNullaryOpINS0_18scalar_constant_opIdEEKNS_6MatrixIdLin1ELin1ELi0ELin1ELin1EEEEEEC2ERKS8_, symObjAddr: 0x200C0, symBinAddr: 0x100023CC8, symSize: 0x74 }
  - { offsetInCU: 0x129C77, offset: 0x129C77, size: 0x8, addend: 0x0, symName: __ZN5Eigen8internal14evaluator_baseINS_14CwiseNullaryOpINS0_18scalar_constant_opIdEEKNS_6MatrixIdLin1ELin1ELi0ELin1ELin1EEEEEEC2Ev, symObjAddr: 0x20134, symBinAddr: 0x100023D3C, symSize: 0x14 }
  - { offsetInCU: 0x129CA1, offset: 0x129CA1, size: 0x8, addend: 0x0, symName: __ZNK5Eigen14CwiseNullaryOpINS_8internal18scalar_constant_opIdEEKNS_6MatrixIdLin1ELin1ELi0ELin1ELin1EEEE7functorEv, symObjAddr: 0x20148, symBinAddr: 0x100023D50, symSize: 0x18 }
  - { offsetInCU: 0x129CC7, offset: 0x129CC7, size: 0x8, addend: 0x0, symName: __ZN5Eigen8internal18scalar_constant_opIdEC1ERKS2_, symObjAddr: 0x20160, symBinAddr: 0x100023D68, symSize: 0x34 }
  - { offsetInCU: 0x129CFF, offset: 0x129CFF, size: 0x8, addend: 0x0, symName: __ZN5Eigen8internal14evaluator_baseINS_14CwiseNullaryOpINS0_18scalar_constant_opIdEEKNS_6MatrixIdLin1ELin1ELi0ELin1ELin1EEEEEED2Ev, symObjAddr: 0x20194, symBinAddr: 0x100023D9C, symSize: 0x14 }
  - { offsetInCU: 0x129D29, offset: 0x129D29, size: 0x8, addend: 0x0, symName: __ZN5Eigen8internal18scalar_constant_opIdEC2ERKS2_, symObjAddr: 0x201A8, symBinAddr: 0x100023DB0, symSize: 0xB0 }
  - { offsetInCU: 0x129D61, offset: 0x129D61, size: 0x8, addend: 0x0, symName: __ZN5Eigen8internal9evaluatorIKNS_14CwiseNullaryOpINS0_16scalar_random_opIdEENS_6MatrixIdLin1ELin1ELi0ELin1ELin1EEEEEED2Ev, symObjAddr: 0x20258, symBinAddr: 0x100023E60, symSize: 0x2C }
  - { offsetInCU: 0x129D8D, offset: 0x129D8D, size: 0x8, addend: 0x0, symName: __ZN5Eigen8internal9evaluatorINS_14CwiseNullaryOpINS0_16scalar_random_opIdEENS_6MatrixIdLin1ELin1ELi0ELin1ELin1EEEEEED2Ev, symObjAddr: 0x20284, symBinAddr: 0x100023E8C, symSize: 0x2C }
  - { offsetInCU: 0x129DB9, offset: 0x129DB9, size: 0x8, addend: 0x0, symName: __ZNK5Eigen13CwiseBinaryOpINS_8internal17scalar_product_opIddEEKNS_14CwiseNullaryOpINS1_16scalar_random_opIdEENS_6MatrixIdLin1ELin1ELi0ELin1ELin1EEEEEKNS4_INS1_18scalar_constant_opIdEEKS8_EEE4rowsEv, symObjAddr: 0x202B0, symBinAddr: 0x100023EB8, symSize: 0x44 }
  - { offsetInCU: 0x129DDF, offset: 0x129DDF, size: 0x8, addend: 0x0, symName: __ZNK5Eigen13CwiseBinaryOpINS_8internal17scalar_product_opIddEEKNS_14CwiseNullaryOpINS1_16scalar_random_opIdEENS_6MatrixIdLin1ELin1ELi0ELin1ELin1EEEEEKNS4_INS1_18scalar_constant_opIdEEKS8_EEE4colsEv, symObjAddr: 0x202F4, symBinAddr: 0x100023EFC, symSize: 0x44 }
  - { offsetInCU: 0x129E46, offset: 0x129E46, size: 0x8, addend: 0x0, symName: __ZN5Eigen15PlainObjectBaseINS_6MatrixIdLin1ELin1ELi0ELin1ELin1EEEE6resizeEll, symObjAddr: 0x20338, symBinAddr: 0x100023F40, symSize: 0x150 }
  - { offsetInCU: 0x129EC2, offset: 0x129EC2, size: 0x8, addend: 0x0, symName: __ZNK5Eigen14CwiseNullaryOpINS_8internal18scalar_constant_opIdEEKNS_6MatrixIdLin1ELin1ELi0ELin1ELin1EEEE4rowsEv, symObjAddr: 0x20488, symBinAddr: 0x100024090, symSize: 0x24 }
  - { offsetInCU: 0x129EE8, offset: 0x129EE8, size: 0x8, addend: 0x0, symName: __ZNK5Eigen8internal19variable_if_dynamicIlLin1EE5valueEv, symObjAddr: 0x204AC, symBinAddr: 0x1000240B4, symSize: 0x60 }
  - { offsetInCU: 0x129F0E, offset: 0x129F0E, size: 0x8, addend: 0x0, symName: __ZNK5Eigen14CwiseNullaryOpINS_8internal18scalar_constant_opIdEEKNS_6MatrixIdLin1ELin1ELi0ELin1ELin1EEEE4colsEv, symObjAddr: 0x2050C, symBinAddr: 0x100024114, symSize: 0x28 }
  - { offsetInCU: 0x129F34, offset: 0x129F34, size: 0x8, addend: 0x0, symName: __ZN5Eigen12DenseStorageIdLin1ELin1ELin1ELi0EE6resizeElll, symObjAddr: 0x20534, symBinAddr: 0x10002413C, symSize: 0x2C0 }
  - { offsetInCU: 0x129F87, offset: 0x129F87, size: 0x8, addend: 0x0, symName: __ZN5Eigen8internal9evaluatorINS_6MatrixIdLin1ELin1ELi0ELin1ELin1EEEEC2ERKS3_, symObjAddr: 0x209B8, symBinAddr: 0x1000245C0, symSize: 0x34 }
  - { offsetInCU: 0x129FC0, offset: 0x129FC0, size: 0x8, addend: 0x0, symName: __ZN5Eigen8internal9evaluatorINS_15PlainObjectBaseINS_6MatrixIdLin1ELin1ELi0ELin1ELin1EEEEEEC2ERKS5_, symObjAddr: 0x209EC, symBinAddr: 0x1000245F4, symSize: 0x80 }
  - { offsetInCU: 0x129FF8, offset: 0x129FF8, size: 0x8, addend: 0x0, symName: __ZN5Eigen8internal14evaluator_baseINS_6MatrixIdLin1ELin1ELi0ELin1ELin1EEEEC2Ev, symObjAddr: 0x20A6C, symBinAddr: 0x100024674, symSize: 0x14 }
  - { offsetInCU: 0x12A022, offset: 0x12A022, size: 0x8, addend: 0x0, symName: __ZNK5Eigen15PlainObjectBaseINS_6MatrixIdLin1ELin1ELi0ELin1ELin1EEEE4dataEv, symObjAddr: 0x20A80, symBinAddr: 0x100024688, symSize: 0x24 }
  - { offsetInCU: 0x12A048, offset: 0x12A048, size: 0x8, addend: 0x0, symName: __ZNK5Eigen15DenseCoeffsBaseINS_6MatrixIdLin1ELin1ELi0ELin1ELin1EEELi3EE11outerStrideEv, symObjAddr: 0x20AA4, symBinAddr: 0x1000246AC, symSize: 0x44 }
  - { offsetInCU: 0x12A06E, offset: 0x12A06E, size: 0x8, addend: 0x0, symName: __ZN5Eigen8internal30plainobjectbase_evaluator_dataIdLin1EEC1EPKdl, symObjAddr: 0x20AE8, symBinAddr: 0x1000246F0, symSize: 0x3C }
  - { offsetInCU: 0x12A0B4, offset: 0x12A0B4, size: 0x8, addend: 0x0, symName: __ZN5Eigen8internal14evaluator_baseINS_6MatrixIdLin1ELin1ELi0ELin1ELin1EEEED2Ev, symObjAddr: 0x20B24, symBinAddr: 0x10002472C, symSize: 0x14 }
  - { offsetInCU: 0x12A0DE, offset: 0x12A0DE, size: 0x8, addend: 0x0, symName: __ZNK5Eigen12DenseStorageIdLin1ELin1ELin1ELi0EE4dataEv, symObjAddr: 0x20B38, symBinAddr: 0x100024740, symSize: 0x60 }
  - { offsetInCU: 0x12A104, offset: 0x12A104, size: 0x8, addend: 0x0, symName: __ZNK5Eigen9EigenBaseINS_6MatrixIdLin1ELin1ELi0ELin1ELin1EEEE7derivedEv, symObjAddr: 0x20B98, symBinAddr: 0x1000247A0, symSize: 0x14 }
  - { offsetInCU: 0x12A12A, offset: 0x12A12A, size: 0x8, addend: 0x0, symName: __ZNK5Eigen6MatrixIdLin1ELin1ELi0ELin1ELin1EE11outerStrideEv, symObjAddr: 0x20BAC, symBinAddr: 0x1000247B4, symSize: 0x40 }
  - { offsetInCU: 0x12A150, offset: 0x12A150, size: 0x8, addend: 0x0, symName: __ZNK5Eigen9DenseBaseINS_6MatrixIdLin1ELin1ELi0ELin1ELin1EEEE9innerSizeEv, symObjAddr: 0x20BEC, symBinAddr: 0x1000247F4, symSize: 0x24 }
  - { offsetInCU: 0x12A176, offset: 0x12A176, size: 0x8, addend: 0x0, symName: __ZNK5Eigen9EigenBaseINS_6MatrixIdLin1ELin1ELi0ELin1ELin1EEEE4rowsEv, symObjAddr: 0x20C10, symBinAddr: 0x100024818, symSize: 0x28 }
  - { offsetInCU: 0x12A19C, offset: 0x12A19C, size: 0x8, addend: 0x0, symName: __ZN5Eigen8internal30plainobjectbase_evaluator_dataIdLin1EEC2EPKdl, symObjAddr: 0x20C38, symBinAddr: 0x100024840, symSize: 0xBC }
  - { offsetInCU: 0x12A1E2, offset: 0x12A1E2, size: 0x8, addend: 0x0, symName: __ZN5Eigen8internal31generic_dense_assignment_kernelINS0_9evaluatorINS_6MatrixIdLin1ELin1ELi0ELin1ELin1EEEEENS2_INS_13CwiseBinaryOpINS0_17scalar_product_opIddEEKNS_14CwiseNullaryOpINS0_16scalar_random_opIdEES4_EEKNS9_INS0_18scalar_constant_opIdEEKS4_EEEEEENS0_9assign_opIddEELi0EEC2ERS5_RKSK_RKSM_RS4_, symObjAddr: 0x20CF4, symBinAddr: 0x1000248FC, symSize: 0x14C }
  - { offsetInCU: 0x12A248, offset: 0x12A248, size: 0x8, addend: 0x0, symName: __ZNK5Eigen8internal31generic_dense_assignment_kernelINS0_9evaluatorINS_6MatrixIdLin1ELin1ELi0ELin1ELin1EEEEENS2_INS_13CwiseBinaryOpINS0_17scalar_product_opIddEEKNS_14CwiseNullaryOpINS0_16scalar_random_opIdEES4_EEKNS9_INS0_18scalar_constant_opIdEEKS4_EEEEEENS0_9assign_opIddEELi0EE4sizeEv, symObjAddr: 0x20E40, symBinAddr: 0x100024A48, symSize: 0x68 }
  - { offsetInCU: 0x12A26E, offset: 0x12A26E, size: 0x8, addend: 0x0, symName: __ZN5Eigen8internal31generic_dense_assignment_kernelINS0_9evaluatorINS_6MatrixIdLin1ELin1ELi0ELin1ELin1EEEEENS2_INS_13CwiseBinaryOpINS0_17scalar_product_opIddEEKNS_14CwiseNullaryOpINS0_16scalar_random_opIdEES4_EEKNS9_INS0_18scalar_constant_opIdEEKS4_EEEEEENS0_9assign_opIddEELi0EE11assignCoeffEl, symObjAddr: 0x20EA8, symBinAddr: 0x100024AB0, symSize: 0x2E0 }
  - { offsetInCU: 0x12A2A5, offset: 0x12A2A5, size: 0x8, addend: 0x0, symName: __ZNK5Eigen9EigenBaseINS_6MatrixIdLin1ELin1ELi0ELin1ELin1EEEE4sizeEv, symObjAddr: 0x21188, symBinAddr: 0x100024D90, symSize: 0x44 }
  - { offsetInCU: 0x12A2CB, offset: 0x12A2CB, size: 0x8, addend: 0x0, symName: __ZNK5Eigen9EigenBaseINS_6MatrixIdLin1ELin1ELi0ELin1ELin1EEEE4colsEv, symObjAddr: 0x211CC, symBinAddr: 0x100024DD4, symSize: 0x28 }
  - { offsetInCU: 0x12A2F1, offset: 0x12A2F1, size: 0x8, addend: 0x0, symName: __ZNK5Eigen8internal9assign_opIddE11assignCoeffERdRKd, symObjAddr: 0x211F4, symBinAddr: 0x100024DFC, symSize: 0xB0 }
  - { offsetInCU: 0x12A333, offset: 0x12A333, size: 0x8, addend: 0x0, symName: __ZN5Eigen8internal9evaluatorINS_15PlainObjectBaseINS_6MatrixIdLin1ELin1ELi0ELin1ELin1EEEEEE8coeffRefEl, symObjAddr: 0x212A4, symBinAddr: 0x100024EAC, symSize: 0x6C }
  - { offsetInCU: 0x12A367, offset: 0x12A367, size: 0x8, addend: 0x0, symName: __ZNK5Eigen8internal16binary_evaluatorINS_13CwiseBinaryOpINS0_17scalar_product_opIddEEKNS_14CwiseNullaryOpINS0_16scalar_random_opIdEENS_6MatrixIdLin1ELin1ELi0ELin1ELin1EEEEEKNS5_INS0_18scalar_constant_opIdEEKS9_EEEENS0_10IndexBasedESI_ddE5coeffEl, symObjAddr: 0x21310, symBinAddr: 0x100024F18, symSize: 0x2D8 }
  - { offsetInCU: 0x12A39E, offset: 0x12A39E, size: 0x8, addend: 0x0, symName: __ZNK5Eigen8internal16binary_evaluatorINS_13CwiseBinaryOpINS0_17scalar_product_opIddEEKNS_14CwiseNullaryOpINS0_16scalar_random_opIdEENS_6MatrixIdLin1ELin1ELi0ELin1ELin1EEEEEKNS5_INS0_18scalar_constant_opIdEEKS9_EEEENS0_10IndexBasedESI_ddE4Data4funcEv, symObjAddr: 0x215E8, symBinAddr: 0x1000251F0, symSize: 0x14 }
  - { offsetInCU: 0x12A3C4, offset: 0x12A3C4, size: 0x8, addend: 0x0, symName: __ZNK5Eigen8internal17scalar_product_opIddEclERKdS4_, symObjAddr: 0x215FC, symBinAddr: 0x100025204, symSize: 0xB4 }
  - { offsetInCU: 0x12A410, offset: 0x12A410, size: 0x8, addend: 0x0, symName: __ZNK5Eigen8internal9evaluatorINS_14CwiseNullaryOpINS0_16scalar_random_opIdEENS_6MatrixIdLin1ELin1ELi0ELin1ELin1EEEEEE5coeffIlEEdT_, symObjAddr: 0x216B0, symBinAddr: 0x1000252B8, symSize: 0x38 }
  - { offsetInCU: 0x12A458, offset: 0x12A458, size: 0x8, addend: 0x0, symName: __ZNK5Eigen8internal9evaluatorINS_14CwiseNullaryOpINS0_18scalar_constant_opIdEEKNS_6MatrixIdLin1ELin1ELi0ELin1ELin1EEEEEE5coeffIlEEdT_, symObjAddr: 0x216E8, symBinAddr: 0x1000252F0, symSize: 0x38 }
  - { offsetInCU: 0x12A49B, offset: 0x12A49B, size: 0x8, addend: 0x0, symName: __ZNK5Eigen8internal15nullary_wrapperIdNS0_16scalar_random_opIdEELb1ELb0ELb0EEclIlEEdRKS3_T_S8_, symObjAddr: 0x21720, symBinAddr: 0x100025328, symSize: 0x30 }
  - { offsetInCU: 0x12A4EF, offset: 0x12A4EF, size: 0x8, addend: 0x0, symName: __ZNK5Eigen8internal16scalar_random_opIdEclEv, symObjAddr: 0x21750, symBinAddr: 0x100025358, symSize: 0x20 }
  - { offsetInCU: 0x12A515, offset: 0x12A515, size: 0x8, addend: 0x0, symName: __ZN5Eigen8internal19random_default_implIdLb0ELb0EE3runEv, symObjAddr: 0x21784, symBinAddr: 0x10002538C, symSize: 0x288 }
  - { offsetInCU: 0x12A529, offset: 0x12A529, size: 0x8, addend: 0x0, symName: __ZN5Eigen8internal19random_default_implIdLb0ELb0EE3runERKdS4_, symObjAddr: 0x21A0C, symBinAddr: 0x100025614, symSize: 0x118 }
  - { offsetInCU: 0x12A561, offset: 0x12A561, size: 0x8, addend: 0x0, symName: __ZNK5Eigen8internal15nullary_wrapperIdNS0_18scalar_constant_opIdEELb1ELb0ELb0EEclIlEEdRKS3_T_S8_, symObjAddr: 0x21B24, symBinAddr: 0x10002572C, symSize: 0x30 }
  - { offsetInCU: 0x12A5B5, offset: 0x12A5B5, size: 0x8, addend: 0x0, symName: __ZNK5Eigen8internal18scalar_constant_opIdEclEv, symObjAddr: 0x21B54, symBinAddr: 0x10002575C, symSize: 0x60 }
  - { offsetInCU: 0x12A5DB, offset: 0x12A5DB, size: 0x8, addend: 0x0, symName: __ZN5Eigen8internal9evaluatorINS_6MatrixIdLin1ELin1ELi0ELin1ELin1EEEED2Ev, symObjAddr: 0x21BB4, symBinAddr: 0x1000257BC, symSize: 0x2C }
  - { offsetInCU: 0x12A608, offset: 0x12A608, size: 0x8, addend: 0x0, symName: __ZN5Eigen8internal9evaluatorINS_15PlainObjectBaseINS_6MatrixIdLin1ELin1ELi0ELin1ELin1EEEEEED2Ev, symObjAddr: 0x21BE0, symBinAddr: 0x1000257E8, symSize: 0x2C }
  - { offsetInCU: 0x12A634, offset: 0x12A634, size: 0x8, addend: 0x0, symName: __ZN5Eigen8internal9evaluatorINS_13CwiseBinaryOpINS0_17scalar_product_opIddEEKNS_14CwiseNullaryOpINS0_16scalar_random_opIdEENS_6MatrixIdLin1ELin1ELi0ELin1ELin1EEEEEKNS5_INS0_18scalar_constant_opIdEEKS9_EEEEED2Ev, symObjAddr: 0x21C0C, symBinAddr: 0x100025814, symSize: 0x2C }
  - { offsetInCU: 0x12A661, offset: 0x12A661, size: 0x8, addend: 0x0, symName: __ZN5Eigen8internal16binary_evaluatorINS_13CwiseBinaryOpINS0_17scalar_product_opIddEEKNS_14CwiseNullaryOpINS0_16scalar_random_opIdEENS_6MatrixIdLin1ELin1ELi0ELin1ELin1EEEEEKNS5_INS0_18scalar_constant_opIdEEKS9_EEEENS0_10IndexBasedESI_ddED2Ev, symObjAddr: 0x21C38, symBinAddr: 0x100025840, symSize: 0x34 }
  - { offsetInCU: 0x12A68D, offset: 0x12A68D, size: 0x8, addend: 0x0, symName: __ZN5Eigen8internal16binary_evaluatorINS_13CwiseBinaryOpINS0_17scalar_product_opIddEEKNS_14CwiseNullaryOpINS0_16scalar_random_opIdEENS_6MatrixIdLin1ELin1ELi0ELin1ELin1EEEEEKNS5_INS0_18scalar_constant_opIdEEKS9_EEEENS0_10IndexBasedESI_ddE4DataD1Ev, symObjAddr: 0x21C6C, symBinAddr: 0x100025874, symSize: 0x2C }
  - { offsetInCU: 0x12A6BA, offset: 0x12A6BA, size: 0x8, addend: 0x0, symName: __ZN5Eigen8internal16binary_evaluatorINS_13CwiseBinaryOpINS0_17scalar_product_opIddEEKNS_14CwiseNullaryOpINS0_16scalar_random_opIdEENS_6MatrixIdLin1ELin1ELi0ELin1ELin1EEEEEKNS5_INS0_18scalar_constant_opIdEEKS9_EEEENS0_10IndexBasedESI_ddE4DataD2Ev, symObjAddr: 0x21C98, symBinAddr: 0x1000258A0, symSize: 0x3C }
  - { offsetInCU: 0x12A6E7, offset: 0x12A6E7, size: 0x8, addend: 0x0, symName: __ZN5Eigen8internal9evaluatorIKNS_14CwiseNullaryOpINS0_18scalar_constant_opIdEEKNS_6MatrixIdLin1ELin1ELi0ELin1ELin1EEEEEED1Ev, symObjAddr: 0x21CD4, symBinAddr: 0x1000258DC, symSize: 0x2C }
  - { offsetInCU: 0x12A713, offset: 0x12A713, size: 0x8, addend: 0x0, symName: __ZN5Eigen8internal9evaluatorIKNS_14CwiseNullaryOpINS0_18scalar_constant_opIdEEKNS_6MatrixIdLin1ELin1ELi0ELin1ELin1EEEEEED2Ev, symObjAddr: 0x21D00, symBinAddr: 0x100025908, symSize: 0x2C }
  - { offsetInCU: 0x12A73F, offset: 0x12A73F, size: 0x8, addend: 0x0, symName: __ZN5Eigen8internal9evaluatorINS_14CwiseNullaryOpINS0_18scalar_constant_opIdEEKNS_6MatrixIdLin1ELin1ELi0ELin1ELin1EEEEEED2Ev, symObjAddr: 0x21D2C, symBinAddr: 0x100025934, symSize: 0x2C }
  - { offsetInCU: 0x12A76B, offset: 0x12A76B, size: 0x8, addend: 0x0, symName: __ZN5Eigen8internal9assign_opIddEC2Ev, symObjAddr: 0x21D58, symBinAddr: 0x100025960, symSize: 0x14 }
  - { offsetInCU: 0x12A795, offset: 0x12A795, size: 0x8, addend: 0x0, symName: __ZNSt3__16vectorIN5Eigen6MatrixIdLin1ELin1ELi0ELin1ELin1EEENS_9allocatorIS3_EEED2B8ue170006Ev, symObjAddr: 0x21D6C, symBinAddr: 0x100025974, symSize: 0x1F8 }
  - { offsetInCU: 0x12A7C0, offset: 0x12A7C0, size: 0x8, addend: 0x0, symName: __ZNSt3__16vectorIN5Eigen6MatrixIdLin1ELin1ELi0ELin1ELin1EEENS_9allocatorIS3_EEE16__destroy_vectorC1B8ue170006ERS6_, symObjAddr: 0x21F64, symBinAddr: 0x100025B6C, symSize: 0x34 }
  - { offsetInCU: 0x12A7F9, offset: 0x12A7F9, size: 0x8, addend: 0x0, symName: __ZNSt3__16vectorIN5Eigen6MatrixIdLin1ELin1ELi0ELin1ELin1EEENS_9allocatorIS3_EEE16__destroy_vectorclB8ue170006Ev, symObjAddr: 0x21F98, symBinAddr: 0x100025BA0, symSize: 0x228 }
  - { offsetInCU: 0x12A81F, offset: 0x12A81F, size: 0x8, addend: 0x0, symName: __ZNSt3__16vectorIN5Eigen6MatrixIdLin1ELin1ELi0ELin1ELin1EEENS_9allocatorIS3_EEE16__destroy_vectorC2B8ue170006ERS6_, symObjAddr: 0x221C0, symBinAddr: 0x100025DC8, symSize: 0x70 }
  - { offsetInCU: 0x12A858, offset: 0x12A858, size: 0x8, addend: 0x0, symName: __ZNSt3__16vectorIN5Eigen6MatrixIdLin1ELin1ELi0ELin1ELin1EEENS_9allocatorIS3_EEE7__clearB8ue170006Ev, symObjAddr: 0x22230, symBinAddr: 0x100025E38, symSize: 0x64 }
  - { offsetInCU: 0x12A87E, offset: 0x12A87E, size: 0x8, addend: 0x0, symName: __ZNSt3__16vectorIN5Eigen6MatrixIdLin1ELin1ELi0ELin1ELin1EEENS_9allocatorIS3_EEE22__base_destruct_at_endB8ue170006EPS3_, symObjAddr: 0x22294, symBinAddr: 0x100025E9C, symSize: 0x114 }
  - { offsetInCU: 0x12A8C2, offset: 0x12A8C2, size: 0x8, addend: 0x0, symName: __ZN5Eigen6MatrixIdLin1ELin1ELi0ELin1ELin1EEC2INS_13CwiseBinaryOpINS_8internal17scalar_product_opIddEEKNS_14CwiseNullaryOpINS4_16scalar_random_opIdEES1_EEKNS7_INS4_18scalar_constant_opIdEEKS1_EEEEEERKT_, symObjAddr: 0x223A8, symBinAddr: 0x100025FB0, symSize: 0x68 }
  - { offsetInCU: 0x12A904, offset: 0x12A904, size: 0x8, addend: 0x0, symName: __ZN5Eigen15PlainObjectBaseINS_6MatrixIdLin1ELin1ELi0ELin1ELin1EEEE6_init1INS_13CwiseBinaryOpINS_8internal17scalar_product_opIddEEKNS_14CwiseNullaryOpINS6_16scalar_random_opIdEES2_EEKNS9_INS6_18scalar_constant_opIdEEKS2_EEEESJ_EEvRKNS_9DenseBaseIT0_EE, symObjAddr: 0x22410, symBinAddr: 0x100026018, symSize: 0x2C }
  - { offsetInCU: 0x12A94B, offset: 0x12A94B, size: 0x8, addend: 0x0, symName: __ZN5Eigen15PlainObjectBaseINS_6MatrixIdLin1ELin1ELi0ELin1ELin1EEEE12_set_noaliasINS_13CwiseBinaryOpINS_8internal17scalar_product_opIddEEKNS_14CwiseNullaryOpINS6_16scalar_random_opIdEES2_EEKNS9_INS6_18scalar_constant_opIdEEKS2_EEEEEERS2_RKNS_9DenseBaseIT_EE, symObjAddr: 0x2243C, symBinAddr: 0x100026044, symSize: 0x21C }
  - { offsetInCU: 0x12A98B, offset: 0x12A98B, size: 0x8, addend: 0x0, symName: __ZN5Eigen6MatrixIdLin1ELi1ELi0ELin1ELi1EEC2INS_13CwiseBinaryOpINS_8internal17scalar_product_opIddEEKNS_14CwiseNullaryOpINS4_16scalar_random_opIdEES1_EEKNS7_INS4_18scalar_constant_opIdEEKS1_EEEEEERKT_, symObjAddr: 0x22658, symBinAddr: 0x100026260, symSize: 0x68 }
  - { offsetInCU: 0x12A9CD, offset: 0x12A9CD, size: 0x8, addend: 0x0, symName: __ZN5Eigen15PlainObjectBaseINS_6MatrixIdLin1ELi1ELi0ELin1ELi1EEEEC2Ev, symObjAddr: 0x226C0, symBinAddr: 0x1000262C8, symSize: 0x34 }
  - { offsetInCU: 0x12A9F7, offset: 0x12A9F7, size: 0x8, addend: 0x0, symName: __ZN5Eigen15PlainObjectBaseINS_6MatrixIdLin1ELi1ELi0ELin1ELi1EEEE6_init1INS_13CwiseBinaryOpINS_8internal17scalar_product_opIddEEKNS_14CwiseNullaryOpINS6_16scalar_random_opIdEES2_EEKNS9_INS6_18scalar_constant_opIdEEKS2_EEEESJ_EEvRKNS_9DenseBaseIT0_EE, symObjAddr: 0x226F4, symBinAddr: 0x1000262FC, symSize: 0x2C }
  - { offsetInCU: 0x12AA3E, offset: 0x12AA3E, size: 0x8, addend: 0x0, symName: __ZN5Eigen12DenseStorageIdLin1ELin1ELi1ELi0EEC1Ev, symObjAddr: 0x22720, symBinAddr: 0x100026328, symSize: 0x2C }
  - { offsetInCU: 0x12AA68, offset: 0x12AA68, size: 0x8, addend: 0x0, symName: __ZN5Eigen12DenseStorageIdLin1ELin1ELi1ELi0EEC2Ev, symObjAddr: 0x2274C, symBinAddr: 0x100026354, symSize: 0x9C }
  - { offsetInCU: 0x12AA92, offset: 0x12AA92, size: 0x8, addend: 0x0, symName: __ZN5Eigen15PlainObjectBaseINS_6MatrixIdLin1ELi1ELi0ELin1ELi1EEEE12_set_noaliasINS_13CwiseBinaryOpINS_8internal17scalar_product_opIddEEKNS_14CwiseNullaryOpINS6_16scalar_random_opIdEES2_EEKNS9_INS6_18scalar_constant_opIdEEKS2_EEEEEERS2_RKNS_9DenseBaseIT_EE, symObjAddr: 0x227E8, symBinAddr: 0x1000263F0, symSize: 0x21C }
  - { offsetInCU: 0x12AAD2, offset: 0x12AAD2, size: 0x8, addend: 0x0, symName: __ZN5Eigen9EigenBaseINS_6MatrixIdLin1ELi1ELi0ELin1ELi1EEEE7derivedEv, symObjAddr: 0x22A40, symBinAddr: 0x100026648, symSize: 0x14 }
  - { offsetInCU: 0x12AAF8, offset: 0x12AAF8, size: 0x8, addend: 0x0, symName: __ZNK5Eigen9EigenBaseINS_13CwiseBinaryOpINS_8internal17scalar_product_opIddEEKNS_14CwiseNullaryOpINS2_16scalar_random_opIdEENS_6MatrixIdLin1ELi1ELi0ELin1ELi1EEEEEKNS5_INS2_18scalar_constant_opIdEEKS9_EEEEE7derivedEv, symObjAddr: 0x22A54, symBinAddr: 0x10002665C, symSize: 0x14 }
  - { offsetInCU: 0x12AB1E, offset: 0x12AB1E, size: 0x8, addend: 0x0, symName: __ZN5Eigen8internal10AssignmentINS_6MatrixIdLin1ELi1ELi0ELin1ELi1EEENS_13CwiseBinaryOpINS0_17scalar_product_opIddEEKNS_14CwiseNullaryOpINS0_16scalar_random_opIdEES3_EEKNS7_INS0_18scalar_constant_opIdEEKS3_EEEENS0_9assign_opIddEENS0_11Dense2DenseEvE3runERS3_RKSH_RKSJ_, symObjAddr: 0x22A68, symBinAddr: 0x100026670, symSize: 0x40 }
  - { offsetInCU: 0x12ABC9, offset: 0x12ABC9, size: 0x8, addend: 0x0, symName: __ZN5Eigen8internal9evaluatorINS_13CwiseBinaryOpINS0_17scalar_product_opIddEEKNS_14CwiseNullaryOpINS0_16scalar_random_opIdEENS_6MatrixIdLin1ELi1ELi0ELin1ELi1EEEEEKNS5_INS0_18scalar_constant_opIdEEKS9_EEEEEC1ERKSH_, symObjAddr: 0x22EE0, symBinAddr: 0x100026AE8, symSize: 0x34 }
  - { offsetInCU: 0x12AC02, offset: 0x12AC02, size: 0x8, addend: 0x0, symName: __ZN5Eigen8internal9evaluatorINS_6MatrixIdLin1ELi1ELi0ELin1ELi1EEEEC1ERKS3_, symObjAddr: 0x23010, symBinAddr: 0x100026C18, symSize: 0x34 }
  - { offsetInCU: 0x12AC3B, offset: 0x12AC3B, size: 0x8, addend: 0x0, symName: __ZNK5Eigen9EigenBaseINS_6MatrixIdLin1ELi1ELi0ELin1ELi1EEEE18const_cast_derivedEv, symObjAddr: 0x23044, symBinAddr: 0x100026C4C, symSize: 0x14 }
  - { offsetInCU: 0x12AC8E, offset: 0x12AC8E, size: 0x8, addend: 0x0, symName: __ZN5Eigen8internal31generic_dense_assignment_kernelINS0_9evaluatorINS_6MatrixIdLin1ELi1ELi0ELin1ELi1EEEEENS2_INS_13CwiseBinaryOpINS0_17scalar_product_opIddEEKNS_14CwiseNullaryOpINS0_16scalar_random_opIdEES4_EEKNS9_INS0_18scalar_constant_opIdEEKS4_EEEEEENS0_9assign_opIddEELi0EEC1ERS5_RKSK_RKSM_RS4_, symObjAddr: 0x23058, symBinAddr: 0x100026C60, symSize: 0x4C }
  - { offsetInCU: 0x12ACF9, offset: 0x12ACF9, size: 0x8, addend: 0x0, symName: __ZN5Eigen8internal21dense_assignment_loopINS0_31generic_dense_assignment_kernelINS0_9evaluatorINS_6MatrixIdLin1ELi1ELi0ELin1ELi1EEEEENS3_INS_13CwiseBinaryOpINS0_17scalar_product_opIddEEKNS_14CwiseNullaryOpINS0_16scalar_random_opIdEES5_EEKNSA_INS0_18scalar_constant_opIdEEKS5_EEEEEENS0_9assign_opIddEELi0EEELi1ELi0EE3runERSO_, symObjAddr: 0x230A4, symBinAddr: 0x100026CAC, symSize: 0x6C }
  - { offsetInCU: 0x12AD49, offset: 0x12AD49, size: 0x8, addend: 0x0, symName: __ZN5Eigen8internal9evaluatorINS_6MatrixIdLin1ELi1ELi0ELin1ELi1EEEED1Ev, symObjAddr: 0x23110, symBinAddr: 0x100026D18, symSize: 0x2C }
  - { offsetInCU: 0x12AD76, offset: 0x12AD76, size: 0x8, addend: 0x0, symName: __ZN5Eigen8internal9evaluatorINS_13CwiseBinaryOpINS0_17scalar_product_opIddEEKNS_14CwiseNullaryOpINS0_16scalar_random_opIdEENS_6MatrixIdLin1ELi1ELi0ELin1ELi1EEEEEKNS5_INS0_18scalar_constant_opIdEEKS9_EEEEED1Ev, symObjAddr: 0x2313C, symBinAddr: 0x100026D44, symSize: 0x2C }
  - { offsetInCU: 0x12ADA3, offset: 0x12ADA3, size: 0x8, addend: 0x0, symName: __ZN5Eigen8internal9evaluatorINS_13CwiseBinaryOpINS0_17scalar_product_opIddEEKNS_14CwiseNullaryOpINS0_16scalar_random_opIdEENS_6MatrixIdLin1ELi1ELi0ELin1ELi1EEEEEKNS5_INS0_18scalar_constant_opIdEEKS9_EEEEEC2ERKSH_, symObjAddr: 0x23168, symBinAddr: 0x100026D70, symSize: 0x34 }
  - { offsetInCU: 0x12ADDC, offset: 0x12ADDC, size: 0x8, addend: 0x0, symName: __ZN5Eigen8internal16binary_evaluatorINS_13CwiseBinaryOpINS0_17scalar_product_opIddEEKNS_14CwiseNullaryOpINS0_16scalar_random_opIdEENS_6MatrixIdLin1ELi1ELi0ELin1ELi1EEEEEKNS5_INS0_18scalar_constant_opIdEEKS9_EEEENS0_10IndexBasedESI_ddEC2ERKSH_, symObjAddr: 0x2319C, symBinAddr: 0x100026DA4, symSize: 0x64 }
  - { offsetInCU: 0x12AE15, offset: 0x12AE15, size: 0x8, addend: 0x0, symName: __ZN5Eigen8internal14evaluator_baseINS_13CwiseBinaryOpINS0_17scalar_product_opIddEEKNS_14CwiseNullaryOpINS0_16scalar_random_opIdEENS_6MatrixIdLin1ELi1ELi0ELin1ELi1EEEEEKNS5_INS0_18scalar_constant_opIdEEKS9_EEEEEC2Ev, symObjAddr: 0x23200, symBinAddr: 0x100026E08, symSize: 0x14 }
  - { offsetInCU: 0x12AE3F, offset: 0x12AE3F, size: 0x8, addend: 0x0, symName: __ZN5Eigen8internal16binary_evaluatorINS_13CwiseBinaryOpINS0_17scalar_product_opIddEEKNS_14CwiseNullaryOpINS0_16scalar_random_opIdEENS_6MatrixIdLin1ELi1ELi0ELin1ELi1EEEEEKNS5_INS0_18scalar_constant_opIdEEKS9_EEEENS0_10IndexBasedESI_ddE4DataC1ERKSH_, symObjAddr: 0x23214, symBinAddr: 0x100026E1C, symSize: 0x34 }
  - { offsetInCU: 0x12AE78, offset: 0x12AE78, size: 0x8, addend: 0x0, symName: __ZN5Eigen8internal14evaluator_baseINS_13CwiseBinaryOpINS0_17scalar_product_opIddEEKNS_14CwiseNullaryOpINS0_16scalar_random_opIdEENS_6MatrixIdLin1ELi1ELi0ELin1ELi1EEEEEKNS5_INS0_18scalar_constant_opIdEEKS9_EEEEED2Ev, symObjAddr: 0x23248, symBinAddr: 0x100026E50, symSize: 0x14 }
  - { offsetInCU: 0x12AEA2, offset: 0x12AEA2, size: 0x8, addend: 0x0, symName: __ZN5Eigen8internal16binary_evaluatorINS_13CwiseBinaryOpINS0_17scalar_product_opIddEEKNS_14CwiseNullaryOpINS0_16scalar_random_opIdEENS_6MatrixIdLin1ELi1ELi0ELin1ELi1EEEEEKNS5_INS0_18scalar_constant_opIdEEKS9_EEEENS0_10IndexBasedESI_ddE4DataC2ERKSH_, symObjAddr: 0x2325C, symBinAddr: 0x100026E64, symSize: 0xA8 }
  - { offsetInCU: 0x12AEDB, offset: 0x12AEDB, size: 0x8, addend: 0x0, symName: __ZNK5Eigen13CwiseBinaryOpINS_8internal17scalar_product_opIddEEKNS_14CwiseNullaryOpINS1_16scalar_random_opIdEENS_6MatrixIdLin1ELi1ELi0ELin1ELi1EEEEEKNS4_INS1_18scalar_constant_opIdEEKS8_EEE7functorEv, symObjAddr: 0x23304, symBinAddr: 0x100026F0C, symSize: 0x18 }
  - { offsetInCU: 0x12AF01, offset: 0x12AF01, size: 0x8, addend: 0x0, symName: __ZNK5Eigen13CwiseBinaryOpINS_8internal17scalar_product_opIddEEKNS_14CwiseNullaryOpINS1_16scalar_random_opIdEENS_6MatrixIdLin1ELi1ELi0ELin1ELi1EEEEEKNS4_INS1_18scalar_constant_opIdEEKS8_EEE3lhsEv, symObjAddr: 0x2331C, symBinAddr: 0x100026F24, symSize: 0x18 }
  - { offsetInCU: 0x12AF27, offset: 0x12AF27, size: 0x8, addend: 0x0, symName: __ZN5Eigen8internal9evaluatorIKNS_14CwiseNullaryOpINS0_16scalar_random_opIdEENS_6MatrixIdLin1ELi1ELi0ELin1ELi1EEEEEEC1ERS8_, symObjAddr: 0x23334, symBinAddr: 0x100026F3C, symSize: 0x34 }
  - { offsetInCU: 0x12AF5F, offset: 0x12AF5F, size: 0x8, addend: 0x0, symName: __ZNK5Eigen13CwiseBinaryOpINS_8internal17scalar_product_opIddEEKNS_14CwiseNullaryOpINS1_16scalar_random_opIdEENS_6MatrixIdLin1ELi1ELi0ELin1ELi1EEEEEKNS4_INS1_18scalar_constant_opIdEEKS8_EEE3rhsEv, symObjAddr: 0x23368, symBinAddr: 0x100026F70, symSize: 0x18 }
  - { offsetInCU: 0x12AF85, offset: 0x12AF85, size: 0x8, addend: 0x0, symName: __ZN5Eigen8internal9evaluatorIKNS_14CwiseNullaryOpINS0_18scalar_constant_opIdEEKNS_6MatrixIdLin1ELi1ELi0ELin1ELi1EEEEEEC1ERS9_, symObjAddr: 0x23380, symBinAddr: 0x100026F88, symSize: 0x34 }
  - { offsetInCU: 0x12AFBD, offset: 0x12AFBD, size: 0x8, addend: 0x0, symName: __ZN5Eigen8internal9evaluatorIKNS_14CwiseNullaryOpINS0_16scalar_random_opIdEENS_6MatrixIdLin1ELi1ELi0ELin1ELi1EEEEEED1Ev, symObjAddr: 0x233B4, symBinAddr: 0x100026FBC, symSize: 0x2C }
  - { offsetInCU: 0x12AFE9, offset: 0x12AFE9, size: 0x8, addend: 0x0, symName: __ZN5Eigen8internal9evaluatorIKNS_14CwiseNullaryOpINS0_16scalar_random_opIdEENS_6MatrixIdLin1ELi1ELi0ELin1ELi1EEEEEEC2ERS8_, symObjAddr: 0x233E0, symBinAddr: 0x100026FE8, symSize: 0x34 }
  - { offsetInCU: 0x12B021, offset: 0x12B021, size: 0x8, addend: 0x0, symName: __ZN5Eigen8internal9evaluatorINS_14CwiseNullaryOpINS0_16scalar_random_opIdEENS_6MatrixIdLin1ELi1ELi0ELin1ELi1EEEEEEC2ERKS7_, symObjAddr: 0x23414, symBinAddr: 0x10002701C, symSize: 0x74 }
  - { offsetInCU: 0x12B05A, offset: 0x12B05A, size: 0x8, addend: 0x0, symName: __ZN5Eigen8internal14evaluator_baseINS_14CwiseNullaryOpINS0_16scalar_random_opIdEENS_6MatrixIdLin1ELi1ELi0ELin1ELi1EEEEEEC2Ev, symObjAddr: 0x23488, symBinAddr: 0x100027090, symSize: 0x14 }
  - { offsetInCU: 0x12B084, offset: 0x12B084, size: 0x8, addend: 0x0, symName: __ZNK5Eigen14CwiseNullaryOpINS_8internal16scalar_random_opIdEENS_6MatrixIdLin1ELi1ELi0ELin1ELi1EEEE7functorEv, symObjAddr: 0x2349C, symBinAddr: 0x1000270A4, symSize: 0x18 }
  - { offsetInCU: 0x12B0AA, offset: 0x12B0AA, size: 0x8, addend: 0x0, symName: __ZN5Eigen8internal14evaluator_baseINS_14CwiseNullaryOpINS0_16scalar_random_opIdEENS_6MatrixIdLin1ELi1ELi0ELin1ELi1EEEEEED2Ev, symObjAddr: 0x234B4, symBinAddr: 0x1000270BC, symSize: 0x14 }
  - { offsetInCU: 0x12B0D4, offset: 0x12B0D4, size: 0x8, addend: 0x0, symName: __ZN5Eigen8internal9evaluatorIKNS_14CwiseNullaryOpINS0_18scalar_constant_opIdEEKNS_6MatrixIdLin1ELi1ELi0ELin1ELi1EEEEEEC2ERS9_, symObjAddr: 0x234C8, symBinAddr: 0x1000270D0, symSize: 0x34 }
  - { offsetInCU: 0x12B10C, offset: 0x12B10C, size: 0x8, addend: 0x0, symName: __ZN5Eigen8internal9evaluatorINS_14CwiseNullaryOpINS0_18scalar_constant_opIdEEKNS_6MatrixIdLin1ELi1ELi0ELin1ELi1EEEEEEC2ERKS8_, symObjAddr: 0x234FC, symBinAddr: 0x100027104, symSize: 0x74 }
  - { offsetInCU: 0x12B145, offset: 0x12B145, size: 0x8, addend: 0x0, symName: __ZN5Eigen8internal14evaluator_baseINS_14CwiseNullaryOpINS0_18scalar_constant_opIdEEKNS_6MatrixIdLin1ELi1ELi0ELin1ELi1EEEEEEC2Ev, symObjAddr: 0x23570, symBinAddr: 0x100027178, symSize: 0x14 }
  - { offsetInCU: 0x12B16F, offset: 0x12B16F, size: 0x8, addend: 0x0, symName: __ZNK5Eigen14CwiseNullaryOpINS_8internal18scalar_constant_opIdEEKNS_6MatrixIdLin1ELi1ELi0ELin1ELi1EEEE7functorEv, symObjAddr: 0x23584, symBinAddr: 0x10002718C, symSize: 0x18 }
  - { offsetInCU: 0x12B195, offset: 0x12B195, size: 0x8, addend: 0x0, symName: __ZN5Eigen8internal14evaluator_baseINS_14CwiseNullaryOpINS0_18scalar_constant_opIdEEKNS_6MatrixIdLin1ELi1ELi0ELin1ELi1EEEEEED2Ev, symObjAddr: 0x2359C, symBinAddr: 0x1000271A4, symSize: 0x14 }
  - { offsetInCU: 0x12B1BF, offset: 0x12B1BF, size: 0x8, addend: 0x0, symName: __ZN5Eigen8internal9evaluatorIKNS_14CwiseNullaryOpINS0_16scalar_random_opIdEENS_6MatrixIdLin1ELi1ELi0ELin1ELi1EEEEEED2Ev, symObjAddr: 0x235B0, symBinAddr: 0x1000271B8, symSize: 0x2C }
  - { offsetInCU: 0x12B1EB, offset: 0x12B1EB, size: 0x8, addend: 0x0, symName: __ZN5Eigen8internal9evaluatorINS_14CwiseNullaryOpINS0_16scalar_random_opIdEENS_6MatrixIdLin1ELi1ELi0ELin1ELi1EEEEEED2Ev, symObjAddr: 0x235DC, symBinAddr: 0x1000271E4, symSize: 0x2C }
  - { offsetInCU: 0x12B217, offset: 0x12B217, size: 0x8, addend: 0x0, symName: __ZNK5Eigen13CwiseBinaryOpINS_8internal17scalar_product_opIddEEKNS_14CwiseNullaryOpINS1_16scalar_random_opIdEENS_6MatrixIdLin1ELi1ELi0ELin1ELi1EEEEEKNS4_INS1_18scalar_constant_opIdEEKS8_EEE4rowsEv, symObjAddr: 0x23608, symBinAddr: 0x100027210, symSize: 0x44 }
  - { offsetInCU: 0x12B23D, offset: 0x12B23D, size: 0x8, addend: 0x0, symName: __ZNK5Eigen13CwiseBinaryOpINS_8internal17scalar_product_opIddEEKNS_14CwiseNullaryOpINS1_16scalar_random_opIdEENS_6MatrixIdLin1ELi1ELi0ELin1ELi1EEEEEKNS4_INS1_18scalar_constant_opIdEEKS8_EEE4colsEv, symObjAddr: 0x2364C, symBinAddr: 0x100027254, symSize: 0x44 }
  - { offsetInCU: 0x12B263, offset: 0x12B263, size: 0x8, addend: 0x0, symName: __ZNK5Eigen15PlainObjectBaseINS_6MatrixIdLin1ELi1ELi0ELin1ELi1EEEE4rowsEv, symObjAddr: 0x23690, symBinAddr: 0x100027298, symSize: 0x24 }
  - { offsetInCU: 0x12B289, offset: 0x12B289, size: 0x8, addend: 0x0, symName: __ZNK5Eigen15PlainObjectBaseINS_6MatrixIdLin1ELi1ELi0ELin1ELi1EEEE4colsEv, symObjAddr: 0x236B4, symBinAddr: 0x1000272BC, symSize: 0x3C }
  - { offsetInCU: 0x12B2AF, offset: 0x12B2AF, size: 0x8, addend: 0x0, symName: __ZN5Eigen15PlainObjectBaseINS_6MatrixIdLin1ELi1ELi0ELin1ELi1EEEE6resizeEll, symObjAddr: 0x236F0, symBinAddr: 0x1000272F8, symSize: 0x16C }
  - { offsetInCU: 0x12B32B, offset: 0x12B32B, size: 0x8, addend: 0x0, symName: __ZNK5Eigen14CwiseNullaryOpINS_8internal18scalar_constant_opIdEEKNS_6MatrixIdLin1ELi1ELi0ELin1ELi1EEEE4rowsEv, symObjAddr: 0x2385C, symBinAddr: 0x100027464, symSize: 0x24 }
  - { offsetInCU: 0x12B351, offset: 0x12B351, size: 0x8, addend: 0x0, symName: __ZNK5Eigen14CwiseNullaryOpINS_8internal16scalar_random_opIdEENS_6MatrixIdLin1ELi1ELi0ELin1ELi1EEEE4colsEv, symObjAddr: 0x23880, symBinAddr: 0x100027488, symSize: 0x20 }
  - { offsetInCU: 0x12B377, offset: 0x12B377, size: 0x8, addend: 0x0, symName: __ZN5Eigen8internal19variable_if_dynamicIlLi1EE5valueEv, symObjAddr: 0x238A0, symBinAddr: 0x1000274A8, symSize: 0x8 }
  - { offsetInCU: 0x12B38B, offset: 0x12B38B, size: 0x8, addend: 0x0, symName: __ZNK5Eigen12DenseStorageIdLin1ELin1ELi1ELi0EE4rowsEv, symObjAddr: 0x238A8, symBinAddr: 0x1000274B0, symSize: 0x64 }
  - { offsetInCU: 0x12B3B1, offset: 0x12B3B1, size: 0x8, addend: 0x0, symName: __ZN5Eigen12DenseStorageIdLin1ELin1ELi1ELi0EE4colsEv, symObjAddr: 0x2390C, symBinAddr: 0x100027514, symSize: 0x8 }
  - { offsetInCU: 0x12B3C5, offset: 0x12B3C5, size: 0x8, addend: 0x0, symName: __ZN5Eigen12DenseStorageIdLin1ELin1ELi1ELi0EE6resizeElll, symObjAddr: 0x23914, symBinAddr: 0x10002751C, symSize: 0x1FC }
  - { offsetInCU: 0x12B414, offset: 0x12B414, size: 0x8, addend: 0x0, symName: __ZN5Eigen8internal9evaluatorINS_6MatrixIdLin1ELi1ELi0ELin1ELi1EEEEC2ERKS3_, symObjAddr: 0x23B10, symBinAddr: 0x100027718, symSize: 0x34 }
  - { offsetInCU: 0x12B44D, offset: 0x12B44D, size: 0x8, addend: 0x0, symName: __ZN5Eigen8internal9evaluatorINS_15PlainObjectBaseINS_6MatrixIdLin1ELi1ELi0ELin1ELi1EEEEEEC2ERKS5_, symObjAddr: 0x23B44, symBinAddr: 0x10002774C, symSize: 0x78 }
  - { offsetInCU: 0x12B485, offset: 0x12B485, size: 0x8, addend: 0x0, symName: __ZN5Eigen8internal14evaluator_baseINS_6MatrixIdLin1ELi1ELi0ELin1ELi1EEEEC2Ev, symObjAddr: 0x23BBC, symBinAddr: 0x1000277C4, symSize: 0x14 }
  - { offsetInCU: 0x12B4AF, offset: 0x12B4AF, size: 0x8, addend: 0x0, symName: __ZNK5Eigen15PlainObjectBaseINS_6MatrixIdLin1ELi1ELi0ELin1ELi1EEEE4dataEv, symObjAddr: 0x23BD0, symBinAddr: 0x1000277D8, symSize: 0x24 }
  - { offsetInCU: 0x12B4D5, offset: 0x12B4D5, size: 0x8, addend: 0x0, symName: __ZN5Eigen8internal30plainobjectbase_evaluator_dataIdLi0EEC1EPKdl, symObjAddr: 0x23BF4, symBinAddr: 0x1000277FC, symSize: 0x3C }
  - { offsetInCU: 0x12B51B, offset: 0x12B51B, size: 0x8, addend: 0x0, symName: __ZN5Eigen8internal14evaluator_baseINS_6MatrixIdLin1ELi1ELi0ELin1ELi1EEEED2Ev, symObjAddr: 0x23C30, symBinAddr: 0x100027838, symSize: 0x14 }
  - { offsetInCU: 0x12B545, offset: 0x12B545, size: 0x8, addend: 0x0, symName: __ZNK5Eigen12DenseStorageIdLin1ELin1ELi1ELi0EE4dataEv, symObjAddr: 0x23C44, symBinAddr: 0x10002784C, symSize: 0x60 }
  - { offsetInCU: 0x12B56B, offset: 0x12B56B, size: 0x8, addend: 0x0, symName: __ZN5Eigen8internal30plainobjectbase_evaluator_dataIdLi0EEC2EPKdl, symObjAddr: 0x23CA4, symBinAddr: 0x1000278AC, symSize: 0x240 }
  - { offsetInCU: 0x12B5B7, offset: 0x12B5B7, size: 0x8, addend: 0x0, symName: __ZN5Eigen8internal31generic_dense_assignment_kernelINS0_9evaluatorINS_6MatrixIdLin1ELi1ELi0ELin1ELi1EEEEENS2_INS_13CwiseBinaryOpINS0_17scalar_product_opIddEEKNS_14CwiseNullaryOpINS0_16scalar_random_opIdEES4_EEKNS9_INS0_18scalar_constant_opIdEEKS4_EEEEEENS0_9assign_opIddEELi0EEC2ERS5_RKSK_RKSM_RS4_, symObjAddr: 0x23EF4, symBinAddr: 0x100027AFC, symSize: 0x14C }
  - { offsetInCU: 0x12B61D, offset: 0x12B61D, size: 0x8, addend: 0x0, symName: __ZNK5Eigen8internal31generic_dense_assignment_kernelINS0_9evaluatorINS_6MatrixIdLin1ELi1ELi0ELin1ELi1EEEEENS2_INS_13CwiseBinaryOpINS0_17scalar_product_opIddEEKNS_14CwiseNullaryOpINS0_16scalar_random_opIdEES4_EEKNS9_INS0_18scalar_constant_opIdEEKS4_EEEEEENS0_9assign_opIddEELi0EE4sizeEv, symObjAddr: 0x24040, symBinAddr: 0x100027C48, symSize: 0x68 }
  - { offsetInCU: 0x12B643, offset: 0x12B643, size: 0x8, addend: 0x0, symName: __ZN5Eigen8internal31generic_dense_assignment_kernelINS0_9evaluatorINS_6MatrixIdLin1ELi1ELi0ELin1ELi1EEEEENS2_INS_13CwiseBinaryOpINS0_17scalar_product_opIddEEKNS_14CwiseNullaryOpINS0_16scalar_random_opIdEES4_EEKNS9_INS0_18scalar_constant_opIdEEKS4_EEEEEENS0_9assign_opIddEELi0EE11assignCoeffEl, symObjAddr: 0x240A8, symBinAddr: 0x100027CB0, symSize: 0x2E0 }
  - { offsetInCU: 0x12B67A, offset: 0x12B67A, size: 0x8, addend: 0x0, symName: __ZNK5Eigen9EigenBaseINS_6MatrixIdLin1ELi1ELi0ELin1ELi1EEEE4sizeEv, symObjAddr: 0x24388, symBinAddr: 0x100027F90, symSize: 0x44 }
  - { offsetInCU: 0x12B6A0, offset: 0x12B6A0, size: 0x8, addend: 0x0, symName: __ZNK5Eigen9EigenBaseINS_6MatrixIdLin1ELi1ELi0ELin1ELi1EEEE4rowsEv, symObjAddr: 0x243CC, symBinAddr: 0x100027FD4, symSize: 0x44 }
  - { offsetInCU: 0x12B6C6, offset: 0x12B6C6, size: 0x8, addend: 0x0, symName: __ZNK5Eigen9EigenBaseINS_6MatrixIdLin1ELi1ELi0ELin1ELi1EEEE4colsEv, symObjAddr: 0x24410, symBinAddr: 0x100028018, symSize: 0x28 }
  - { offsetInCU: 0x12B6EC, offset: 0x12B6EC, size: 0x8, addend: 0x0, symName: __ZNK5Eigen9EigenBaseINS_6MatrixIdLin1ELi1ELi0ELin1ELi1EEEE7derivedEv, symObjAddr: 0x24438, symBinAddr: 0x100028040, symSize: 0x14 }
  - { offsetInCU: 0x12B712, offset: 0x12B712, size: 0x8, addend: 0x0, symName: __ZN5Eigen8internal9evaluatorINS_15PlainObjectBaseINS_6MatrixIdLin1ELi1ELi0ELin1ELi1EEEEEE8coeffRefEl, symObjAddr: 0x2444C, symBinAddr: 0x100028054, symSize: 0x6C }
  - { offsetInCU: 0x12B746, offset: 0x12B746, size: 0x8, addend: 0x0, symName: __ZNK5Eigen8internal16binary_evaluatorINS_13CwiseBinaryOpINS0_17scalar_product_opIddEEKNS_14CwiseNullaryOpINS0_16scalar_random_opIdEENS_6MatrixIdLin1ELi1ELi0ELin1ELi1EEEEEKNS5_INS0_18scalar_constant_opIdEEKS9_EEEENS0_10IndexBasedESI_ddE5coeffEl, symObjAddr: 0x244B8, symBinAddr: 0x1000280C0, symSize: 0x2D8 }
  - { offsetInCU: 0x12B77D, offset: 0x12B77D, size: 0x8, addend: 0x0, symName: __ZNK5Eigen8internal16binary_evaluatorINS_13CwiseBinaryOpINS0_17scalar_product_opIddEEKNS_14CwiseNullaryOpINS0_16scalar_random_opIdEENS_6MatrixIdLin1ELi1ELi0ELin1ELi1EEEEEKNS5_INS0_18scalar_constant_opIdEEKS9_EEEENS0_10IndexBasedESI_ddE4Data4funcEv, symObjAddr: 0x24790, symBinAddr: 0x100028398, symSize: 0x14 }
  - { offsetInCU: 0x12B7AD, offset: 0x12B7AD, size: 0x8, addend: 0x0, symName: __ZNK5Eigen8internal9evaluatorINS_14CwiseNullaryOpINS0_16scalar_random_opIdEENS_6MatrixIdLin1ELi1ELi0ELin1ELi1EEEEEE5coeffIlEEdT_, symObjAddr: 0x247A4, symBinAddr: 0x1000283AC, symSize: 0x38 }
  - { offsetInCU: 0x12B7F5, offset: 0x12B7F5, size: 0x8, addend: 0x0, symName: __ZNK5Eigen8internal9evaluatorINS_14CwiseNullaryOpINS0_18scalar_constant_opIdEEKNS_6MatrixIdLin1ELi1ELi0ELin1ELi1EEEEEE5coeffIlEEdT_, symObjAddr: 0x247DC, symBinAddr: 0x1000283E4, symSize: 0x38 }
  - { offsetInCU: 0x12B833, offset: 0x12B833, size: 0x8, addend: 0x0, symName: __ZN5Eigen8internal9evaluatorINS_6MatrixIdLin1ELi1ELi0ELin1ELi1EEEED2Ev, symObjAddr: 0x24814, symBinAddr: 0x10002841C, symSize: 0x2C }
  - { offsetInCU: 0x12B860, offset: 0x12B860, size: 0x8, addend: 0x0, symName: __ZN5Eigen8internal9evaluatorINS_15PlainObjectBaseINS_6MatrixIdLin1ELi1ELi0ELin1ELi1EEEEEED2Ev, symObjAddr: 0x24840, symBinAddr: 0x100028448, symSize: 0x2C }
  - { offsetInCU: 0x12B88C, offset: 0x12B88C, size: 0x8, addend: 0x0, symName: __ZN5Eigen8internal9evaluatorINS_13CwiseBinaryOpINS0_17scalar_product_opIddEEKNS_14CwiseNullaryOpINS0_16scalar_random_opIdEENS_6MatrixIdLin1ELi1ELi0ELin1ELi1EEEEEKNS5_INS0_18scalar_constant_opIdEEKS9_EEEEED2Ev, symObjAddr: 0x2486C, symBinAddr: 0x100028474, symSize: 0x2C }
  - { offsetInCU: 0x12B8B9, offset: 0x12B8B9, size: 0x8, addend: 0x0, symName: __ZN5Eigen8internal16binary_evaluatorINS_13CwiseBinaryOpINS0_17scalar_product_opIddEEKNS_14CwiseNullaryOpINS0_16scalar_random_opIdEENS_6MatrixIdLin1ELi1ELi0ELin1ELi1EEEEEKNS5_INS0_18scalar_constant_opIdEEKS9_EEEENS0_10IndexBasedESI_ddED2Ev, symObjAddr: 0x24898, symBinAddr: 0x1000284A0, symSize: 0x34 }
  - { offsetInCU: 0x12B8E5, offset: 0x12B8E5, size: 0x8, addend: 0x0, symName: __ZN5Eigen8internal16binary_evaluatorINS_13CwiseBinaryOpINS0_17scalar_product_opIddEEKNS_14CwiseNullaryOpINS0_16scalar_random_opIdEENS_6MatrixIdLin1ELi1ELi0ELin1ELi1EEEEEKNS5_INS0_18scalar_constant_opIdEEKS9_EEEENS0_10IndexBasedESI_ddE4DataD1Ev, symObjAddr: 0x248CC, symBinAddr: 0x1000284D4, symSize: 0x2C }
  - { offsetInCU: 0x12B912, offset: 0x12B912, size: 0x8, addend: 0x0, symName: __ZN5Eigen8internal16binary_evaluatorINS_13CwiseBinaryOpINS0_17scalar_product_opIddEEKNS_14CwiseNullaryOpINS0_16scalar_random_opIdEENS_6MatrixIdLin1ELi1ELi0ELin1ELi1EEEEEKNS5_INS0_18scalar_constant_opIdEEKS9_EEEENS0_10IndexBasedESI_ddE4DataD2Ev, symObjAddr: 0x248F8, symBinAddr: 0x100028500, symSize: 0x3C }
  - { offsetInCU: 0x12B93F, offset: 0x12B93F, size: 0x8, addend: 0x0, symName: __ZN5Eigen8internal9evaluatorIKNS_14CwiseNullaryOpINS0_18scalar_constant_opIdEEKNS_6MatrixIdLin1ELi1ELi0ELin1ELi1EEEEEED1Ev, symObjAddr: 0x24934, symBinAddr: 0x10002853C, symSize: 0x2C }
  - { offsetInCU: 0x12B96B, offset: 0x12B96B, size: 0x8, addend: 0x0, symName: __ZN5Eigen8internal9evaluatorIKNS_14CwiseNullaryOpINS0_18scalar_constant_opIdEEKNS_6MatrixIdLin1ELi1ELi0ELin1ELi1EEEEEED2Ev, symObjAddr: 0x24960, symBinAddr: 0x100028568, symSize: 0x2C }
  - { offsetInCU: 0x12B997, offset: 0x12B997, size: 0x8, addend: 0x0, symName: __ZN5Eigen8internal9evaluatorINS_14CwiseNullaryOpINS0_18scalar_constant_opIdEEKNS_6MatrixIdLin1ELi1ELi0ELin1ELi1EEEEEED2Ev, symObjAddr: 0x2498C, symBinAddr: 0x100028594, symSize: 0x2C }
  - { offsetInCU: 0x12B9C3, offset: 0x12B9C3, size: 0x8, addend: 0x0, symName: __ZN18MultiHeadAttentionD2Ev, symObjAddr: 0x249B8, symBinAddr: 0x1000285C0, symSize: 0x54 }
  - { offsetInCU: 0x12B9EF, offset: 0x12B9EF, size: 0x8, addend: 0x0, symName: __ZN23TransformerEncoderLayerD2Ev, symObjAddr: 0x24A0C, symBinAddr: 0x100028614, symSize: 0x78 }
  - { offsetInCU: 0x12BA1B, offset: 0x12BA1B, size: 0x8, addend: 0x0, symName: __ZNSt3__16vectorI23TransformerDecoderLayerNS_9allocatorIS1_EEE9__end_capB8ue170006Ev, symObjAddr: 0x24A84, symBinAddr: 0x10002868C, symSize: 0x28 }
  - { offsetInCU: 0x12BA47, offset: 0x12BA47, size: 0x8, addend: 0x0, symName: __ZNSt3__16vectorI23TransformerDecoderLayerNS_9allocatorIS1_EEE22__construct_one_at_endB8ue170006IJS1_EEEvDpOT_, symObjAddr: 0x24AAC, symBinAddr: 0x1000286B4, symSize: 0x36C }
  - { offsetInCU: 0x12BA9C, offset: 0x12BA9C, size: 0x8, addend: 0x0, symName: __ZNSt3__16vectorI23TransformerDecoderLayerNS_9allocatorIS1_EEE21__push_back_slow_pathIS1_EEvOT_, symObjAddr: 0x24E18, symBinAddr: 0x100028A20, symSize: 0x3C0 }
  - { offsetInCU: 0x12BB01, offset: 0x12BB01, size: 0x8, addend: 0x0, symName: __ZNSt3__117__compressed_pairIP23TransformerDecoderLayerNS_9allocatorIS1_EEE5firstB8ue170006Ev, symObjAddr: 0x251D8, symBinAddr: 0x100028DE0, symSize: 0x24 }
  - { offsetInCU: 0x12BB27, offset: 0x12BB27, size: 0x8, addend: 0x0, symName: __ZNSt3__122__compressed_pair_elemIP23TransformerDecoderLayerLi0ELb0EE5__getB8ue170006Ev, symObjAddr: 0x251FC, symBinAddr: 0x100028E04, symSize: 0x14 }
  - { offsetInCU: 0x12BB66, offset: 0x12BB66, size: 0x8, addend: 0x0, symName: __ZNSt3__16vectorI23TransformerDecoderLayerNS_9allocatorIS1_EEE21_ConstructTransactionC1B8ue170006ERS4_m, symObjAddr: 0x25210, symBinAddr: 0x100028E18, symSize: 0x3C }
  - { offsetInCU: 0x12BBAE, offset: 0x12BBAE, size: 0x8, addend: 0x0, symName: __ZNSt3__116allocator_traitsINS_9allocatorI23TransformerDecoderLayerEEE9constructB8ue170006IS2_JS2_EvEEvRS3_PT_DpOT0_, symObjAddr: 0x2524C, symBinAddr: 0x100028E54, symSize: 0x34 }
  - { offsetInCU: 0x12BC05, offset: 0x12BC05, size: 0x8, addend: 0x0, symName: __ZNSt3__16vectorI23TransformerDecoderLayerNS_9allocatorIS1_EEE7__allocB8ue170006Ev, symObjAddr: 0x25280, symBinAddr: 0x100028E88, symSize: 0x28 }
  - { offsetInCU: 0x12BC2B, offset: 0x12BC2B, size: 0x8, addend: 0x0, symName: __ZNSt3__16vectorI23TransformerDecoderLayerNS_9allocatorIS1_EEE21_ConstructTransactionD1B8ue170006Ev, symObjAddr: 0x252BC, symBinAddr: 0x100028EC4, symSize: 0x2C }
  - { offsetInCU: 0x12BC55, offset: 0x12BC55, size: 0x8, addend: 0x0, symName: __ZNSt3__16vectorI23TransformerDecoderLayerNS_9allocatorIS1_EEE21_ConstructTransactionC2B8ue170006ERS4_m, symObjAddr: 0x252E8, symBinAddr: 0x100028EF0, symSize: 0x1D8 }
  - { offsetInCU: 0x12BC9D, offset: 0x12BC9D, size: 0x8, addend: 0x0, symName: __ZNKSt3__16vectorI23TransformerDecoderLayerNS_9allocatorIS1_EEE19__annotate_increaseB8ue170006Em, symObjAddr: 0x254C0, symBinAddr: 0x1000290C8, symSize: 0xF8 }
  - { offsetInCU: 0x12BCD2, offset: 0x12BCD2, size: 0x8, addend: 0x0, symName: __ZNKSt3__16vectorI23TransformerDecoderLayerNS_9allocatorIS1_EEE31__annotate_contiguous_containerEPKvS6_S6_S6_, symObjAddr: 0x255B8, symBinAddr: 0x1000291C0, symSize: 0x58 }
  - { offsetInCU: 0x12BD34, offset: 0x12BD34, size: 0x8, addend: 0x0, symName: __ZNKSt3__16vectorI23TransformerDecoderLayerNS_9allocatorIS1_EEE4dataB8ue170006Ev, symObjAddr: 0x25610, symBinAddr: 0x100029218, symSize: 0x64 }
  - { offsetInCU: 0x12BD5A, offset: 0x12BD5A, size: 0x8, addend: 0x0, symName: __ZNKSt3__16vectorI23TransformerDecoderLayerNS_9allocatorIS1_EEE8capacityB8ue170006Ev, symObjAddr: 0x25674, symBinAddr: 0x10002927C, symSize: 0xBC }
  - { offsetInCU: 0x12BD80, offset: 0x12BD80, size: 0x8, addend: 0x0, symName: __ZNKSt3__16vectorI23TransformerDecoderLayerNS_9allocatorIS1_EEE4sizeB8ue170006Ev, symObjAddr: 0x25730, symBinAddr: 0x100029338, symSize: 0xB0 }
  - { offsetInCU: 0x12BDA6, offset: 0x12BDA6, size: 0x8, addend: 0x0, symName: __ZNKSt3__16vectorI23TransformerDecoderLayerNS_9allocatorIS1_EEE9__end_capB8ue170006Ev, symObjAddr: 0x257E0, symBinAddr: 0x1000293E8, symSize: 0x28 }
  - { offsetInCU: 0x12BDCC, offset: 0x12BDCC, size: 0x8, addend: 0x0, symName: __ZNKSt3__117__compressed_pairIP23TransformerDecoderLayerNS_9allocatorIS1_EEE5firstB8ue170006Ev, symObjAddr: 0x25808, symBinAddr: 0x100029410, symSize: 0x24 }
  - { offsetInCU: 0x12BDF2, offset: 0x12BDF2, size: 0x8, addend: 0x0, symName: __ZNKSt3__122__compressed_pair_elemIP23TransformerDecoderLayerLi0ELb0EE5__getB8ue170006Ev, symObjAddr: 0x2582C, symBinAddr: 0x100029434, symSize: 0x14 }
  - { offsetInCU: 0x12BE18, offset: 0x12BE18, size: 0x8, addend: 0x0, symName: __ZNSt3__19allocatorI23TransformerDecoderLayerE9constructB8ue170006IS1_JS1_EEEvPT_DpOT0_, symObjAddr: 0x25840, symBinAddr: 0x100029448, symSize: 0x30 }
  - { offsetInCU: 0x12BE6E, offset: 0x12BE6E, size: 0x8, addend: 0x0, symName: __ZN23TransformerDecoderLayerC1EOS_, symObjAddr: 0x25870, symBinAddr: 0x100029478, symSize: 0x34 }
  - { offsetInCU: 0x12BEA3, offset: 0x12BEA3, size: 0x8, addend: 0x0, symName: __ZN23TransformerDecoderLayerC2EOS_, symObjAddr: 0x258A4, symBinAddr: 0x1000294AC, symSize: 0x100 }
  - { offsetInCU: 0x12BED8, offset: 0x12BED8, size: 0x8, addend: 0x0, symName: __ZNSt3__117__compressed_pairIP23TransformerDecoderLayerNS_9allocatorIS1_EEE6secondB8ue170006Ev, symObjAddr: 0x259A4, symBinAddr: 0x1000295AC, symSize: 0x24 }
  - { offsetInCU: 0x12BEFE, offset: 0x12BEFE, size: 0x8, addend: 0x0, symName: __ZNSt3__122__compressed_pair_elemINS_9allocatorI23TransformerDecoderLayerEELi1ELb1EE5__getB8ue170006Ev, symObjAddr: 0x259C8, symBinAddr: 0x1000295D0, symSize: 0x14 }
  - { offsetInCU: 0x12BF24, offset: 0x12BF24, size: 0x8, addend: 0x0, symName: __ZNSt3__16vectorI23TransformerDecoderLayerNS_9allocatorIS1_EEE21_ConstructTransactionD2B8ue170006Ev, symObjAddr: 0x259DC, symBinAddr: 0x1000295E4, symSize: 0x278 }
  - { offsetInCU: 0x12BF4E, offset: 0x12BF4E, size: 0x8, addend: 0x0, symName: __ZNKSt3__16vectorI23TransformerDecoderLayerNS_9allocatorIS1_EEE17__annotate_shrinkB8ue170006Em, symObjAddr: 0x25C54, symBinAddr: 0x10002985C, symSize: 0xE4 }
  - { offsetInCU: 0x12BF83, offset: 0x12BF83, size: 0x8, addend: 0x0, symName: __ZNKSt3__16vectorI23TransformerDecoderLayerNS_9allocatorIS1_EEE11__recommendB8ue170006Em, symObjAddr: 0x25D38, symBinAddr: 0x100029940, symSize: 0x384 }
  - { offsetInCU: 0x12BFDF, offset: 0x12BFDF, size: 0x8, addend: 0x0, symName: __ZNSt3__114__split_bufferI23TransformerDecoderLayerRNS_9allocatorIS1_EEEC1EmmS4_, symObjAddr: 0x260BC, symBinAddr: 0x100029CC4, symSize: 0x44 }
  - { offsetInCU: 0x12C035, offset: 0x12C035, size: 0x8, addend: 0x0, symName: __ZNSt3__114__split_bufferI23TransformerDecoderLayerRNS_9allocatorIS1_EEED1Ev, symObjAddr: 0x2666C, symBinAddr: 0x10002A274, symSize: 0x2C }
  - { offsetInCU: 0x12C061, offset: 0x12C061, size: 0x8, addend: 0x0, symName: __ZNKSt3__16vectorI23TransformerDecoderLayerNS_9allocatorIS1_EEE8max_sizeEv, symObjAddr: 0x26698, symBinAddr: 0x10002A2A0, symSize: 0x2FC }
  - { offsetInCU: 0x12C08A, offset: 0x12C08A, size: 0x8, addend: 0x0, symName: __ZNKSt3__16vectorI23TransformerDecoderLayerNS_9allocatorIS1_EEE20__throw_length_errorB8ue170006Ev, symObjAddr: 0x26994, symBinAddr: 0x10002A59C, symSize: 0x20 }
  - { offsetInCU: 0x12C0BA, offset: 0x12C0BA, size: 0x8, addend: 0x0, symName: __ZNSt3__116allocator_traitsINS_9allocatorI23TransformerDecoderLayerEEE8max_sizeB8ue170006IS3_vEEmRKS3_, symObjAddr: 0x269B4, symBinAddr: 0x10002A5BC, symSize: 0x24 }
  - { offsetInCU: 0x12C0E8, offset: 0x12C0E8, size: 0x8, addend: 0x0, symName: __ZNKSt3__16vectorI23TransformerDecoderLayerNS_9allocatorIS1_EEE7__allocB8ue170006Ev, symObjAddr: 0x269D8, symBinAddr: 0x10002A5E0, symSize: 0x28 }
  - { offsetInCU: 0x12C10E, offset: 0x12C10E, size: 0x8, addend: 0x0, symName: __ZNKSt3__19allocatorI23TransformerDecoderLayerE8max_sizeB8ue170006Ev, symObjAddr: 0x26A00, symBinAddr: 0x10002A608, symSize: 0x18 }
  - { offsetInCU: 0x12C134, offset: 0x12C134, size: 0x8, addend: 0x0, symName: __ZNKSt3__117__compressed_pairIP23TransformerDecoderLayerNS_9allocatorIS1_EEE6secondB8ue170006Ev, symObjAddr: 0x26A18, symBinAddr: 0x10002A620, symSize: 0x24 }
  - { offsetInCU: 0x12C15A, offset: 0x12C15A, size: 0x8, addend: 0x0, symName: __ZNKSt3__122__compressed_pair_elemINS_9allocatorI23TransformerDecoderLayerEELi1ELb1EE5__getB8ue170006Ev, symObjAddr: 0x26A3C, symBinAddr: 0x10002A644, symSize: 0x14 }
  - { offsetInCU: 0x12C180, offset: 0x12C180, size: 0x8, addend: 0x0, symName: __ZNSt3__114__split_bufferI23TransformerDecoderLayerRNS_9allocatorIS1_EEEC2EmmS4_, symObjAddr: 0x26A50, symBinAddr: 0x10002A658, symSize: 0x530 }
  - { offsetInCU: 0x12C1FB, offset: 0x12C1FB, size: 0x8, addend: 0x0, symName: __ZNSt3__117__compressed_pairIP23TransformerDecoderLayerRNS_9allocatorIS1_EEEC1B8ue170006IDnS5_EEOT_OT0_, symObjAddr: 0x26F80, symBinAddr: 0x10002AB88, symSize: 0x3C }
  - { offsetInCU: 0x12C253, offset: 0x12C253, size: 0x8, addend: 0x0, symName: __ZNSt3__114__split_bufferI23TransformerDecoderLayerRNS_9allocatorIS1_EEE7__allocB8ue170006Ev, symObjAddr: 0x27248, symBinAddr: 0x10002AE50, symSize: 0x28 }
  - { offsetInCU: 0x12C279, offset: 0x12C279, size: 0x8, addend: 0x0, symName: __ZNSt3__114__split_bufferI23TransformerDecoderLayerRNS_9allocatorIS1_EEE9__end_capB8ue170006Ev, symObjAddr: 0x27270, symBinAddr: 0x10002AE78, symSize: 0x28 }
  - { offsetInCU: 0x12C29F, offset: 0x12C29F, size: 0x8, addend: 0x0, symName: __ZNSt3__117__compressed_pairIP23TransformerDecoderLayerRNS_9allocatorIS1_EEEC2B8ue170006IDnS5_EEOT_OT0_, symObjAddr: 0x27298, symBinAddr: 0x10002AEA0, symSize: 0x48 }
  - { offsetInCU: 0x12C2F7, offset: 0x12C2F7, size: 0x8, addend: 0x0, symName: __ZNSt3__122__compressed_pair_elemIRNS_9allocatorI23TransformerDecoderLayerEELi1ELb0EEC2B8ue170006IS4_vEEOT_, symObjAddr: 0x272E0, symBinAddr: 0x10002AEE8, symSize: 0x70 }
  - { offsetInCU: 0x12C339, offset: 0x12C339, size: 0x8, addend: 0x0, symName: __ZNSt3__19allocatorI23TransformerDecoderLayerE8allocateB8ue170006Em, symObjAddr: 0x27350, symBinAddr: 0x10002AF58, symSize: 0x60 }
  - { offsetInCU: 0x12C36D, offset: 0x12C36D, size: 0x8, addend: 0x0, symName: __ZNSt3__117__compressed_pairIP23TransformerDecoderLayerRNS_9allocatorIS1_EEE6secondB8ue170006Ev, symObjAddr: 0x273B0, symBinAddr: 0x10002AFB8, symSize: 0x28 }
  - { offsetInCU: 0x12C393, offset: 0x12C393, size: 0x8, addend: 0x0, symName: __ZNSt3__122__compressed_pair_elemIRNS_9allocatorI23TransformerDecoderLayerEELi1ELb0EE5__getB8ue170006Ev, symObjAddr: 0x273D8, symBinAddr: 0x10002AFE0, symSize: 0x60 }
  - { offsetInCU: 0x12C3B9, offset: 0x12C3B9, size: 0x8, addend: 0x0, symName: __ZNSt3__117__compressed_pairIP23TransformerDecoderLayerRNS_9allocatorIS1_EEE5firstB8ue170006Ev, symObjAddr: 0x27438, symBinAddr: 0x10002B040, symSize: 0x24 }
  - { offsetInCU: 0x12C3DF, offset: 0x12C3DF, size: 0x8, addend: 0x0, symName: __ZNKSt3__16vectorI23TransformerDecoderLayerNS_9allocatorIS1_EEE17__annotate_deleteB8ue170006Ev, symObjAddr: 0x2745C, symBinAddr: 0x10002B064, symSize: 0xE8 }
  - { offsetInCU: 0x12C405, offset: 0x12C405, size: 0x8, addend: 0x0, symName: __ZNSt3__116reverse_iteratorIP23TransformerDecoderLayerEC1B8ue170006ES2_, symObjAddr: 0x27A88, symBinAddr: 0x10002B690, symSize: 0x34 }
  - { offsetInCU: 0x12C43D, offset: 0x12C43D, size: 0x8, addend: 0x0, symName: __ZNKSt3__116reverse_iteratorIP23TransformerDecoderLayerE4baseB8ue170006Ev, symObjAddr: 0x27ABC, symBinAddr: 0x10002B6C4, symSize: 0x64 }
  - { offsetInCU: 0x12C463, offset: 0x12C463, size: 0x8, addend: 0x0, symName: __ZNKSt3__16vectorI23TransformerDecoderLayerNS_9allocatorIS1_EEE14__annotate_newB8ue170006Em, symObjAddr: 0x27C54, symBinAddr: 0x10002B85C, symSize: 0xDC }
  - { offsetInCU: 0x12C498, offset: 0x12C498, size: 0x8, addend: 0x0, symName: __ZNSt3__129_AllocatorDestroyRangeReverseINS_9allocatorI23TransformerDecoderLayerEENS_16reverse_iteratorIPS2_EEEC1B8ue170006ERS3_RS6_S9_, symObjAddr: 0x27F28, symBinAddr: 0x10002BB30, symSize: 0x44 }
  - { offsetInCU: 0x12C4EF, offset: 0x12C4EF, size: 0x8, addend: 0x0, symName: __ZNKSt3__116reverse_iteratorIP23TransformerDecoderLayerEdeB8ue170006Ev, symObjAddr: 0x27FD8, symBinAddr: 0x10002BBE0, symSize: 0x74 }
  - { offsetInCU: 0x12C523, offset: 0x12C523, size: 0x8, addend: 0x0, symName: __ZNSt3__116reverse_iteratorIP23TransformerDecoderLayerEppB8ue170006Ev, symObjAddr: 0x2804C, symBinAddr: 0x10002BC54, symSize: 0x6C }
  - { offsetInCU: 0x12C549, offset: 0x12C549, size: 0x8, addend: 0x0, symName: __ZNSt3__128__exception_guard_exceptionsINS_29_AllocatorDestroyRangeReverseINS_9allocatorI23TransformerDecoderLayerEENS_16reverse_iteratorIPS3_EEEEE10__completeB8ue170006Ev, symObjAddr: 0x280B8, symBinAddr: 0x10002BCC0, symSize: 0x8C }
  - { offsetInCU: 0x12C56F, offset: 0x12C56F, size: 0x8, addend: 0x0, symName: __ZNSt3__128__exception_guard_exceptionsINS_29_AllocatorDestroyRangeReverseINS_9allocatorI23TransformerDecoderLayerEENS_16reverse_iteratorIPS3_EEEEED1B8ue170006Ev, symObjAddr: 0x28144, symBinAddr: 0x10002BD4C, symSize: 0x2C }
  - { offsetInCU: 0x12C599, offset: 0x12C599, size: 0x8, addend: 0x0, symName: __ZNSt3__128__exception_guard_exceptionsINS_29_AllocatorDestroyRangeReverseINS_9allocatorI23TransformerDecoderLayerEENS_16reverse_iteratorIPS3_EEEEEC1B8ue170006ES8_, symObjAddr: 0x28170, symBinAddr: 0x10002BD78, symSize: 0x34 }
  - { offsetInCU: 0x12C5D2, offset: 0x12C5D2, size: 0x8, addend: 0x0, symName: __ZNSt3__128__exception_guard_exceptionsINS_29_AllocatorDestroyRangeReverseINS_9allocatorI23TransformerDecoderLayerEENS_16reverse_iteratorIPS3_EEEEEC2B8ue170006ES8_, symObjAddr: 0x281A4, symBinAddr: 0x10002BDAC, symSize: 0xA4 }
  - { offsetInCU: 0x12C60B, offset: 0x12C60B, size: 0x8, addend: 0x0, symName: __ZNSt3__129_AllocatorDestroyRangeReverseINS_9allocatorI23TransformerDecoderLayerEENS_16reverse_iteratorIPS2_EEEC2B8ue170006ERS3_RS6_S9_, symObjAddr: 0x28248, symBinAddr: 0x10002BE50, symSize: 0x104 }
  - { offsetInCU: 0x12C667, offset: 0x12C667, size: 0x8, addend: 0x0, symName: __ZNSt3__119__to_address_helperINS_16reverse_iteratorIP23TransformerDecoderLayerEEvE6__callB8ue170006ERKS4_, symObjAddr: 0x2834C, symBinAddr: 0x10002BF54, symSize: 0x44 }
  - { offsetInCU: 0x12C68A, offset: 0x12C68A, size: 0x8, addend: 0x0, symName: __ZNKSt3__116reverse_iteratorIP23TransformerDecoderLayerEptB8ue170006Ev, symObjAddr: 0x28390, symBinAddr: 0x10002BF98, symSize: 0x24 }
  - { offsetInCU: 0x12C6B0, offset: 0x12C6B0, size: 0x8, addend: 0x0, symName: __ZNSt3__128__exception_guard_exceptionsINS_29_AllocatorDestroyRangeReverseINS_9allocatorI23TransformerDecoderLayerEENS_16reverse_iteratorIPS3_EEEEED2B8ue170006Ev, symObjAddr: 0x283B4, symBinAddr: 0x10002BFBC, symSize: 0xBC }
  - { offsetInCU: 0x12C6DA, offset: 0x12C6DA, size: 0x8, addend: 0x0, symName: __ZNKSt3__129_AllocatorDestroyRangeReverseINS_9allocatorI23TransformerDecoderLayerEENS_16reverse_iteratorIPS2_EEEclB8ue170006Ev, symObjAddr: 0x28470, symBinAddr: 0x10002C078, symSize: 0x3A8 }
  - { offsetInCU: 0x12C701, offset: 0x12C701, size: 0x8, addend: 0x0, symName: __ZNSt3__116reverse_iteratorINS0_IP23TransformerDecoderLayerEEEC1B8ue170006ES3_, symObjAddr: 0x28888, symBinAddr: 0x10002C490, symSize: 0x248 }
  - { offsetInCU: 0x12C73E, offset: 0x12C73E, size: 0x8, addend: 0x0, symName: __ZNSt3__116allocator_traitsINS_9allocatorI23TransformerDecoderLayerEEE7destroyB8ue170006IS2_vEEvRS3_PT_, symObjAddr: 0x28D9C, symBinAddr: 0x10002C9A4, symSize: 0x2C }
  - { offsetInCU: 0x12C77B, offset: 0x12C77B, size: 0x8, addend: 0x0, symName: __ZNSt3__116reverse_iteratorINS0_IP23TransformerDecoderLayerEEEppB8ue170006Ev, symObjAddr: 0x28DEC, symBinAddr: 0x10002C9F4, symSize: 0x30 }
  - { offsetInCU: 0x12C7A1, offset: 0x12C7A1, size: 0x8, addend: 0x0, symName: __ZNKSt3__116reverse_iteratorINS0_IP23TransformerDecoderLayerEEE4baseB8ue170006Ev, symObjAddr: 0x28E1C, symBinAddr: 0x10002CA24, symSize: 0x20C }
  - { offsetInCU: 0x12C7C8, offset: 0x12C7C8, size: 0x8, addend: 0x0, symName: __ZNSt3__19allocatorI23TransformerDecoderLayerE7destroyB8ue170006EPS1_, symObjAddr: 0x29028, symBinAddr: 0x10002CC30, symSize: 0x28 }
  - { offsetInCU: 0x12C801, offset: 0x12C801, size: 0x8, addend: 0x0, symName: __ZNSt3__119__to_address_helperINS_16reverse_iteratorINS1_IP23TransformerDecoderLayerEEEEvE6__callB8ue170006ERKS5_, symObjAddr: 0x29050, symBinAddr: 0x10002CC58, symSize: 0x44 }
  - { offsetInCU: 0x12C824, offset: 0x12C824, size: 0x8, addend: 0x0, symName: __ZNKSt3__116reverse_iteratorINS0_IP23TransformerDecoderLayerEEEptB8ue170006Ev, symObjAddr: 0x29094, symBinAddr: 0x10002CC9C, symSize: 0x24 }
  - { offsetInCU: 0x12C84A, offset: 0x12C84A, size: 0x8, addend: 0x0, symName: __ZNKSt3__116reverse_iteratorINS0_IP23TransformerDecoderLayerEEEdeB8ue170006Ev, symObjAddr: 0x290B8, symBinAddr: 0x10002CCC0, symSize: 0x1EC }
  - { offsetInCU: 0x12C883, offset: 0x12C883, size: 0x8, addend: 0x0, symName: __ZNSt3__116reverse_iteratorIP23TransformerDecoderLayerEmmB8ue170006Ev, symObjAddr: 0x292A4, symBinAddr: 0x10002CEAC, symSize: 0x6C }
  - { offsetInCU: 0x12C8A9, offset: 0x12C8A9, size: 0x8, addend: 0x0, symName: __ZNSt3__116reverse_iteratorINS0_IP23TransformerDecoderLayerEEEC2B8ue170006ES3_, symObjAddr: 0x29310, symBinAddr: 0x10002CF18, symSize: 0x22C }
  - { offsetInCU: 0x12C8E6, offset: 0x12C8E6, size: 0x8, addend: 0x0, symName: __ZNSt3__116reverse_iteratorIP23TransformerDecoderLayerEC2B8ue170006ES2_, symObjAddr: 0x2953C, symBinAddr: 0x10002D144, symSize: 0xB8 }
  - { offsetInCU: 0x12C91E, offset: 0x12C91E, size: 0x8, addend: 0x0, symName: __ZNSt3__114__split_bufferI23TransformerDecoderLayerRNS_9allocatorIS1_EEED2Ev, symObjAddr: 0x295F4, symBinAddr: 0x10002D1FC, symSize: 0x104 }
  - { offsetInCU: 0x12C94A, offset: 0x12C94A, size: 0x8, addend: 0x0, symName: __ZNSt3__114__split_bufferI23TransformerDecoderLayerRNS_9allocatorIS1_EEE5clearB8ue170006Ev, symObjAddr: 0x296F8, symBinAddr: 0x10002D300, symSize: 0x68 }
  - { offsetInCU: 0x12C970, offset: 0x12C970, size: 0x8, addend: 0x0, symName: __ZNSt3__116allocator_traitsINS_9allocatorI23TransformerDecoderLayerEEE10deallocateB8ue170006ERS3_PS2_m, symObjAddr: 0x29760, symBinAddr: 0x10002D368, symSize: 0x34 }
  - { offsetInCU: 0x12C9B2, offset: 0x12C9B2, size: 0x8, addend: 0x0, symName: __ZNKSt3__114__split_bufferI23TransformerDecoderLayerRNS_9allocatorIS1_EEE8capacityB8ue170006Ev, symObjAddr: 0x29794, symBinAddr: 0x10002D39C, symSize: 0xBC }
  - { offsetInCU: 0x12C9D8, offset: 0x12C9D8, size: 0x8, addend: 0x0, symName: __ZNSt3__114__split_bufferI23TransformerDecoderLayerRNS_9allocatorIS1_EEE17__destruct_at_endB8ue170006EPS1_, symObjAddr: 0x29850, symBinAddr: 0x10002D458, symSize: 0x2C }
  - { offsetInCU: 0x12CA0C, offset: 0x12CA0C, size: 0x8, addend: 0x0, symName: __ZNSt3__114__split_bufferI23TransformerDecoderLayerRNS_9allocatorIS1_EEE17__destruct_at_endB8ue170006EPS1_NS_17integral_constantIbLb0EEE, symObjAddr: 0x2987C, symBinAddr: 0x10002D484, symSize: 0x10C }
  - { offsetInCU: 0x12CA4C, offset: 0x12CA4C, size: 0x8, addend: 0x0, symName: __ZNSt3__19allocatorI23TransformerDecoderLayerE10deallocateB8ue170006EPS1_m, symObjAddr: 0x29988, symBinAddr: 0x10002D590, symSize: 0x50 }
  - { offsetInCU: 0x12CA8E, offset: 0x12CA8E, size: 0x8, addend: 0x0, symName: __ZNKSt3__114__split_bufferI23TransformerDecoderLayerRNS_9allocatorIS1_EEE9__end_capB8ue170006Ev, symObjAddr: 0x299D8, symBinAddr: 0x10002D5E0, symSize: 0x28 }
  - { offsetInCU: 0x12CAB4, offset: 0x12CAB4, size: 0x8, addend: 0x0, symName: __ZNKSt3__117__compressed_pairIP23TransformerDecoderLayerRNS_9allocatorIS1_EEE5firstB8ue170006Ev, symObjAddr: 0x29A00, symBinAddr: 0x10002D608, symSize: 0x24 }
  - { offsetInCU: 0x12CADA, offset: 0x12CADA, size: 0x8, addend: 0x0, symName: __ZN23TransformerDecoderLayerC2Eiii, symObjAddr: 0x29A24, symBinAddr: 0x10002D62C, symSize: 0xFD8 }
  - { offsetInCU: 0x12CB32, offset: 0x12CB32, size: 0x8, addend: 0x0, symName: __ZN23TransformerDecoderLayerD2Ev, symObjAddr: 0x2A9FC, symBinAddr: 0x10002E604, symSize: 0x9C }
  - { offsetInCU: 0x12CB5E, offset: 0x12CB5E, size: 0x8, addend: 0x0, symName: __ZNSt3__16vectorI23TransformerDecoderLayerNS_9allocatorIS1_EEED2B8ue170006Ev, symObjAddr: 0x2AA98, symBinAddr: 0x10002E6A0, symSize: 0x1F8 }
  - { offsetInCU: 0x12CB89, offset: 0x12CB89, size: 0x8, addend: 0x0, symName: __ZNSt3__16vectorI23TransformerDecoderLayerNS_9allocatorIS1_EEE16__destroy_vectorC1B8ue170006ERS4_, symObjAddr: 0x2AC90, symBinAddr: 0x10002E898, symSize: 0x34 }
  - { offsetInCU: 0x12CBC2, offset: 0x12CBC2, size: 0x8, addend: 0x0, symName: __ZNSt3__16vectorI23TransformerDecoderLayerNS_9allocatorIS1_EEE16__destroy_vectorclB8ue170006Ev, symObjAddr: 0x2ACC4, symBinAddr: 0x10002E8CC, symSize: 0x228 }
  - { offsetInCU: 0x12CBE8, offset: 0x12CBE8, size: 0x8, addend: 0x0, symName: __ZNSt3__16vectorI23TransformerDecoderLayerNS_9allocatorIS1_EEE16__destroy_vectorC2B8ue170006ERS4_, symObjAddr: 0x2AEEC, symBinAddr: 0x10002EAF4, symSize: 0x70 }
  - { offsetInCU: 0x12CC21, offset: 0x12CC21, size: 0x8, addend: 0x0, symName: __ZNSt3__16vectorI23TransformerDecoderLayerNS_9allocatorIS1_EEE7__clearB8ue170006Ev, symObjAddr: 0x2AF5C, symBinAddr: 0x10002EB64, symSize: 0x64 }
  - { offsetInCU: 0x12CC47, offset: 0x12CC47, size: 0x8, addend: 0x0, symName: __ZNSt3__16vectorI23TransformerDecoderLayerNS_9allocatorIS1_EEE22__base_destruct_at_endB8ue170006EPS1_, symObjAddr: 0x2AFC0, symBinAddr: 0x10002EBC8, symSize: 0x114 }
  - { offsetInCU: 0x12CC8B, offset: 0x12CC8B, size: 0x8, addend: 0x0, symName: __ZNSt3__16vectorI23TransformerEncoderLayerNS_9allocatorIS1_EEED2B8ue170006Ev, symObjAddr: 0x2B0D4, symBinAddr: 0x10002ECDC, symSize: 0x1F8 }
  - { offsetInCU: 0x12CCB6, offset: 0x12CCB6, size: 0x8, addend: 0x0, symName: __ZNSt3__16vectorI23TransformerEncoderLayerNS_9allocatorIS1_EEE16__destroy_vectorC1B8ue170006ERS4_, symObjAddr: 0x2B2CC, symBinAddr: 0x10002EED4, symSize: 0x34 }
  - { offsetInCU: 0x12CCEF, offset: 0x12CCEF, size: 0x8, addend: 0x0, symName: __ZNSt3__16vectorI23TransformerEncoderLayerNS_9allocatorIS1_EEE16__destroy_vectorclB8ue170006Ev, symObjAddr: 0x2B300, symBinAddr: 0x10002EF08, symSize: 0x228 }
  - { offsetInCU: 0x12CD15, offset: 0x12CD15, size: 0x8, addend: 0x0, symName: __ZNSt3__16vectorI23TransformerEncoderLayerNS_9allocatorIS1_EEE16__destroy_vectorC2B8ue170006ERS4_, symObjAddr: 0x2B528, symBinAddr: 0x10002F130, symSize: 0x70 }
  - { offsetInCU: 0x12CD4E, offset: 0x12CD4E, size: 0x8, addend: 0x0, symName: __ZNSt3__16vectorI23TransformerEncoderLayerNS_9allocatorIS1_EEE7__clearB8ue170006Ev, symObjAddr: 0x2B598, symBinAddr: 0x10002F1A0, symSize: 0x64 }
  - { offsetInCU: 0x12CD74, offset: 0x12CD74, size: 0x8, addend: 0x0, symName: __ZNSt3__16vectorI23TransformerEncoderLayerNS_9allocatorIS1_EEE22__base_destruct_at_endB8ue170006EPS1_, symObjAddr: 0x2B5FC, symBinAddr: 0x10002F204, symSize: 0x114 }
  - { offsetInCU: 0x12CDB8, offset: 0x12CDB8, size: 0x8, addend: 0x0, symName: __ZN5Eigen6MatrixIdLin1ELin1ELi0ELin1ELin1EEC1ERKS1_, symObjAddr: 0x2B710, symBinAddr: 0x10002F318, symSize: 0x34 }
  - { offsetInCU: 0x12CDF1, offset: 0x12CDF1, size: 0x8, addend: 0x0, symName: __ZNSt3__16vectorI23TransformerEncoderLayerNS_9allocatorIS1_EEEixB8ue170006Em, symObjAddr: 0x2B744, symBinAddr: 0x10002F34C, symSize: 0x74 }
  - { offsetInCU: 0x12CE28, offset: 0x12CE28, size: 0x8, addend: 0x0, symName: __ZN23TransformerEncoderLayerclERKN5Eigen6MatrixIdLin1ELin1ELi0ELin1ELin1EEE, symObjAddr: 0x2B7B8, symBinAddr: 0x10002F3C0, symSize: 0x6C4 }
  - { offsetInCU: 0x12CEA5, offset: 0x12CEA5, size: 0x8, addend: 0x0, symName: __ZN5Eigen6MatrixIdLin1ELin1ELi0ELin1ELin1EEaSEOS1_, symObjAddr: 0x2BE7C, symBinAddr: 0x10002FA84, symSize: 0x34 }
  - { offsetInCU: 0x12CEDA, offset: 0x12CEDA, size: 0x8, addend: 0x0, symName: __ZNSt3__16vectorI23TransformerDecoderLayerNS_9allocatorIS1_EEEixB8ue170006Em, symObjAddr: 0x2BEB0, symBinAddr: 0x10002FAB8, symSize: 0x74 }
  - { offsetInCU: 0x12CF11, offset: 0x12CF11, size: 0x8, addend: 0x0, symName: __ZN23TransformerDecoderLayerclERKN5Eigen6MatrixIdLin1ELin1ELi0ELin1ELin1EEES4_, symObjAddr: 0x2BF24, symBinAddr: 0x10002FB2C, symSize: 0x880 }
  - { offsetInCU: 0x12CFC3, offset: 0x12CFC3, size: 0x8, addend: 0x0, symName: __ZN5Eigen6MatrixIdLin1ELin1ELi0ELin1ELin1EEC2ERKS1_, symObjAddr: 0x2C7A4, symBinAddr: 0x1000303AC, symSize: 0x34 }
  - { offsetInCU: 0x12CFFC, offset: 0x12CFFC, size: 0x8, addend: 0x0, symName: __ZN5Eigen15PlainObjectBaseINS_6MatrixIdLin1ELin1ELi0ELin1ELin1EEEEC2ERKS3_, symObjAddr: 0x2C7D8, symBinAddr: 0x1000303E0, symSize: 0x3C }
  - { offsetInCU: 0x12D035, offset: 0x12D035, size: 0x8, addend: 0x0, symName: __ZN5Eigen12DenseStorageIdLin1ELin1ELin1ELi0EEC1ERKS1_, symObjAddr: 0x2C814, symBinAddr: 0x10003041C, symSize: 0x34 }
  - { offsetInCU: 0x12D06E, offset: 0x12D06E, size: 0x8, addend: 0x0, symName: __ZN5Eigen12DenseStorageIdLin1ELin1ELin1ELi0EEC2ERKS1_, symObjAddr: 0x2C848, symBinAddr: 0x100030450, symSize: 0x37C }
  - { offsetInCU: 0x12D0A7, offset: 0x12D0A7, size: 0x8, addend: 0x0, symName: __ZN5Eigen8internal17smart_copy_helperIdLb1EE3runEPKdS4_Pd, symObjAddr: 0x2CBF8, symBinAddr: 0x100030800, symSize: 0x6C }
  - { offsetInCU: 0x12D100, offset: 0x12D100, size: 0x8, addend: 0x0, symName: __ZN18MultiHeadAttentionclERKN5Eigen6MatrixIdLin1ELin1ELi0ELin1ELin1EEES4_S4_, symObjAddr: 0x2CC64, symBinAddr: 0x10003086C, symSize: 0xFE8 }
  - { offsetInCU: 0x12D1D4, offset: 0x12D1D4, size: 0x8, addend: 0x0, symName: __ZNK5Eigen10MatrixBaseINS_6MatrixIdLin1ELin1ELi0ELin1ELin1EEEEplIS2_EEKNS_13CwiseBinaryOpINS_8internal13scalar_sum_opIdNS6_6traitsIT_E6ScalarEEEKS2_KS9_EERKNS0_IS9_EE, symObjAddr: 0x2DC4C, symBinAddr: 0x100031854, symSize: 0x214 }
  - { offsetInCU: 0x12D218, offset: 0x12D218, size: 0x8, addend: 0x0, symName: __ZN5Eigen6MatrixIdLin1ELin1ELi0ELin1ELin1EEC1INS_13CwiseBinaryOpINS_8internal13scalar_sum_opIddEEKS1_S7_EEEERKNS_9EigenBaseIT_EE, symObjAddr: 0x2DE60, symBinAddr: 0x100031A68, symSize: 0x34 }
  - { offsetInCU: 0x12D25A, offset: 0x12D25A, size: 0x8, addend: 0x0, symName: __ZNSt3__16vectorIN5Eigen6MatrixIdLin1ELin1ELi0ELin1ELin1EEENS_9allocatorIS3_EEEC1Em, symObjAddr: 0x2DE94, symBinAddr: 0x100031A9C, symSize: 0x34 }
  - { offsetInCU: 0x12D295, offset: 0x12D295, size: 0x8, addend: 0x0, symName: __ZNSt3__16vectorIP17_opaque_pthread_tNS_9allocatorIS2_EEEC1Em, symObjAddr: 0x2DEC8, symBinAddr: 0x100031AD0, symSize: 0x34 }
  - { offsetInCU: 0x12D2D0, offset: 0x12D2D0, size: 0x8, addend: 0x0, symName: __ZNSt3__16vectorINS_10unique_ptrIN18MultiHeadAttention10ThreadDataENS_14default_deleteIS3_EEEENS_9allocatorIS6_EEEC1B8ue170006Ev, symObjAddr: 0x2DEFC, symBinAddr: 0x100031B04, symSize: 0x2C }
  - { offsetInCU: 0x12D2FA, offset: 0x12D2FA, size: 0x8, addend: 0x0, symName: __ZNSt3__16vectorINS_10unique_ptrIN18MultiHeadAttention10ThreadDataENS_14default_deleteIS3_EEEENS_9allocatorIS6_EEE9push_backB8ue170006EOS6_, symObjAddr: 0x2DF28, symBinAddr: 0x100031B30, symSize: 0xE0 }
  - { offsetInCU: 0x12D331, offset: 0x12D331, size: 0x8, addend: 0x0, symName: __ZNSt3__16vectorIN5Eigen6MatrixIdLin1ELin1ELi0ELin1ELin1EEENS_9allocatorIS3_EEEixB8ue170006Em, symObjAddr: 0x2E374, symBinAddr: 0x100031F7C, symSize: 0x74 }
  - { offsetInCU: 0x12D368, offset: 0x12D368, size: 0x8, addend: 0x0, symName: __ZNSt3__110unique_ptrIN18MultiHeadAttention10ThreadDataENS_14default_deleteIS2_EEED1B8ue170006Ev, symObjAddr: 0x2E3E8, symBinAddr: 0x100031FF0, symSize: 0x2C }
  - { offsetInCU: 0x12D392, offset: 0x12D392, size: 0x8, addend: 0x0, symName: __ZNSt3__16vectorIP17_opaque_pthread_tNS_9allocatorIS2_EEEixB8ue170006Em, symObjAddr: 0x2E414, symBinAddr: 0x10003201C, symSize: 0x6C }
  - { offsetInCU: 0x12D3C9, offset: 0x12D3C9, size: 0x8, addend: 0x0, symName: __ZN18MultiHeadAttention11thread_funcEPv, symObjAddr: 0x2E480, symBinAddr: 0x100032088, symSize: 0x9CC }
  - { offsetInCU: 0x12D434, offset: 0x12D434, size: 0x8, addend: 0x0, symName: __ZNSt3__16vectorINS_10unique_ptrIN18MultiHeadAttention10ThreadDataENS_14default_deleteIS3_EEEENS_9allocatorIS6_EEEixB8ue170006Em, symObjAddr: 0x2EE4C, symBinAddr: 0x100032A54, symSize: 0x6C }
  - { offsetInCU: 0x12D46B, offset: 0x12D46B, size: 0x8, addend: 0x0, symName: __ZNKSt3__110unique_ptrIN18MultiHeadAttention10ThreadDataENS_14default_deleteIS2_EEE3getB8ue170006Ev, symObjAddr: 0x2EEB8, symBinAddr: 0x100032AC0, symSize: 0x6C }
  - { offsetInCU: 0x12D491, offset: 0x12D491, size: 0x8, addend: 0x0, symName: __ZN18MultiHeadAttention17concatenate_headsERKNSt3__16vectorIN5Eigen6MatrixIdLin1ELin1ELi0ELin1ELin1EEENS0_9allocatorIS4_EEEE, symObjAddr: 0x2EF24, symBinAddr: 0x100032B2C, symSize: 0x538 }
  - { offsetInCU: 0x12D4F4, offset: 0x12D4F4, size: 0x8, addend: 0x0, symName: __ZNSt3__16vectorINS_10unique_ptrIN18MultiHeadAttention10ThreadDataENS_14default_deleteIS3_EEEENS_9allocatorIS6_EEED1B8ue170006Ev, symObjAddr: 0x2F45C, symBinAddr: 0x100033064, symSize: 0x2C }
  - { offsetInCU: 0x12D51E, offset: 0x12D51E, size: 0x8, addend: 0x0, symName: __ZNSt3__16vectorIP17_opaque_pthread_tNS_9allocatorIS2_EEED1B8ue170006Ev, symObjAddr: 0x2F488, symBinAddr: 0x100033090, symSize: 0x2C }
  - { offsetInCU: 0x12D548, offset: 0x12D548, size: 0x8, addend: 0x0, symName: __ZNSt3__16vectorIN5Eigen6MatrixIdLin1ELin1ELi0ELin1ELin1EEENS_9allocatorIS3_EEEC2Em, symObjAddr: 0x2F4B4, symBinAddr: 0x1000330BC, symSize: 0x490 }
  - { offsetInCU: 0x12D59E, offset: 0x12D59E, size: 0x8, addend: 0x0, symName: __ZNSt3__16vectorIN5Eigen6MatrixIdLin1ELin1ELi0ELin1ELin1EEENS_9allocatorIS3_EEE11__vallocateB8ue170006Em, symObjAddr: 0x2FBBC, symBinAddr: 0x1000337C4, symSize: 0x428 }
  - { offsetInCU: 0x12D5E8, offset: 0x12D5E8, size: 0x8, addend: 0x0, symName: __ZNSt3__16vectorIN5Eigen6MatrixIdLin1ELin1ELi0ELin1ELin1EEENS_9allocatorIS3_EEE18__construct_at_endEm, symObjAddr: 0x2FFE4, symBinAddr: 0x100033BEC, symSize: 0x3E4 }
  - { offsetInCU: 0x12D662, offset: 0x12D662, size: 0x8, addend: 0x0, symName: __ZNSt3__128__exception_guard_exceptionsINS_6vectorIN5Eigen6MatrixIdLin1ELin1ELi0ELin1ELin1EEENS_9allocatorIS4_EEE16__destroy_vectorEE10__completeB8ue170006Ev, symObjAddr: 0x303C8, symBinAddr: 0x100033FD0, symSize: 0x8C }
  - { offsetInCU: 0x12D688, offset: 0x12D688, size: 0x8, addend: 0x0, symName: __ZNSt3__128__exception_guard_exceptionsINS_6vectorIN5Eigen6MatrixIdLin1ELin1ELi0ELin1ELin1EEENS_9allocatorIS4_EEE16__destroy_vectorEED1B8ue170006Ev, symObjAddr: 0x30454, symBinAddr: 0x10003405C, symSize: 0x2C }
  - { offsetInCU: 0x12D6B2, offset: 0x12D6B2, size: 0x8, addend: 0x0, symName: __ZNSt3__128__exception_guard_exceptionsINS_6vectorIN5Eigen6MatrixIdLin1ELin1ELi0ELin1ELin1EEENS_9allocatorIS4_EEE16__destroy_vectorEEC1B8ue170006ES8_, symObjAddr: 0x30480, symBinAddr: 0x100034088, symSize: 0x238 }
  - { offsetInCU: 0x12D6EF, offset: 0x12D6EF, size: 0x8, addend: 0x0, symName: __ZNSt3__128__exception_guard_exceptionsINS_6vectorIN5Eigen6MatrixIdLin1ELin1ELi0ELin1ELin1EEENS_9allocatorIS4_EEE16__destroy_vectorEEC2B8ue170006ES8_, symObjAddr: 0x306B8, symBinAddr: 0x1000342C0, symSize: 0x264 }
  - { offsetInCU: 0x12D72C, offset: 0x12D72C, size: 0x8, addend: 0x0, symName: __ZNSt3__116allocator_traitsINS_9allocatorIN5Eigen6MatrixIdLin1ELin1ELi0ELin1ELin1EEEEEE9constructB8ue170006IS4_JEvEEvRS5_PT_DpOT0_, symObjAddr: 0x3091C, symBinAddr: 0x100034524, symSize: 0x2C }
  - { offsetInCU: 0x12D76E, offset: 0x12D76E, size: 0x8, addend: 0x0, symName: __ZNSt3__19allocatorIN5Eigen6MatrixIdLin1ELin1ELi0ELin1ELin1EEEE9constructB8ue170006IS3_JEEEvPT_DpOT0_, symObjAddr: 0x30948, symBinAddr: 0x100034550, symSize: 0x28 }
  - { offsetInCU: 0x12D7B0, offset: 0x12D7B0, size: 0x8, addend: 0x0, symName: __ZNSt3__128__exception_guard_exceptionsINS_6vectorIN5Eigen6MatrixIdLin1ELin1ELi0ELin1ELin1EEENS_9allocatorIS4_EEE16__destroy_vectorEED2B8ue170006Ev, symObjAddr: 0x30970, symBinAddr: 0x100034578, symSize: 0xA8 }
  - { offsetInCU: 0x12D7DA, offset: 0x12D7DA, size: 0x8, addend: 0x0, symName: __ZNSt3__16vectorIP17_opaque_pthread_tNS_9allocatorIS2_EEEC2Em, symObjAddr: 0x30A18, symBinAddr: 0x100034620, symSize: 0x490 }
  - { offsetInCU: 0x12D830, offset: 0x12D830, size: 0x8, addend: 0x0, symName: __ZNSt3__117__compressed_pairIPP17_opaque_pthread_tNS_9allocatorIS2_EEEC1B8ue170006IDnNS_18__default_init_tagEEEOT_OT0_, symObjAddr: 0x30EA8, symBinAddr: 0x100034AB0, symSize: 0x3C }
  - { offsetInCU: 0x12D888, offset: 0x12D888, size: 0x8, addend: 0x0, symName: __ZNSt3__16vectorIP17_opaque_pthread_tNS_9allocatorIS2_EEE16__destroy_vectorC1B8ue170006ERS5_, symObjAddr: 0x3115C, symBinAddr: 0x100034D64, symSize: 0x34 }
  - { offsetInCU: 0x12D8C1, offset: 0x12D8C1, size: 0x8, addend: 0x0, symName: __ZNSt3__16vectorIP17_opaque_pthread_tNS_9allocatorIS2_EEE11__vallocateB8ue170006Em, symObjAddr: 0x31190, symBinAddr: 0x100034D98, symSize: 0x420 }
  - { offsetInCU: 0x12D90B, offset: 0x12D90B, size: 0x8, addend: 0x0, symName: __ZNSt3__16vectorIP17_opaque_pthread_tNS_9allocatorIS2_EEE18__construct_at_endEm, symObjAddr: 0x315B0, symBinAddr: 0x1000351B8, symSize: 0x3E4 }
  - { offsetInCU: 0x12D985, offset: 0x12D985, size: 0x8, addend: 0x0, symName: __ZNSt3__128__exception_guard_exceptionsINS_6vectorIP17_opaque_pthread_tNS_9allocatorIS3_EEE16__destroy_vectorEE10__completeB8ue170006Ev, symObjAddr: 0x31994, symBinAddr: 0x10003559C, symSize: 0x8C }
  - { offsetInCU: 0x12D9AB, offset: 0x12D9AB, size: 0x8, addend: 0x0, symName: __ZNSt3__128__exception_guard_exceptionsINS_6vectorIP17_opaque_pthread_tNS_9allocatorIS3_EEE16__destroy_vectorEED1B8ue170006Ev, symObjAddr: 0x31A20, symBinAddr: 0x100035628, symSize: 0x2C }
  - { offsetInCU: 0x12D9D5, offset: 0x12D9D5, size: 0x8, addend: 0x0, symName: __ZNSt3__117__compressed_pairIPP17_opaque_pthread_tNS_9allocatorIS2_EEEC2B8ue170006IDnNS_18__default_init_tagEEEOT_OT0_, symObjAddr: 0x31A4C, symBinAddr: 0x100035654, symSize: 0x40 }
  - { offsetInCU: 0x12DA2D, offset: 0x12DA2D, size: 0x8, addend: 0x0, symName: __ZNSt3__122__compressed_pair_elemIPP17_opaque_pthread_tLi0ELb0EEC2B8ue170006IDnvEEOT_, symObjAddr: 0x31A8C, symBinAddr: 0x100035694, symSize: 0x64 }
  - { offsetInCU: 0x12DA6F, offset: 0x12DA6F, size: 0x8, addend: 0x0, symName: __ZNSt3__122__compressed_pair_elemINS_9allocatorIP17_opaque_pthread_tEELi1ELb1EEC2B8ue170006ENS_18__default_init_tagE, symObjAddr: 0x31AF0, symBinAddr: 0x1000356F8, symSize: 0x2C }
  - { offsetInCU: 0x12DAA3, offset: 0x12DAA3, size: 0x8, addend: 0x0, symName: __ZNSt3__19allocatorIP17_opaque_pthread_tEC2B8ue170006Ev, symObjAddr: 0x31B1C, symBinAddr: 0x100035724, symSize: 0x2C }
  - { offsetInCU: 0x12DACD, offset: 0x12DACD, size: 0x8, addend: 0x0, symName: __ZNSt3__116__non_trivial_ifILb1ENS_9allocatorIP17_opaque_pthread_tEEEC2B8ue170006Ev, symObjAddr: 0x31B48, symBinAddr: 0x100035750, symSize: 0x14 }
  - { offsetInCU: 0x12DAF7, offset: 0x12DAF7, size: 0x8, addend: 0x0, symName: __ZNSt3__128__exception_guard_exceptionsINS_6vectorIP17_opaque_pthread_tNS_9allocatorIS3_EEE16__destroy_vectorEEC1B8ue170006ES7_, symObjAddr: 0x31B5C, symBinAddr: 0x100035764, symSize: 0x238 }
  - { offsetInCU: 0x12DB34, offset: 0x12DB34, size: 0x8, addend: 0x0, symName: __ZNSt3__128__exception_guard_exceptionsINS_6vectorIP17_opaque_pthread_tNS_9allocatorIS3_EEE16__destroy_vectorEEC2B8ue170006ES7_, symObjAddr: 0x31D94, symBinAddr: 0x10003599C, symSize: 0x264 }
  - { offsetInCU: 0x12DB71, offset: 0x12DB71, size: 0x8, addend: 0x0, symName: __ZNSt3__16vectorIP17_opaque_pthread_tNS_9allocatorIS2_EEE16__destroy_vectorC2B8ue170006ERS5_, symObjAddr: 0x31FF8, symBinAddr: 0x100035C00, symSize: 0x70 }
  - { offsetInCU: 0x12DBAA, offset: 0x12DBAA, size: 0x8, addend: 0x0, symName: __ZNKSt3__16vectorIP17_opaque_pthread_tNS_9allocatorIS2_EEE8max_sizeEv, symObjAddr: 0x32068, symBinAddr: 0x100035C70, symSize: 0x2FC }
  - { offsetInCU: 0x12DBD3, offset: 0x12DBD3, size: 0x8, addend: 0x0, symName: __ZNKSt3__16vectorIP17_opaque_pthread_tNS_9allocatorIS2_EEE20__throw_length_errorB8ue170006Ev, symObjAddr: 0x32364, symBinAddr: 0x100035F6C, symSize: 0x20 }
  - { offsetInCU: 0x12DBF9, offset: 0x12DBF9, size: 0x8, addend: 0x0, symName: __ZNSt3__16vectorIP17_opaque_pthread_tNS_9allocatorIS2_EEE7__allocB8ue170006Ev, symObjAddr: 0x32610, symBinAddr: 0x100036218, symSize: 0x28 }
  - { offsetInCU: 0x12DC1F, offset: 0x12DC1F, size: 0x8, addend: 0x0, symName: __ZNSt3__16vectorIP17_opaque_pthread_tNS_9allocatorIS2_EEE9__end_capB8ue170006Ev, symObjAddr: 0x32638, symBinAddr: 0x100036240, symSize: 0x28 }
  - { offsetInCU: 0x12DC45, offset: 0x12DC45, size: 0x8, addend: 0x0, symName: __ZNKSt3__16vectorIP17_opaque_pthread_tNS_9allocatorIS2_EEE14__annotate_newB8ue170006Em, symObjAddr: 0x32660, symBinAddr: 0x100036268, symSize: 0xC0 }
  - { offsetInCU: 0x12DC84, offset: 0x12DC84, size: 0x8, addend: 0x0, symName: __ZNSt3__116allocator_traitsINS_9allocatorIP17_opaque_pthread_tEEE8max_sizeB8ue170006IS4_vEEmRKS4_, symObjAddr: 0x32720, symBinAddr: 0x100036328, symSize: 0x24 }
  - { offsetInCU: 0x12DCB2, offset: 0x12DCB2, size: 0x8, addend: 0x0, symName: __ZNKSt3__16vectorIP17_opaque_pthread_tNS_9allocatorIS2_EEE7__allocB8ue170006Ev, symObjAddr: 0x32744, symBinAddr: 0x10003634C, symSize: 0x28 }
  - { offsetInCU: 0x12DCD8, offset: 0x12DCD8, size: 0x8, addend: 0x0, symName: __ZNKSt3__19allocatorIP17_opaque_pthread_tE8max_sizeB8ue170006Ev, symObjAddr: 0x3276C, symBinAddr: 0x100036374, symSize: 0x14 }
  - { offsetInCU: 0x12DCFE, offset: 0x12DCFE, size: 0x8, addend: 0x0, symName: __ZNKSt3__117__compressed_pairIPP17_opaque_pthread_tNS_9allocatorIS2_EEE6secondB8ue170006Ev, symObjAddr: 0x32780, symBinAddr: 0x100036388, symSize: 0x24 }
  - { offsetInCU: 0x12DD24, offset: 0x12DD24, size: 0x8, addend: 0x0, symName: __ZNKSt3__122__compressed_pair_elemINS_9allocatorIP17_opaque_pthread_tEELi1ELb1EE5__getB8ue170006Ev, symObjAddr: 0x327A4, symBinAddr: 0x1000363AC, symSize: 0x14 }
  - { offsetInCU: 0x12DD4A, offset: 0x12DD4A, size: 0x8, addend: 0x0, symName: __ZNSt3__19allocatorIP17_opaque_pthread_tE8allocateB8ue170006Em, symObjAddr: 0x327B8, symBinAddr: 0x1000363C0, symSize: 0x5C }
  - { offsetInCU: 0x12DD7E, offset: 0x12DD7E, size: 0x8, addend: 0x0, symName: __ZNSt3__117__compressed_pairIPP17_opaque_pthread_tNS_9allocatorIS2_EEE6secondB8ue170006Ev, symObjAddr: 0x32814, symBinAddr: 0x10003641C, symSize: 0x24 }
  - { offsetInCU: 0x12DDA4, offset: 0x12DDA4, size: 0x8, addend: 0x0, symName: __ZNSt3__122__compressed_pair_elemINS_9allocatorIP17_opaque_pthread_tEELi1ELb1EE5__getB8ue170006Ev, symObjAddr: 0x32838, symBinAddr: 0x100036440, symSize: 0x14 }
  - { offsetInCU: 0x12DDCA, offset: 0x12DDCA, size: 0x8, addend: 0x0, symName: __ZNSt3__117__compressed_pairIPP17_opaque_pthread_tNS_9allocatorIS2_EEE5firstB8ue170006Ev, symObjAddr: 0x3284C, symBinAddr: 0x100036454, symSize: 0x24 }
  - { offsetInCU: 0x12DDF0, offset: 0x12DDF0, size: 0x8, addend: 0x0, symName: __ZNSt3__122__compressed_pair_elemIPP17_opaque_pthread_tLi0ELb0EE5__getB8ue170006Ev, symObjAddr: 0x32870, symBinAddr: 0x100036478, symSize: 0x14 }
  - { offsetInCU: 0x12DE16, offset: 0x12DE16, size: 0x8, addend: 0x0, symName: __ZNKSt3__16vectorIP17_opaque_pthread_tNS_9allocatorIS2_EEE31__annotate_contiguous_containerEPKvS7_S7_S7_, symObjAddr: 0x32884, symBinAddr: 0x10003648C, symSize: 0x58 }
  - { offsetInCU: 0x12DE78, offset: 0x12DE78, size: 0x8, addend: 0x0, symName: __ZNKSt3__16vectorIP17_opaque_pthread_tNS_9allocatorIS2_EEE4dataB8ue170006Ev, symObjAddr: 0x328DC, symBinAddr: 0x1000364E4, symSize: 0x64 }
  - { offsetInCU: 0x12DE9E, offset: 0x12DE9E, size: 0x8, addend: 0x0, symName: __ZNKSt3__16vectorIP17_opaque_pthread_tNS_9allocatorIS2_EEE8capacityB8ue170006Ev, symObjAddr: 0x32940, symBinAddr: 0x100036548, symSize: 0xBC }
  - { offsetInCU: 0x12DEC4, offset: 0x12DEC4, size: 0x8, addend: 0x0, symName: __ZNKSt3__16vectorIP17_opaque_pthread_tNS_9allocatorIS2_EEE9__end_capB8ue170006Ev, symObjAddr: 0x32A10, symBinAddr: 0x100036618, symSize: 0x28 }
  - { offsetInCU: 0x12DEEA, offset: 0x12DEEA, size: 0x8, addend: 0x0, symName: __ZNKSt3__117__compressed_pairIPP17_opaque_pthread_tNS_9allocatorIS2_EEE5firstB8ue170006Ev, symObjAddr: 0x32A38, symBinAddr: 0x100036640, symSize: 0x24 }
  - { offsetInCU: 0x12DF10, offset: 0x12DF10, size: 0x8, addend: 0x0, symName: __ZNKSt3__122__compressed_pair_elemIPP17_opaque_pthread_tLi0ELb0EE5__getB8ue170006Ev, symObjAddr: 0x32A5C, symBinAddr: 0x100036664, symSize: 0x14 }
  - { offsetInCU: 0x12DF4F, offset: 0x12DF4F, size: 0x8, addend: 0x0, symName: __ZNSt3__16vectorIP17_opaque_pthread_tNS_9allocatorIS2_EEE21_ConstructTransactionC1B8ue170006ERS5_m, symObjAddr: 0x32A70, symBinAddr: 0x100036678, symSize: 0x3C }
  - { offsetInCU: 0x12DF97, offset: 0x12DF97, size: 0x8, addend: 0x0, symName: __ZNSt3__116allocator_traitsINS_9allocatorIP17_opaque_pthread_tEEE9constructB8ue170006IS3_JEvEEvRS4_PT_DpOT0_, symObjAddr: 0x32AAC, symBinAddr: 0x1000366B4, symSize: 0x2C }
  - { offsetInCU: 0x12DFD9, offset: 0x12DFD9, size: 0x8, addend: 0x0, symName: __ZNSt3__16vectorIP17_opaque_pthread_tNS_9allocatorIS2_EEE21_ConstructTransactionD1B8ue170006Ev, symObjAddr: 0x32AD8, symBinAddr: 0x1000366E0, symSize: 0x2C }
  - { offsetInCU: 0x12E003, offset: 0x12E003, size: 0x8, addend: 0x0, symName: __ZNSt3__16vectorIP17_opaque_pthread_tNS_9allocatorIS2_EEE21_ConstructTransactionC2B8ue170006ERS5_m, symObjAddr: 0x32B04, symBinAddr: 0x10003670C, symSize: 0x1D0 }
  - { offsetInCU: 0x12E04B, offset: 0x12E04B, size: 0x8, addend: 0x0, symName: __ZNKSt3__16vectorIP17_opaque_pthread_tNS_9allocatorIS2_EEE19__annotate_increaseB8ue170006Em, symObjAddr: 0x32CD4, symBinAddr: 0x1000368DC, symSize: 0xD8 }
  - { offsetInCU: 0x12E080, offset: 0x12E080, size: 0x8, addend: 0x0, symName: __ZNKSt3__16vectorIP17_opaque_pthread_tNS_9allocatorIS2_EEE4sizeB8ue170006Ev, symObjAddr: 0x32DAC, symBinAddr: 0x1000369B4, symSize: 0xB0 }
  - { offsetInCU: 0x12E0A6, offset: 0x12E0A6, size: 0x8, addend: 0x0, symName: __ZNSt3__19allocatorIP17_opaque_pthread_tE9constructB8ue170006IS2_JEEEvPT_DpOT0_, symObjAddr: 0x32E5C, symBinAddr: 0x100036A64, symSize: 0x64 }
  - { offsetInCU: 0x12E0E8, offset: 0x12E0E8, size: 0x8, addend: 0x0, symName: __ZNSt3__16vectorIP17_opaque_pthread_tNS_9allocatorIS2_EEE21_ConstructTransactionD2B8ue170006Ev, symObjAddr: 0x32EC0, symBinAddr: 0x100036AC8, symSize: 0x278 }
  - { offsetInCU: 0x12E112, offset: 0x12E112, size: 0x8, addend: 0x0, symName: __ZNKSt3__16vectorIP17_opaque_pthread_tNS_9allocatorIS2_EEE17__annotate_shrinkB8ue170006Em, symObjAddr: 0x33138, symBinAddr: 0x100036D40, symSize: 0xC8 }
  - { offsetInCU: 0x12E147, offset: 0x12E147, size: 0x8, addend: 0x0, symName: __ZNSt3__128__exception_guard_exceptionsINS_6vectorIP17_opaque_pthread_tNS_9allocatorIS3_EEE16__destroy_vectorEED2B8ue170006Ev, symObjAddr: 0x33200, symBinAddr: 0x100036E08, symSize: 0xBC }
  - { offsetInCU: 0x12E171, offset: 0x12E171, size: 0x8, addend: 0x0, symName: __ZNSt3__16vectorIP17_opaque_pthread_tNS_9allocatorIS2_EEE16__destroy_vectorclB8ue170006Ev, symObjAddr: 0x332BC, symBinAddr: 0x100036EC4, symSize: 0x228 }
  - { offsetInCU: 0x12E197, offset: 0x12E197, size: 0x8, addend: 0x0, symName: __ZNSt3__16vectorIP17_opaque_pthread_tNS_9allocatorIS2_EEE7__clearB8ue170006Ev, symObjAddr: 0x334E4, symBinAddr: 0x1000370EC, symSize: 0x64 }
  - { offsetInCU: 0x12E1BD, offset: 0x12E1BD, size: 0x8, addend: 0x0, symName: __ZNKSt3__16vectorIP17_opaque_pthread_tNS_9allocatorIS2_EEE17__annotate_deleteB8ue170006Ev, symObjAddr: 0x33548, symBinAddr: 0x100037150, symSize: 0xCC }
  - { offsetInCU: 0x12E1E3, offset: 0x12E1E3, size: 0x8, addend: 0x0, symName: __ZNSt3__116allocator_traitsINS_9allocatorIP17_opaque_pthread_tEEE10deallocateB8ue170006ERS4_PS3_m, symObjAddr: 0x33614, symBinAddr: 0x10003721C, symSize: 0x34 }
  - { offsetInCU: 0x12E225, offset: 0x12E225, size: 0x8, addend: 0x0, symName: __ZNSt3__16vectorIP17_opaque_pthread_tNS_9allocatorIS2_EEE22__base_destruct_at_endB8ue170006EPS2_, symObjAddr: 0x33648, symBinAddr: 0x100037250, symSize: 0x114 }
  - { offsetInCU: 0x12E269, offset: 0x12E269, size: 0x8, addend: 0x0, symName: __ZNSt3__116allocator_traitsINS_9allocatorIP17_opaque_pthread_tEEE7destroyB8ue170006IS3_vEEvRS4_PT_, symObjAddr: 0x3375C, symBinAddr: 0x100037364, symSize: 0x2C }
  - { offsetInCU: 0x12E2A6, offset: 0x12E2A6, size: 0x8, addend: 0x0, symName: __ZNSt3__19allocatorIP17_opaque_pthread_tE7destroyB8ue170006EPS2_, symObjAddr: 0x33788, symBinAddr: 0x100037390, symSize: 0x14 }
  - { offsetInCU: 0x12E2DA, offset: 0x12E2DA, size: 0x8, addend: 0x0, symName: __ZNSt3__19allocatorIP17_opaque_pthread_tE10deallocateB8ue170006EPS2_m, symObjAddr: 0x3379C, symBinAddr: 0x1000373A4, symSize: 0x4C }
  - { offsetInCU: 0x12E31C, offset: 0x12E31C, size: 0x8, addend: 0x0, symName: __ZNSt3__16vectorINS_10unique_ptrIN18MultiHeadAttention10ThreadDataENS_14default_deleteIS3_EEEENS_9allocatorIS6_EEEC2B8ue170006Ev, symObjAddr: 0x337E8, symBinAddr: 0x1000373F0, symSize: 0x2E8 }
  - { offsetInCU: 0x12E347, offset: 0x12E347, size: 0x8, addend: 0x0, symName: __ZNSt3__117__compressed_pairIPNS_10unique_ptrIN18MultiHeadAttention10ThreadDataENS_14default_deleteIS3_EEEENS_9allocatorIS6_EEEC1B8ue170006IDnNS_18__default_init_tagEEEOT_OT0_, symObjAddr: 0x33AD0, symBinAddr: 0x1000376D8, symSize: 0x3C }
  - { offsetInCU: 0x12E39F, offset: 0x12E39F, size: 0x8, addend: 0x0, symName: __ZNSt3__117__compressed_pairIPNS_10unique_ptrIN18MultiHeadAttention10ThreadDataENS_14default_deleteIS3_EEEENS_9allocatorIS6_EEEC2B8ue170006IDnNS_18__default_init_tagEEEOT_OT0_, symObjAddr: 0x33B0C, symBinAddr: 0x100037714, symSize: 0x40 }
  - { offsetInCU: 0x12E3F7, offset: 0x12E3F7, size: 0x8, addend: 0x0, symName: __ZNSt3__122__compressed_pair_elemIPNS_10unique_ptrIN18MultiHeadAttention10ThreadDataENS_14default_deleteIS3_EEEELi0ELb0EEC2B8ue170006IDnvEEOT_, symObjAddr: 0x33B4C, symBinAddr: 0x100037754, symSize: 0x64 }
  - { offsetInCU: 0x12E439, offset: 0x12E439, size: 0x8, addend: 0x0, symName: __ZNSt3__122__compressed_pair_elemINS_9allocatorINS_10unique_ptrIN18MultiHeadAttention10ThreadDataENS_14default_deleteIS4_EEEEEELi1ELb1EEC2B8ue170006ENS_18__default_init_tagE, symObjAddr: 0x33BB0, symBinAddr: 0x1000377B8, symSize: 0x2C }
  - { offsetInCU: 0x12E46D, offset: 0x12E46D, size: 0x8, addend: 0x0, symName: __ZNSt3__19allocatorINS_10unique_ptrIN18MultiHeadAttention10ThreadDataENS_14default_deleteIS3_EEEEEC2B8ue170006Ev, symObjAddr: 0x33BDC, symBinAddr: 0x1000377E4, symSize: 0x2C }
  - { offsetInCU: 0x12E497, offset: 0x12E497, size: 0x8, addend: 0x0, symName: __ZNSt3__116__non_trivial_ifILb1ENS_9allocatorINS_10unique_ptrIN18MultiHeadAttention10ThreadDataENS_14default_deleteIS4_EEEEEEEC2B8ue170006Ev, symObjAddr: 0x33C08, symBinAddr: 0x100037810, symSize: 0x14 }
  - { offsetInCU: 0x12E4C1, offset: 0x12E4C1, size: 0x8, addend: 0x0, symName: __ZNSt3__16vectorINS_10unique_ptrIN18MultiHeadAttention10ThreadDataENS_14default_deleteIS3_EEEENS_9allocatorIS6_EEE9__end_capB8ue170006Ev, symObjAddr: 0x33C1C, symBinAddr: 0x100037824, symSize: 0x28 }
  - { offsetInCU: 0x12E4E7, offset: 0x12E4E7, size: 0x8, addend: 0x0, symName: __ZNSt3__16vectorINS_10unique_ptrIN18MultiHeadAttention10ThreadDataENS_14default_deleteIS3_EEEENS_9allocatorIS6_EEE22__construct_one_at_endB8ue170006IJS6_EEEvDpOT_, symObjAddr: 0x33C44, symBinAddr: 0x10003784C, symSize: 0x36C }
  - { offsetInCU: 0x12E53C, offset: 0x12E53C, size: 0x8, addend: 0x0, symName: __ZNSt3__16vectorINS_10unique_ptrIN18MultiHeadAttention10ThreadDataENS_14default_deleteIS3_EEEENS_9allocatorIS6_EEE21__push_back_slow_pathIS6_EEvOT_, symObjAddr: 0x33FB0, symBinAddr: 0x100037BB8, symSize: 0x3C0 }
  - { offsetInCU: 0x12E5A1, offset: 0x12E5A1, size: 0x8, addend: 0x0, symName: __ZNSt3__117__compressed_pairIPNS_10unique_ptrIN18MultiHeadAttention10ThreadDataENS_14default_deleteIS3_EEEENS_9allocatorIS6_EEE5firstB8ue170006Ev, symObjAddr: 0x34370, symBinAddr: 0x100037F78, symSize: 0x24 }
  - { offsetInCU: 0x12E5C7, offset: 0x12E5C7, size: 0x8, addend: 0x0, symName: __ZNSt3__122__compressed_pair_elemIPNS_10unique_ptrIN18MultiHeadAttention10ThreadDataENS_14default_deleteIS3_EEEELi0ELb0EE5__getB8ue170006Ev, symObjAddr: 0x34394, symBinAddr: 0x100037F9C, symSize: 0x14 }
  - { offsetInCU: 0x12E606, offset: 0x12E606, size: 0x8, addend: 0x0, symName: __ZNSt3__16vectorINS_10unique_ptrIN18MultiHeadAttention10ThreadDataENS_14default_deleteIS3_EEEENS_9allocatorIS6_EEE21_ConstructTransactionC1B8ue170006ERS9_m, symObjAddr: 0x343A8, symBinAddr: 0x100037FB0, symSize: 0x3C }
  - { offsetInCU: 0x12E64E, offset: 0x12E64E, size: 0x8, addend: 0x0, symName: __ZNSt3__116allocator_traitsINS_9allocatorINS_10unique_ptrIN18MultiHeadAttention10ThreadDataENS_14default_deleteIS4_EEEEEEE9constructB8ue170006IS7_JS7_EvEEvRS8_PT_DpOT0_, symObjAddr: 0x343E4, symBinAddr: 0x100037FEC, symSize: 0x34 }
  - { offsetInCU: 0x12E6A5, offset: 0x12E6A5, size: 0x8, addend: 0x0, symName: __ZNSt3__16vectorINS_10unique_ptrIN18MultiHeadAttention10ThreadDataENS_14default_deleteIS3_EEEENS_9allocatorIS6_EEE7__allocB8ue170006Ev, symObjAddr: 0x34418, symBinAddr: 0x100038020, symSize: 0x28 }
  - { offsetInCU: 0x12E6CB, offset: 0x12E6CB, size: 0x8, addend: 0x0, symName: __ZNSt3__16vectorINS_10unique_ptrIN18MultiHeadAttention10ThreadDataENS_14default_deleteIS3_EEEENS_9allocatorIS6_EEE21_ConstructTransactionD1B8ue170006Ev, symObjAddr: 0x34454, symBinAddr: 0x10003805C, symSize: 0x2C }
  - { offsetInCU: 0x12E6F5, offset: 0x12E6F5, size: 0x8, addend: 0x0, symName: __ZNSt3__16vectorINS_10unique_ptrIN18MultiHeadAttention10ThreadDataENS_14default_deleteIS3_EEEENS_9allocatorIS6_EEE21_ConstructTransactionC2B8ue170006ERS9_m, symObjAddr: 0x34480, symBinAddr: 0x100038088, symSize: 0x1D0 }
  - { offsetInCU: 0x12E73D, offset: 0x12E73D, size: 0x8, addend: 0x0, symName: __ZNKSt3__16vectorINS_10unique_ptrIN18MultiHeadAttention10ThreadDataENS_14default_deleteIS3_EEEENS_9allocatorIS6_EEE19__annotate_increaseB8ue170006Em, symObjAddr: 0x34650, symBinAddr: 0x100038258, symSize: 0xD8 }
  - { offsetInCU: 0x12E772, offset: 0x12E772, size: 0x8, addend: 0x0, symName: __ZNKSt3__16vectorINS_10unique_ptrIN18MultiHeadAttention10ThreadDataENS_14default_deleteIS3_EEEENS_9allocatorIS6_EEE31__annotate_contiguous_containerEPKvSB_SB_SB_, symObjAddr: 0x34728, symBinAddr: 0x100038330, symSize: 0x58 }
  - { offsetInCU: 0x12E7D4, offset: 0x12E7D4, size: 0x8, addend: 0x0, symName: __ZNKSt3__16vectorINS_10unique_ptrIN18MultiHeadAttention10ThreadDataENS_14default_deleteIS3_EEEENS_9allocatorIS6_EEE4dataB8ue170006Ev, symObjAddr: 0x34780, symBinAddr: 0x100038388, symSize: 0x64 }
  - { offsetInCU: 0x12E7FA, offset: 0x12E7FA, size: 0x8, addend: 0x0, symName: __ZNKSt3__16vectorINS_10unique_ptrIN18MultiHeadAttention10ThreadDataENS_14default_deleteIS3_EEEENS_9allocatorIS6_EEE8capacityB8ue170006Ev, symObjAddr: 0x347E4, symBinAddr: 0x1000383EC, symSize: 0xBC }
  - { offsetInCU: 0x12E820, offset: 0x12E820, size: 0x8, addend: 0x0, symName: __ZNKSt3__16vectorINS_10unique_ptrIN18MultiHeadAttention10ThreadDataENS_14default_deleteIS3_EEEENS_9allocatorIS6_EEE4sizeB8ue170006Ev, symObjAddr: 0x348A0, symBinAddr: 0x1000384A8, symSize: 0xB0 }
  - { offsetInCU: 0x12E846, offset: 0x12E846, size: 0x8, addend: 0x0, symName: __ZNKSt3__16vectorINS_10unique_ptrIN18MultiHeadAttention10ThreadDataENS_14default_deleteIS3_EEEENS_9allocatorIS6_EEE9__end_capB8ue170006Ev, symObjAddr: 0x34950, symBinAddr: 0x100038558, symSize: 0x28 }
  - { offsetInCU: 0x12E86C, offset: 0x12E86C, size: 0x8, addend: 0x0, symName: __ZNKSt3__117__compressed_pairIPNS_10unique_ptrIN18MultiHeadAttention10ThreadDataENS_14default_deleteIS3_EEEENS_9allocatorIS6_EEE5firstB8ue170006Ev, symObjAddr: 0x34978, symBinAddr: 0x100038580, symSize: 0x24 }
  - { offsetInCU: 0x12E892, offset: 0x12E892, size: 0x8, addend: 0x0, symName: __ZNKSt3__122__compressed_pair_elemIPNS_10unique_ptrIN18MultiHeadAttention10ThreadDataENS_14default_deleteIS3_EEEELi0ELb0EE5__getB8ue170006Ev, symObjAddr: 0x3499C, symBinAddr: 0x1000385A4, symSize: 0x14 }
  - { offsetInCU: 0x12E8B8, offset: 0x12E8B8, size: 0x8, addend: 0x0, symName: __ZNSt3__19allocatorINS_10unique_ptrIN18MultiHeadAttention10ThreadDataENS_14default_deleteIS3_EEEEE9constructB8ue170006IS6_JS6_EEEvPT_DpOT0_, symObjAddr: 0x349B0, symBinAddr: 0x1000385B8, symSize: 0x30 }
  - { offsetInCU: 0x12E90E, offset: 0x12E90E, size: 0x8, addend: 0x0, symName: __ZNSt3__110unique_ptrIN18MultiHeadAttention10ThreadDataENS_14default_deleteIS2_EEEC1B8ue170006EOS5_, symObjAddr: 0x349E0, symBinAddr: 0x1000385E8, symSize: 0x34 }
  - { offsetInCU: 0x12E946, offset: 0x12E946, size: 0x8, addend: 0x0, symName: __ZNSt3__110unique_ptrIN18MultiHeadAttention10ThreadDataENS_14default_deleteIS2_EEEC2B8ue170006EOS5_, symObjAddr: 0x34A14, symBinAddr: 0x10003861C, symSize: 0x24C }
  - { offsetInCU: 0x12E980, offset: 0x12E980, size: 0x8, addend: 0x0, symName: __ZNSt3__110unique_ptrIN18MultiHeadAttention10ThreadDataENS_14default_deleteIS2_EEE7releaseB8ue170006Ev, symObjAddr: 0x34C60, symBinAddr: 0x100038868, symSize: 0xB8 }
  - { offsetInCU: 0x12E9B5, offset: 0x12E9B5, size: 0x8, addend: 0x0, symName: __ZNSt3__110unique_ptrIN18MultiHeadAttention10ThreadDataENS_14default_deleteIS2_EEE11get_deleterB8ue170006Ev, symObjAddr: 0x34D18, symBinAddr: 0x100038920, symSize: 0x24 }
  - { offsetInCU: 0x12E9E7, offset: 0x12E9E7, size: 0x8, addend: 0x0, symName: __ZNSt3__117__compressed_pairIPN18MultiHeadAttention10ThreadDataENS_14default_deleteIS2_EEEC1B8ue170006IS3_S5_EEOT_OT0_, symObjAddr: 0x34D3C, symBinAddr: 0x100038944, symSize: 0x3C }
  - { offsetInCU: 0x12EA3F, offset: 0x12EA3F, size: 0x8, addend: 0x0, symName: __ZNSt3__117__compressed_pairIPN18MultiHeadAttention10ThreadDataENS_14default_deleteIS2_EEE5firstB8ue170006Ev, symObjAddr: 0x34D78, symBinAddr: 0x100038980, symSize: 0x24 }
  - { offsetInCU: 0x12EA65, offset: 0x12EA65, size: 0x8, addend: 0x0, symName: __ZNSt3__122__compressed_pair_elemIPN18MultiHeadAttention10ThreadDataELi0ELb0EE5__getB8ue170006Ev, symObjAddr: 0x34D9C, symBinAddr: 0x1000389A4, symSize: 0x14 }
  - { offsetInCU: 0x12EA8B, offset: 0x12EA8B, size: 0x8, addend: 0x0, symName: __ZNSt3__117__compressed_pairIPN18MultiHeadAttention10ThreadDataENS_14default_deleteIS2_EEE6secondB8ue170006Ev, symObjAddr: 0x34DB0, symBinAddr: 0x1000389B8, symSize: 0x24 }
  - { offsetInCU: 0x12EAB1, offset: 0x12EAB1, size: 0x8, addend: 0x0, symName: __ZNSt3__122__compressed_pair_elemINS_14default_deleteIN18MultiHeadAttention10ThreadDataEEELi1ELb1EE5__getB8ue170006Ev, symObjAddr: 0x34DD4, symBinAddr: 0x1000389DC, symSize: 0x14 }
  - { offsetInCU: 0x12EAD7, offset: 0x12EAD7, size: 0x8, addend: 0x0, symName: __ZNSt3__117__compressed_pairIPN18MultiHeadAttention10ThreadDataENS_14default_deleteIS2_EEEC2B8ue170006IS3_S5_EEOT_OT0_, symObjAddr: 0x34DE8, symBinAddr: 0x1000389F0, symSize: 0x44 }
  - { offsetInCU: 0x12EB2F, offset: 0x12EB2F, size: 0x8, addend: 0x0, symName: __ZNSt3__122__compressed_pair_elemIPN18MultiHeadAttention10ThreadDataELi0ELb0EEC2B8ue170006IS3_vEEOT_, symObjAddr: 0x34E2C, symBinAddr: 0x100038A34, symSize: 0xB0 }
  - { offsetInCU: 0x12EB71, offset: 0x12EB71, size: 0x8, addend: 0x0, symName: __ZNSt3__122__compressed_pair_elemINS_14default_deleteIN18MultiHeadAttention10ThreadDataEEELi1ELb1EEC2B8ue170006IS4_vEEOT_, symObjAddr: 0x34EDC, symBinAddr: 0x100038AE4, symSize: 0x18 }
  - { offsetInCU: 0x12EBB3, offset: 0x12EBB3, size: 0x8, addend: 0x0, symName: __ZNSt3__117__compressed_pairIPNS_10unique_ptrIN18MultiHeadAttention10ThreadDataENS_14default_deleteIS3_EEEENS_9allocatorIS6_EEE6secondB8ue170006Ev, symObjAddr: 0x34EF4, symBinAddr: 0x100038AFC, symSize: 0x24 }
  - { offsetInCU: 0x12EBD9, offset: 0x12EBD9, size: 0x8, addend: 0x0, symName: __ZNSt3__122__compressed_pair_elemINS_9allocatorINS_10unique_ptrIN18MultiHeadAttention10ThreadDataENS_14default_deleteIS4_EEEEEELi1ELb1EE5__getB8ue170006Ev, symObjAddr: 0x34F18, symBinAddr: 0x100038B20, symSize: 0x14 }
  - { offsetInCU: 0x12EBFF, offset: 0x12EBFF, size: 0x8, addend: 0x0, symName: __ZNSt3__16vectorINS_10unique_ptrIN18MultiHeadAttention10ThreadDataENS_14default_deleteIS3_EEEENS_9allocatorIS6_EEE21_ConstructTransactionD2B8ue170006Ev, symObjAddr: 0x34F2C, symBinAddr: 0x100038B34, symSize: 0x278 }
  - { offsetInCU: 0x12EC29, offset: 0x12EC29, size: 0x8, addend: 0x0, symName: __ZNKSt3__16vectorINS_10unique_ptrIN18MultiHeadAttention10ThreadDataENS_14default_deleteIS3_EEEENS_9allocatorIS6_EEE17__annotate_shrinkB8ue170006Em, symObjAddr: 0x351A4, symBinAddr: 0x100038DAC, symSize: 0xC8 }
  - { offsetInCU: 0x12EC5E, offset: 0x12EC5E, size: 0x8, addend: 0x0, symName: __ZNKSt3__16vectorINS_10unique_ptrIN18MultiHeadAttention10ThreadDataENS_14default_deleteIS3_EEEENS_9allocatorIS6_EEE11__recommendB8ue170006Em, symObjAddr: 0x3526C, symBinAddr: 0x100038E74, symSize: 0x384 }
  - { offsetInCU: 0x12ECBA, offset: 0x12ECBA, size: 0x8, addend: 0x0, symName: __ZNSt3__114__split_bufferINS_10unique_ptrIN18MultiHeadAttention10ThreadDataENS_14default_deleteIS3_EEEERNS_9allocatorIS6_EEEC1EmmS9_, symObjAddr: 0x355F0, symBinAddr: 0x1000391F8, symSize: 0x44 }
  - { offsetInCU: 0x12ED10, offset: 0x12ED10, size: 0x8, addend: 0x0, symName: __ZNSt3__114__split_bufferINS_10unique_ptrIN18MultiHeadAttention10ThreadDataENS_14default_deleteIS3_EEEERNS_9allocatorIS6_EEED1Ev, symObjAddr: 0x35BA0, symBinAddr: 0x1000397A8, symSize: 0x2C }
  - { offsetInCU: 0x12ED3C, offset: 0x12ED3C, size: 0x8, addend: 0x0, symName: __ZNKSt3__16vectorINS_10unique_ptrIN18MultiHeadAttention10ThreadDataENS_14default_deleteIS3_EEEENS_9allocatorIS6_EEE8max_sizeEv, symObjAddr: 0x35BCC, symBinAddr: 0x1000397D4, symSize: 0x2FC }
  - { offsetInCU: 0x12ED65, offset: 0x12ED65, size: 0x8, addend: 0x0, symName: __ZNKSt3__16vectorINS_10unique_ptrIN18MultiHeadAttention10ThreadDataENS_14default_deleteIS3_EEEENS_9allocatorIS6_EEE20__throw_length_errorB8ue170006Ev, symObjAddr: 0x35EC8, symBinAddr: 0x100039AD0, symSize: 0x20 }
  - { offsetInCU: 0x12ED95, offset: 0x12ED95, size: 0x8, addend: 0x0, symName: __ZNSt3__116allocator_traitsINS_9allocatorINS_10unique_ptrIN18MultiHeadAttention10ThreadDataENS_14default_deleteIS4_EEEEEEE8max_sizeB8ue170006IS8_vEEmRKS8_, symObjAddr: 0x35EE8, symBinAddr: 0x100039AF0, symSize: 0x24 }
  - { offsetInCU: 0x12EDC3, offset: 0x12EDC3, size: 0x8, addend: 0x0, symName: __ZNKSt3__16vectorINS_10unique_ptrIN18MultiHeadAttention10ThreadDataENS_14default_deleteIS3_EEEENS_9allocatorIS6_EEE7__allocB8ue170006Ev, symObjAddr: 0x35F0C, symBinAddr: 0x100039B14, symSize: 0x28 }
  - { offsetInCU: 0x12EDE9, offset: 0x12EDE9, size: 0x8, addend: 0x0, symName: __ZNKSt3__19allocatorINS_10unique_ptrIN18MultiHeadAttention10ThreadDataENS_14default_deleteIS3_EEEEE8max_sizeB8ue170006Ev, symObjAddr: 0x35F34, symBinAddr: 0x100039B3C, symSize: 0x14 }
  - { offsetInCU: 0x12EE0F, offset: 0x12EE0F, size: 0x8, addend: 0x0, symName: __ZNKSt3__117__compressed_pairIPNS_10unique_ptrIN18MultiHeadAttention10ThreadDataENS_14default_deleteIS3_EEEENS_9allocatorIS6_EEE6secondB8ue170006Ev, symObjAddr: 0x35F48, symBinAddr: 0x100039B50, symSize: 0x24 }
  - { offsetInCU: 0x12EE35, offset: 0x12EE35, size: 0x8, addend: 0x0, symName: __ZNKSt3__122__compressed_pair_elemINS_9allocatorINS_10unique_ptrIN18MultiHeadAttention10ThreadDataENS_14default_deleteIS4_EEEEEELi1ELb1EE5__getB8ue170006Ev, symObjAddr: 0x35F6C, symBinAddr: 0x100039B74, symSize: 0x14 }
  - { offsetInCU: 0x12EE5B, offset: 0x12EE5B, size: 0x8, addend: 0x0, symName: __ZNSt3__114__split_bufferINS_10unique_ptrIN18MultiHeadAttention10ThreadDataENS_14default_deleteIS3_EEEERNS_9allocatorIS6_EEEC2EmmS9_, symObjAddr: 0x35F80, symBinAddr: 0x100039B88, symSize: 0x520 }
  - { offsetInCU: 0x12EED6, offset: 0x12EED6, size: 0x8, addend: 0x0, symName: __ZNSt3__117__compressed_pairIPNS_10unique_ptrIN18MultiHeadAttention10ThreadDataENS_14default_deleteIS3_EEEERNS_9allocatorIS6_EEEC1B8ue170006IDnSA_EEOT_OT0_, symObjAddr: 0x364A0, symBinAddr: 0x10003A0A8, symSize: 0x3C }
  - { offsetInCU: 0x12EF2E, offset: 0x12EF2E, size: 0x8, addend: 0x0, symName: __ZNSt3__114__split_bufferINS_10unique_ptrIN18MultiHeadAttention10ThreadDataENS_14default_deleteIS3_EEEERNS_9allocatorIS6_EEE7__allocB8ue170006Ev, symObjAddr: 0x36768, symBinAddr: 0x10003A370, symSize: 0x28 }
  - { offsetInCU: 0x12EF54, offset: 0x12EF54, size: 0x8, addend: 0x0, symName: __ZNSt3__114__split_bufferINS_10unique_ptrIN18MultiHeadAttention10ThreadDataENS_14default_deleteIS3_EEEERNS_9allocatorIS6_EEE9__end_capB8ue170006Ev, symObjAddr: 0x36790, symBinAddr: 0x10003A398, symSize: 0x28 }
  - { offsetInCU: 0x12EF7A, offset: 0x12EF7A, size: 0x8, addend: 0x0, symName: __ZNSt3__117__compressed_pairIPNS_10unique_ptrIN18MultiHeadAttention10ThreadDataENS_14default_deleteIS3_EEEERNS_9allocatorIS6_EEEC2B8ue170006IDnSA_EEOT_OT0_, symObjAddr: 0x367B8, symBinAddr: 0x10003A3C0, symSize: 0x48 }
  - { offsetInCU: 0x12EFD2, offset: 0x12EFD2, size: 0x8, addend: 0x0, symName: __ZNSt3__122__compressed_pair_elemIRNS_9allocatorINS_10unique_ptrIN18MultiHeadAttention10ThreadDataENS_14default_deleteIS4_EEEEEELi1ELb0EEC2B8ue170006IS9_vEEOT_, symObjAddr: 0x36800, symBinAddr: 0x10003A408, symSize: 0x70 }
  - { offsetInCU: 0x12F014, offset: 0x12F014, size: 0x8, addend: 0x0, symName: __ZNSt3__19allocatorINS_10unique_ptrIN18MultiHeadAttention10ThreadDataENS_14default_deleteIS3_EEEEE8allocateB8ue170006Em, symObjAddr: 0x36870, symBinAddr: 0x10003A478, symSize: 0x5C }
  - { offsetInCU: 0x12F048, offset: 0x12F048, size: 0x8, addend: 0x0, symName: __ZNSt3__117__compressed_pairIPNS_10unique_ptrIN18MultiHeadAttention10ThreadDataENS_14default_deleteIS3_EEEERNS_9allocatorIS6_EEE6secondB8ue170006Ev, symObjAddr: 0x368CC, symBinAddr: 0x10003A4D4, symSize: 0x28 }
  - { offsetInCU: 0x12F06E, offset: 0x12F06E, size: 0x8, addend: 0x0, symName: __ZNSt3__122__compressed_pair_elemIRNS_9allocatorINS_10unique_ptrIN18MultiHeadAttention10ThreadDataENS_14default_deleteIS4_EEEEEELi1ELb0EE5__getB8ue170006Ev, symObjAddr: 0x368F4, symBinAddr: 0x10003A4FC, symSize: 0x60 }
  - { offsetInCU: 0x12F094, offset: 0x12F094, size: 0x8, addend: 0x0, symName: __ZNSt3__117__compressed_pairIPNS_10unique_ptrIN18MultiHeadAttention10ThreadDataENS_14default_deleteIS3_EEEERNS_9allocatorIS6_EEE5firstB8ue170006Ev, symObjAddr: 0x36954, symBinAddr: 0x10003A55C, symSize: 0x24 }
  - { offsetInCU: 0x12F0BA, offset: 0x12F0BA, size: 0x8, addend: 0x0, symName: __ZNKSt3__16vectorINS_10unique_ptrIN18MultiHeadAttention10ThreadDataENS_14default_deleteIS3_EEEENS_9allocatorIS6_EEE17__annotate_deleteB8ue170006Ev, symObjAddr: 0x36978, symBinAddr: 0x10003A580, symSize: 0xCC }
  - { offsetInCU: 0x12F0E0, offset: 0x12F0E0, size: 0x8, addend: 0x0, symName: __ZNSt3__116reverse_iteratorIPNS_10unique_ptrIN18MultiHeadAttention10ThreadDataENS_14default_deleteIS3_EEEEEC1B8ue170006ES7_, symObjAddr: 0x36F88, symBinAddr: 0x10003AB90, symSize: 0x34 }
  - { offsetInCU: 0x12F118, offset: 0x12F118, size: 0x8, addend: 0x0, symName: __ZNKSt3__116reverse_iteratorIPNS_10unique_ptrIN18MultiHeadAttention10ThreadDataENS_14default_deleteIS3_EEEEE4baseB8ue170006Ev, symObjAddr: 0x36FBC, symBinAddr: 0x10003ABC4, symSize: 0x64 }
  - { offsetInCU: 0x12F13E, offset: 0x12F13E, size: 0x8, addend: 0x0, symName: __ZNKSt3__16vectorINS_10unique_ptrIN18MultiHeadAttention10ThreadDataENS_14default_deleteIS3_EEEENS_9allocatorIS6_EEE14__annotate_newB8ue170006Em, symObjAddr: 0x37154, symBinAddr: 0x10003AD5C, symSize: 0xC0 }
  - { offsetInCU: 0x12F173, offset: 0x12F173, size: 0x8, addend: 0x0, symName: __ZNSt3__129_AllocatorDestroyRangeReverseINS_9allocatorINS_10unique_ptrIN18MultiHeadAttention10ThreadDataENS_14default_deleteIS4_EEEEEENS_16reverse_iteratorIPS7_EEEC1B8ue170006ERS8_RSB_SE_, symObjAddr: 0x3740C, symBinAddr: 0x10003B014, symSize: 0x44 }
  - { offsetInCU: 0x12F1CA, offset: 0x12F1CA, size: 0x8, addend: 0x0, symName: __ZNKSt3__116reverse_iteratorIPNS_10unique_ptrIN18MultiHeadAttention10ThreadDataENS_14default_deleteIS3_EEEEEdeB8ue170006Ev, symObjAddr: 0x374BC, symBinAddr: 0x10003B0C4, symSize: 0x74 }
  - { offsetInCU: 0x12F1FE, offset: 0x12F1FE, size: 0x8, addend: 0x0, symName: __ZNSt3__116reverse_iteratorIPNS_10unique_ptrIN18MultiHeadAttention10ThreadDataENS_14default_deleteIS3_EEEEEppB8ue170006Ev, symObjAddr: 0x37530, symBinAddr: 0x10003B138, symSize: 0x6C }
  - { offsetInCU: 0x12F224, offset: 0x12F224, size: 0x8, addend: 0x0, symName: __ZNSt3__128__exception_guard_exceptionsINS_29_AllocatorDestroyRangeReverseINS_9allocatorINS_10unique_ptrIN18MultiHeadAttention10ThreadDataENS_14default_deleteIS5_EEEEEENS_16reverse_iteratorIPS8_EEEEE10__completeB8ue170006Ev, symObjAddr: 0x3759C, symBinAddr: 0x10003B1A4, symSize: 0x8C }
  - { offsetInCU: 0x12F24A, offset: 0x12F24A, size: 0x8, addend: 0x0, symName: __ZNSt3__128__exception_guard_exceptionsINS_29_AllocatorDestroyRangeReverseINS_9allocatorINS_10unique_ptrIN18MultiHeadAttention10ThreadDataENS_14default_deleteIS5_EEEEEENS_16reverse_iteratorIPS8_EEEEED1B8ue170006Ev, symObjAddr: 0x37628, symBinAddr: 0x10003B230, symSize: 0x2C }
  - { offsetInCU: 0x12F274, offset: 0x12F274, size: 0x8, addend: 0x0, symName: __ZNSt3__128__exception_guard_exceptionsINS_29_AllocatorDestroyRangeReverseINS_9allocatorINS_10unique_ptrIN18MultiHeadAttention10ThreadDataENS_14default_deleteIS5_EEEEEENS_16reverse_iteratorIPS8_EEEEEC1B8ue170006ESD_, symObjAddr: 0x37654, symBinAddr: 0x10003B25C, symSize: 0x34 }
  - { offsetInCU: 0x12F2AD, offset: 0x12F2AD, size: 0x8, addend: 0x0, symName: __ZNSt3__128__exception_guard_exceptionsINS_29_AllocatorDestroyRangeReverseINS_9allocatorINS_10unique_ptrIN18MultiHeadAttention10ThreadDataENS_14default_deleteIS5_EEEEEENS_16reverse_iteratorIPS8_EEEEEC2B8ue170006ESD_, symObjAddr: 0x37688, symBinAddr: 0x10003B290, symSize: 0xA4 }
  - { offsetInCU: 0x12F2E6, offset: 0x12F2E6, size: 0x8, addend: 0x0, symName: __ZNSt3__129_AllocatorDestroyRangeReverseINS_9allocatorINS_10unique_ptrIN18MultiHeadAttention10ThreadDataENS_14default_deleteIS4_EEEEEENS_16reverse_iteratorIPS7_EEEC2B8ue170006ERS8_RSB_SE_, symObjAddr: 0x3772C, symBinAddr: 0x10003B334, symSize: 0x104 }
  - { offsetInCU: 0x12F342, offset: 0x12F342, size: 0x8, addend: 0x0, symName: __ZNSt3__119__to_address_helperINS_16reverse_iteratorIPNS_10unique_ptrIN18MultiHeadAttention10ThreadDataENS_14default_deleteIS4_EEEEEEvE6__callB8ue170006ERKS9_, symObjAddr: 0x37830, symBinAddr: 0x10003B438, symSize: 0x44 }
  - { offsetInCU: 0x12F365, offset: 0x12F365, size: 0x8, addend: 0x0, symName: __ZNKSt3__116reverse_iteratorIPNS_10unique_ptrIN18MultiHeadAttention10ThreadDataENS_14default_deleteIS3_EEEEEptB8ue170006Ev, symObjAddr: 0x37874, symBinAddr: 0x10003B47C, symSize: 0x24 }
  - { offsetInCU: 0x12F38B, offset: 0x12F38B, size: 0x8, addend: 0x0, symName: __ZNSt3__128__exception_guard_exceptionsINS_29_AllocatorDestroyRangeReverseINS_9allocatorINS_10unique_ptrIN18MultiHeadAttention10ThreadDataENS_14default_deleteIS5_EEEEEENS_16reverse_iteratorIPS8_EEEEED2B8ue170006Ev, symObjAddr: 0x37898, symBinAddr: 0x10003B4A0, symSize: 0xBC }
  - { offsetInCU: 0x12F3B5, offset: 0x12F3B5, size: 0x8, addend: 0x0, symName: __ZNKSt3__129_AllocatorDestroyRangeReverseINS_9allocatorINS_10unique_ptrIN18MultiHeadAttention10ThreadDataENS_14default_deleteIS4_EEEEEENS_16reverse_iteratorIPS7_EEEclB8ue170006Ev, symObjAddr: 0x37954, symBinAddr: 0x10003B55C, symSize: 0x3A8 }
  - { offsetInCU: 0x12F3DC, offset: 0x12F3DC, size: 0x8, addend: 0x0, symName: __ZNSt3__116reverse_iteratorINS0_IPNS_10unique_ptrIN18MultiHeadAttention10ThreadDataENS_14default_deleteIS3_EEEEEEEC1B8ue170006ES8_, symObjAddr: 0x37D6C, symBinAddr: 0x10003B974, symSize: 0x248 }
  - { offsetInCU: 0x12F419, offset: 0x12F419, size: 0x8, addend: 0x0, symName: __ZNSt3__116allocator_traitsINS_9allocatorINS_10unique_ptrIN18MultiHeadAttention10ThreadDataENS_14default_deleteIS4_EEEEEEE7destroyB8ue170006IS7_vEEvRS8_PT_, symObjAddr: 0x38280, symBinAddr: 0x10003BE88, symSize: 0x2C }
  - { offsetInCU: 0x12F456, offset: 0x12F456, size: 0x8, addend: 0x0, symName: __ZNSt3__116reverse_iteratorINS0_IPNS_10unique_ptrIN18MultiHeadAttention10ThreadDataENS_14default_deleteIS3_EEEEEEEppB8ue170006Ev, symObjAddr: 0x382D0, symBinAddr: 0x10003BED8, symSize: 0x30 }
  - { offsetInCU: 0x12F47C, offset: 0x12F47C, size: 0x8, addend: 0x0, symName: __ZNKSt3__116reverse_iteratorINS0_IPNS_10unique_ptrIN18MultiHeadAttention10ThreadDataENS_14default_deleteIS3_EEEEEEE4baseB8ue170006Ev, symObjAddr: 0x38300, symBinAddr: 0x10003BF08, symSize: 0x20C }
  - { offsetInCU: 0x12F4A3, offset: 0x12F4A3, size: 0x8, addend: 0x0, symName: __ZNSt3__19allocatorINS_10unique_ptrIN18MultiHeadAttention10ThreadDataENS_14default_deleteIS3_EEEEE7destroyB8ue170006EPS6_, symObjAddr: 0x3850C, symBinAddr: 0x10003C114, symSize: 0x28 }
  - { offsetInCU: 0x12F4DC, offset: 0x12F4DC, size: 0x8, addend: 0x0, symName: __ZNSt3__119__to_address_helperINS_16reverse_iteratorINS1_IPNS_10unique_ptrIN18MultiHeadAttention10ThreadDataENS_14default_deleteIS4_EEEEEEEEvE6__callB8ue170006ERKSA_, symObjAddr: 0x38534, symBinAddr: 0x10003C13C, symSize: 0x44 }
  - { offsetInCU: 0x12F4FF, offset: 0x12F4FF, size: 0x8, addend: 0x0, symName: __ZNKSt3__116reverse_iteratorINS0_IPNS_10unique_ptrIN18MultiHeadAttention10ThreadDataENS_14default_deleteIS3_EEEEEEEptB8ue170006Ev, symObjAddr: 0x38578, symBinAddr: 0x10003C180, symSize: 0x24 }
  - { offsetInCU: 0x12F525, offset: 0x12F525, size: 0x8, addend: 0x0, symName: __ZNKSt3__116reverse_iteratorINS0_IPNS_10unique_ptrIN18MultiHeadAttention10ThreadDataENS_14default_deleteIS3_EEEEEEEdeB8ue170006Ev, symObjAddr: 0x3859C, symBinAddr: 0x10003C1A4, symSize: 0x1EC }
  - { offsetInCU: 0x12F55E, offset: 0x12F55E, size: 0x8, addend: 0x0, symName: __ZNSt3__116reverse_iteratorIPNS_10unique_ptrIN18MultiHeadAttention10ThreadDataENS_14default_deleteIS3_EEEEEmmB8ue170006Ev, symObjAddr: 0x38788, symBinAddr: 0x10003C390, symSize: 0x6C }
  - { offsetInCU: 0x12F584, offset: 0x12F584, size: 0x8, addend: 0x0, symName: __ZNSt3__116reverse_iteratorINS0_IPNS_10unique_ptrIN18MultiHeadAttention10ThreadDataENS_14default_deleteIS3_EEEEEEEC2B8ue170006ES8_, symObjAddr: 0x387F4, symBinAddr: 0x10003C3FC, symSize: 0x22C }
  - { offsetInCU: 0x12F5C1, offset: 0x12F5C1, size: 0x8, addend: 0x0, symName: __ZNSt3__116reverse_iteratorIPNS_10unique_ptrIN18MultiHeadAttention10ThreadDataENS_14default_deleteIS3_EEEEEC2B8ue170006ES7_, symObjAddr: 0x38A20, symBinAddr: 0x10003C628, symSize: 0xB8 }
  - { offsetInCU: 0x12F5F9, offset: 0x12F5F9, size: 0x8, addend: 0x0, symName: __ZNSt3__114__split_bufferINS_10unique_ptrIN18MultiHeadAttention10ThreadDataENS_14default_deleteIS3_EEEERNS_9allocatorIS6_EEED2Ev, symObjAddr: 0x38AD8, symBinAddr: 0x10003C6E0, symSize: 0x104 }
  - { offsetInCU: 0x12F625, offset: 0x12F625, size: 0x8, addend: 0x0, symName: __ZNSt3__114__split_bufferINS_10unique_ptrIN18MultiHeadAttention10ThreadDataENS_14default_deleteIS3_EEEERNS_9allocatorIS6_EEE5clearB8ue170006Ev, symObjAddr: 0x38BDC, symBinAddr: 0x10003C7E4, symSize: 0x68 }
  - { offsetInCU: 0x12F64B, offset: 0x12F64B, size: 0x8, addend: 0x0, symName: __ZNSt3__116allocator_traitsINS_9allocatorINS_10unique_ptrIN18MultiHeadAttention10ThreadDataENS_14default_deleteIS4_EEEEEEE10deallocateB8ue170006ERS8_PS7_m, symObjAddr: 0x38C44, symBinAddr: 0x10003C84C, symSize: 0x34 }
  - { offsetInCU: 0x12F68D, offset: 0x12F68D, size: 0x8, addend: 0x0, symName: __ZNKSt3__114__split_bufferINS_10unique_ptrIN18MultiHeadAttention10ThreadDataENS_14default_deleteIS3_EEEERNS_9allocatorIS6_EEE8capacityB8ue170006Ev, symObjAddr: 0x38C78, symBinAddr: 0x10003C880, symSize: 0xBC }
  - { offsetInCU: 0x12F6B3, offset: 0x12F6B3, size: 0x8, addend: 0x0, symName: __ZNSt3__114__split_bufferINS_10unique_ptrIN18MultiHeadAttention10ThreadDataENS_14default_deleteIS3_EEEERNS_9allocatorIS6_EEE17__destruct_at_endB8ue170006EPS6_, symObjAddr: 0x38D34, symBinAddr: 0x10003C93C, symSize: 0x2C }
  - { offsetInCU: 0x12F6E7, offset: 0x12F6E7, size: 0x8, addend: 0x0, symName: __ZNSt3__114__split_bufferINS_10unique_ptrIN18MultiHeadAttention10ThreadDataENS_14default_deleteIS3_EEEERNS_9allocatorIS6_EEE17__destruct_at_endB8ue170006EPS6_NS_17integral_constantIbLb0EEE, symObjAddr: 0x38D60, symBinAddr: 0x10003C968, symSize: 0x10C }
  - { offsetInCU: 0x12F727, offset: 0x12F727, size: 0x8, addend: 0x0, symName: __ZNSt3__19allocatorINS_10unique_ptrIN18MultiHeadAttention10ThreadDataENS_14default_deleteIS3_EEEEE10deallocateB8ue170006EPS6_m, symObjAddr: 0x38E6C, symBinAddr: 0x10003CA74, symSize: 0x4C }
  - { offsetInCU: 0x12F769, offset: 0x12F769, size: 0x8, addend: 0x0, symName: __ZNKSt3__114__split_bufferINS_10unique_ptrIN18MultiHeadAttention10ThreadDataENS_14default_deleteIS3_EEEERNS_9allocatorIS6_EEE9__end_capB8ue170006Ev, symObjAddr: 0x38EB8, symBinAddr: 0x10003CAC0, symSize: 0x28 }
  - { offsetInCU: 0x12F78F, offset: 0x12F78F, size: 0x8, addend: 0x0, symName: __ZNKSt3__117__compressed_pairIPNS_10unique_ptrIN18MultiHeadAttention10ThreadDataENS_14default_deleteIS3_EEEERNS_9allocatorIS6_EEE5firstB8ue170006Ev, symObjAddr: 0x38EE0, symBinAddr: 0x10003CAE8, symSize: 0x24 }
  - { offsetInCU: 0x12F7B5, offset: 0x12F7B5, size: 0x8, addend: 0x0, symName: __ZN18MultiHeadAttention10ThreadDataC1EiPKN5Eigen6MatrixIdLin1ELin1ELi0ELin1ELin1EEES5_S5_S5_S5_S5_dPS3_, symObjAddr: 0x38F04, symBinAddr: 0x10003CB0C, symSize: 0x80 }
  - { offsetInCU: 0x12F85D, offset: 0x12F85D, size: 0x8, addend: 0x0, symName: __ZNSt3__110unique_ptrIN18MultiHeadAttention10ThreadDataENS_14default_deleteIS2_EEEC1B8ue170006ILb1EvEEPS2_, symObjAddr: 0x38F84, symBinAddr: 0x10003CB8C, symSize: 0x34 }
  - { offsetInCU: 0x12F8A0, offset: 0x12F8A0, size: 0x8, addend: 0x0, symName: __ZN18MultiHeadAttention10ThreadDataC2EiPKN5Eigen6MatrixIdLin1ELin1ELi0ELin1ELin1EEES5_S5_S5_S5_S5_dPS3_, symObjAddr: 0x38FB8, symBinAddr: 0x10003CBC0, symSize: 0x2E8 }
  - { offsetInCU: 0x12F94C, offset: 0x12F94C, size: 0x8, addend: 0x0, symName: __ZNSt3__110unique_ptrIN18MultiHeadAttention10ThreadDataENS_14default_deleteIS2_EEEC2B8ue170006ILb1EvEEPS2_, symObjAddr: 0x392A0, symBinAddr: 0x10003CEA8, symSize: 0x260 }
  - { offsetInCU: 0x12F99A, offset: 0x12F99A, size: 0x8, addend: 0x0, symName: __ZNSt3__117__compressed_pairIPN18MultiHeadAttention10ThreadDataENS_14default_deleteIS2_EEEC1B8ue170006IRS3_NS_16__value_init_tagEEEOT_OT0_, symObjAddr: 0x39500, symBinAddr: 0x10003D108, symSize: 0x3C }
  - { offsetInCU: 0x12F9F2, offset: 0x12F9F2, size: 0x8, addend: 0x0, symName: __ZNSt3__117__compressed_pairIPN18MultiHeadAttention10ThreadDataENS_14default_deleteIS2_EEEC2B8ue170006IRS3_NS_16__value_init_tagEEEOT_OT0_, symObjAddr: 0x3953C, symBinAddr: 0x10003D144, symSize: 0x40 }
  - { offsetInCU: 0x12FA4A, offset: 0x12FA4A, size: 0x8, addend: 0x0, symName: __ZNSt3__122__compressed_pair_elemIPN18MultiHeadAttention10ThreadDataELi0ELb0EEC2B8ue170006IRS3_vEEOT_, symObjAddr: 0x3957C, symBinAddr: 0x10003D184, symSize: 0xB0 }
  - { offsetInCU: 0x12FA8C, offset: 0x12FA8C, size: 0x8, addend: 0x0, symName: __ZNSt3__122__compressed_pair_elemINS_14default_deleteIN18MultiHeadAttention10ThreadDataEEELi1ELb1EEC2B8ue170006ENS_16__value_init_tagE, symObjAddr: 0x3962C, symBinAddr: 0x10003D234, symSize: 0x14 }
  - { offsetInCU: 0x12FAC0, offset: 0x12FAC0, size: 0x8, addend: 0x0, symName: __ZNSt3__110unique_ptrIN18MultiHeadAttention10ThreadDataENS_14default_deleteIS2_EEED2B8ue170006Ev, symObjAddr: 0x39640, symBinAddr: 0x10003D248, symSize: 0x30 }
  - { offsetInCU: 0x12FAEA, offset: 0x12FAEA, size: 0x8, addend: 0x0, symName: __ZNSt3__110unique_ptrIN18MultiHeadAttention10ThreadDataENS_14default_deleteIS2_EEE5resetB8ue170006EPS2_, symObjAddr: 0x39670, symBinAddr: 0x10003D278, symSize: 0xEC }
  - { offsetInCU: 0x12FB2E, offset: 0x12FB2E, size: 0x8, addend: 0x0, symName: __ZNKSt3__114default_deleteIN18MultiHeadAttention10ThreadDataEEclB8ue170006EPS2_, symObjAddr: 0x3975C, symBinAddr: 0x10003D364, symSize: 0x44 }
  - { offsetInCU: 0x12FB62, offset: 0x12FB62, size: 0x8, addend: 0x0, symName: __ZNKSt3__117__compressed_pairIPN18MultiHeadAttention10ThreadDataENS_14default_deleteIS2_EEE5firstB8ue170006Ev, symObjAddr: 0x397A0, symBinAddr: 0x10003D3A8, symSize: 0x24 }
  - { offsetInCU: 0x12FB88, offset: 0x12FB88, size: 0x8, addend: 0x0, symName: __ZNKSt3__122__compressed_pair_elemIPN18MultiHeadAttention10ThreadDataELi0ELb0EE5__getB8ue170006Ev, symObjAddr: 0x397C4, symBinAddr: 0x10003D3CC, symSize: 0x14 }
  - { offsetInCU: 0x12FBAE, offset: 0x12FBAE, size: 0x8, addend: 0x0, symName: __ZNKSt3__16vectorIN5Eigen6MatrixIdLin1ELin1ELi0ELin1ELin1EEENS_9allocatorIS3_EEEixB8ue170006Em, symObjAddr: 0x397D8, symBinAddr: 0x10003D3E0, symSize: 0x74 }
  - { offsetInCU: 0x12FBEA, offset: 0x12FBEA, size: 0x8, addend: 0x0, symName: __ZN5Eigen6MatrixIdLin1ELin1ELi0ELin1ELin1EEC1IlmEERKT_RKT0_, symObjAddr: 0x3984C, symBinAddr: 0x10003D454, symSize: 0x3C }
  - { offsetInCU: 0x12FC44, offset: 0x12FC44, size: 0x8, addend: 0x0, symName: __ZN5Eigen9DenseBaseINS_6MatrixIdLin1ELin1ELi0ELin1ELin1EEEE5blockIllEENS3_13FixedBlockXprIXsr8internal15get_fixed_valueIT_EE5valueEXsr8internal15get_fixed_valueIT0_EE5valueEE4TypeEllS6_S7_, symObjAddr: 0x39888, symBinAddr: 0x10003D490, symSize: 0x2C8 }
  - { offsetInCU: 0x12FCBF, offset: 0x12FCBF, size: 0x8, addend: 0x0, symName: __ZN5Eigen5BlockINS_6MatrixIdLin1ELin1ELi0ELin1ELin1EEELin1ELin1ELb0EEaSIS2_EERS3_RKNS_9DenseBaseIT_EE, symObjAddr: 0x39B50, symBinAddr: 0x10003D758, symSize: 0x40 }
  - { offsetInCU: 0x12FCFC, offset: 0x12FCFC, size: 0x8, addend: 0x0, symName: __ZN5Eigen6MatrixIdLin1ELin1ELi0ELin1ELin1EEC2IlmEERKT_RKT0_, symObjAddr: 0x39B90, symBinAddr: 0x10003D798, symSize: 0xFC }
  - { offsetInCU: 0x12FD5B, offset: 0x12FD5B, size: 0x8, addend: 0x0, symName: __ZN5Eigen15PlainObjectBaseINS_6MatrixIdLin1ELin1ELi0ELin1ELin1EEEE6_init2IlmEEvllPNS_8internal9enable_ifILb1ET_E4typeE, symObjAddr: 0x39C8C, symBinAddr: 0x10003D894, symSize: 0x44 }
  - { offsetInCU: 0x12FDDA, offset: 0x12FDDA, size: 0x8, addend: 0x0, symName: __ZN5Eigen5BlockINS_6MatrixIdLin1ELin1ELi0ELin1ELin1EEELin1ELin1ELb0EEC1ERS2_llll, symObjAddr: 0x39D30, symBinAddr: 0x10003D938, symSize: 0x54 }
  - { offsetInCU: 0x12FE4A, offset: 0x12FE4A, size: 0x8, addend: 0x0, symName: __ZN5Eigen5BlockINS_6MatrixIdLin1ELin1ELi0ELin1ELin1EEELin1ELin1ELb0EEC2ERS2_llll, symObjAddr: 0x39D84, symBinAddr: 0x10003D98C, symSize: 0x158 }
  - { offsetInCU: 0x12FEBA, offset: 0x12FEBA, size: 0x8, addend: 0x0, symName: __ZN5Eigen9BlockImplINS_6MatrixIdLin1ELin1ELi0ELin1ELin1EEELin1ELin1ELb0ENS_5DenseEEC2ERS2_llll, symObjAddr: 0x39EDC, symBinAddr: 0x10003DAE4, symSize: 0x54 }
  - { offsetInCU: 0x12FF2A, offset: 0x12FF2A, size: 0x8, addend: 0x0, symName: __ZN5Eigen8internal15BlockImpl_denseINS_6MatrixIdLin1ELin1ELi0ELin1ELin1EEELin1ELin1ELb0ELb1EEC2ERS3_llll, symObjAddr: 0x39F30, symBinAddr: 0x10003DB38, symSize: 0x110 }
  - { offsetInCU: 0x12FF9F, offset: 0x12FF9F, size: 0x8, addend: 0x0, symName: __ZN5Eigen15PlainObjectBaseINS_6MatrixIdLin1ELin1ELi0ELin1ELin1EEEE4dataEv, symObjAddr: 0x3A040, symBinAddr: 0x10003DC48, symSize: 0x24 }
  - { offsetInCU: 0x12FFC5, offset: 0x12FFC5, size: 0x8, addend: 0x0, symName: __ZNK5Eigen6MatrixIdLin1ELin1ELi0ELin1ELin1EE11innerStrideEv, symObjAddr: 0x3A064, symBinAddr: 0x10003DC6C, symSize: 0x14 }
  - { offsetInCU: 0x12FFEB, offset: 0x12FFEB, size: 0x8, addend: 0x0, symName: __ZN5Eigen7MapBaseINS_5BlockINS_6MatrixIdLin1ELin1ELi0ELin1ELin1EEELin1ELin1ELb0EEELi1EEC2EPdll, symObjAddr: 0x3A078, symBinAddr: 0x10003DC80, symSize: 0x44 }
  - { offsetInCU: 0x130042, offset: 0x130042, size: 0x8, addend: 0x0, symName: __ZN5Eigen8internal19variable_if_dynamicIlLin1EEC1El, symObjAddr: 0x3A0BC, symBinAddr: 0x10003DCC4, symSize: 0x34 }
  - { offsetInCU: 0x13007A, offset: 0x13007A, size: 0x8, addend: 0x0, symName: __ZN5Eigen8internal15BlockImpl_denseINS_6MatrixIdLin1ELin1ELi0ELin1ELin1EEELin1ELin1ELb0ELb1EE4initEv, symObjAddr: 0x3A0F0, symBinAddr: 0x10003DCF8, symSize: 0xB0 }
  - { offsetInCU: 0x1300A0, offset: 0x1300A0, size: 0x8, addend: 0x0, symName: __ZN5Eigen12DenseStorageIdLin1ELin1ELin1ELi0EE4dataEv, symObjAddr: 0x3A1A0, symBinAddr: 0x10003DDA8, symSize: 0x60 }
  - { offsetInCU: 0x1300C6, offset: 0x1300C6, size: 0x8, addend: 0x0, symName: __ZN5Eigen7MapBaseINS_5BlockINS_6MatrixIdLin1ELin1ELi0ELin1ELin1EEELin1ELin1ELb0EEELi0EEC2EPdll, symObjAddr: 0x3A200, symBinAddr: 0x10003DE08, symSize: 0x15C }
  - { offsetInCU: 0x13011A, offset: 0x13011A, size: 0x8, addend: 0x0, symName: __ZN5Eigen10MatrixBaseINS_5BlockINS_6MatrixIdLin1ELin1ELi0ELin1ELin1EEELin1ELin1ELb0EEEEC2Ev, symObjAddr: 0x3A35C, symBinAddr: 0x10003DF64, symSize: 0x2C }
  - { offsetInCU: 0x130144, offset: 0x130144, size: 0x8, addend: 0x0, symName: __ZNK5Eigen7MapBaseINS_5BlockINS_6MatrixIdLin1ELin1ELi0ELin1ELin1EEELin1ELin1ELb0EEELi0EE11checkSanityIS4_EEvNS_8internal9enable_ifIXeqsr8internal6traitsIT_EE9AlignmentLi0EEPvE4typeE, symObjAddr: 0x3A388, symBinAddr: 0x10003DF90, symSize: 0x14 }
  - { offsetInCU: 0x13017D, offset: 0x13017D, size: 0x8, addend: 0x0, symName: __ZN5Eigen9DenseBaseINS_5BlockINS_6MatrixIdLin1ELin1ELi0ELin1ELin1EEELin1ELin1ELb0EEEEC2Ev, symObjAddr: 0x3A39C, symBinAddr: 0x10003DFA4, symSize: 0x14 }
  - { offsetInCU: 0x1301A7, offset: 0x1301A7, size: 0x8, addend: 0x0, symName: __ZN5Eigen8internal19variable_if_dynamicIlLin1EEC2El, symObjAddr: 0x3A3B0, symBinAddr: 0x10003DFB8, symSize: 0x70 }
  - { offsetInCU: 0x1301DF, offset: 0x1301DF, size: 0x8, addend: 0x0, symName: __ZN5Eigen9BlockImplINS_6MatrixIdLin1ELin1ELi0ELin1ELin1EEELin1ELin1ELb0ENS_5DenseEEaSIS2_EERS4_RKNS_9DenseBaseIT_EE, symObjAddr: 0x3A420, symBinAddr: 0x10003E028, symSize: 0x40 }
  - { offsetInCU: 0x13021C, offset: 0x13021C, size: 0x8, addend: 0x0, symName: __ZN5Eigen8internal15BlockImpl_denseINS_6MatrixIdLin1ELin1ELi0ELin1ELin1EEELin1ELin1ELb0ELb1EEaSIS3_EERS4_RKNS_9DenseBaseIT_EE, symObjAddr: 0x3A460, symBinAddr: 0x10003E068, symSize: 0x40 }
  - { offsetInCU: 0x13025A, offset: 0x13025A, size: 0x8, addend: 0x0, symName: __ZN5Eigen10MatrixBaseINS_5BlockINS_6MatrixIdLin1ELin1ELi0ELin1ELin1EEELin1ELin1ELb0EEEEaSIS3_EERS4_RKNS_9DenseBaseIT_EE, symObjAddr: 0x3A4A0, symBinAddr: 0x10003E0A8, symSize: 0x4C }
  - { offsetInCU: 0x130299, offset: 0x130299, size: 0x8, addend: 0x0, symName: __ZN5Eigen9EigenBaseINS_5BlockINS_6MatrixIdLin1ELin1ELi0ELin1ELin1EEELin1ELin1ELb0EEEE7derivedEv, symObjAddr: 0x3A6E4, symBinAddr: 0x10003E2EC, symSize: 0x14 }
  - { offsetInCU: 0x1302BF, offset: 0x1302BF, size: 0x8, addend: 0x0, symName: __ZN5Eigen8internal10AssignmentINS_5BlockINS_6MatrixIdLin1ELin1ELi0ELin1ELin1EEELin1ELin1ELb0EEES4_NS0_9assign_opIddEENS0_11Dense2DenseEvE3runERS5_RKS4_RKS7_, symObjAddr: 0x3A76C, symBinAddr: 0x10003E374, symSize: 0x40 }
  - { offsetInCU: 0x130301, offset: 0x130301, size: 0x8, addend: 0x0, symName: __ZNK5Eigen7MapBaseINS_5BlockINS_6MatrixIdLin1ELin1ELi0ELin1ELin1EEELin1ELin1ELb0EEELi0EE4rowsEv, symObjAddr: 0x3AC30, symBinAddr: 0x10003E838, symSize: 0x28 }
  - { offsetInCU: 0x130327, offset: 0x130327, size: 0x8, addend: 0x0, symName: __ZNK5Eigen7MapBaseINS_5BlockINS_6MatrixIdLin1ELin1ELi0ELin1ELin1EEELin1ELin1ELb0EEELi0EE4colsEv, symObjAddr: 0x3AC58, symBinAddr: 0x10003E860, symSize: 0x28 }
  - { offsetInCU: 0x13034D, offset: 0x13034D, size: 0x8, addend: 0x0, symName: __ZN5Eigen8internal27checkTransposeAliasing_implINS_5BlockINS_6MatrixIdLin1ELin1ELi0ELin1ELin1EEELin1ELin1ELb0EEES4_Lb0EE3runERKS5_RKS4_, symObjAddr: 0x3AC80, symBinAddr: 0x10003E888, symSize: 0x14 }
  - { offsetInCU: 0x130378, offset: 0x130378, size: 0x8, addend: 0x0, symName: __ZN5Eigen8internal9evaluatorINS_5BlockINS_6MatrixIdLin1ELin1ELi0ELin1ELin1EEELin1ELin1ELb0EEEEC1ERKS5_, symObjAddr: 0x3AD90, symBinAddr: 0x10003E998, symSize: 0x34 }
  - { offsetInCU: 0x1303B1, offset: 0x1303B1, size: 0x8, addend: 0x0, symName: __ZNK5Eigen9EigenBaseINS_5BlockINS_6MatrixIdLin1ELin1ELi0ELin1ELin1EEELin1ELin1ELb0EEEE18const_cast_derivedEv, symObjAddr: 0x3ADC4, symBinAddr: 0x10003E9CC, symSize: 0x14 }
  - { offsetInCU: 0x1303D7, offset: 0x1303D7, size: 0x8, addend: 0x0, symName: __ZN5Eigen8internal31generic_dense_assignment_kernelINS0_9evaluatorINS_5BlockINS_6MatrixIdLin1ELin1ELi0ELin1ELin1EEELin1ELin1ELb0EEEEENS2_IS5_EENS0_9assign_opIddEELi0EEC1ERS7_RKS8_RKSA_RS6_, symObjAddr: 0x3ADD8, symBinAddr: 0x10003E9E0, symSize: 0x4C }
  - { offsetInCU: 0x13043D, offset: 0x13043D, size: 0x8, addend: 0x0, symName: __ZN5Eigen8internal9evaluatorINS_5BlockINS_6MatrixIdLin1ELin1ELi0ELin1ELin1EEELin1ELin1ELb0EEEED1Ev, symObjAddr: 0x3B3D8, symBinAddr: 0x10003EFE0, symSize: 0x2C }
  - { offsetInCU: 0x13046A, offset: 0x13046A, size: 0x8, addend: 0x0, symName: __ZN5Eigen9DenseBaseINS_5BlockINS_6MatrixIdLin1ELin1ELi0ELin1ELin1EEELin1ELin1ELb0EEEE6resizeEll, symObjAddr: 0x3B404, symBinAddr: 0x10003F00C, symSize: 0xC0 }
  - { offsetInCU: 0x1304AE, offset: 0x1304AE, size: 0x8, addend: 0x0, symName: __ZNK5Eigen9EigenBaseINS_5BlockINS_6MatrixIdLin1ELin1ELi0ELin1ELin1EEELin1ELin1ELb0EEEE4rowsEv, symObjAddr: 0x3B4C4, symBinAddr: 0x10003F0CC, symSize: 0x44 }
  - { offsetInCU: 0x1304D4, offset: 0x1304D4, size: 0x8, addend: 0x0, symName: __ZNK5Eigen9EigenBaseINS_5BlockINS_6MatrixIdLin1ELin1ELi0ELin1ELin1EEELin1ELin1ELb0EEEE4colsEv, symObjAddr: 0x3B508, symBinAddr: 0x10003F110, symSize: 0x28 }
  - { offsetInCU: 0x1304FA, offset: 0x1304FA, size: 0x8, addend: 0x0, symName: __ZNK5Eigen9EigenBaseINS_5BlockINS_6MatrixIdLin1ELin1ELi0ELin1ELin1EEELin1ELin1ELb0EEEE7derivedEv, symObjAddr: 0x3B530, symBinAddr: 0x10003F138, symSize: 0x14 }
  - { offsetInCU: 0x130520, offset: 0x130520, size: 0x8, addend: 0x0, symName: __ZN5Eigen8internal9evaluatorINS_5BlockINS_6MatrixIdLin1ELin1ELi0ELin1ELin1EEELin1ELin1ELb0EEEEC2ERKS5_, symObjAddr: 0x3B544, symBinAddr: 0x10003F14C, symSize: 0x34 }
  - { offsetInCU: 0x130559, offset: 0x130559, size: 0x8, addend: 0x0, symName: __ZN5Eigen8internal15block_evaluatorINS_6MatrixIdLin1ELin1ELi0ELin1ELin1EEELin1ELin1ELb0ELb1EEC2ERKNS_5BlockIS3_Lin1ELin1ELb0EEE, symObjAddr: 0x3B578, symBinAddr: 0x10003F180, symSize: 0xE0 }
  - { offsetInCU: 0x130592, offset: 0x130592, size: 0x8, addend: 0x0, symName: __ZN5Eigen8internal17mapbase_evaluatorINS_5BlockINS_6MatrixIdLin1ELin1ELi0ELin1ELin1EEELin1ELin1ELb0EEES4_EC2ERKS5_, symObjAddr: 0x3B658, symBinAddr: 0x10003F260, symSize: 0xF0 }
  - { offsetInCU: 0x1305CB, offset: 0x1305CB, size: 0x8, addend: 0x0, symName: __ZNK5Eigen7MapBaseINS_5BlockINS_6MatrixIdLin1ELin1ELi0ELin1ELin1EEELin1ELin1ELb0EEELi1EE4dataEv, symObjAddr: 0x3B748, symBinAddr: 0x10003F350, symSize: 0x60 }
  - { offsetInCU: 0x1305F1, offset: 0x1305F1, size: 0x8, addend: 0x0, symName: __ZN5Eigen8internal17mapbase_evaluatorINS_5BlockINS_6MatrixIdLin1ELin1ELi0ELin1ELin1EEELin1ELin1ELb0EEES4_ED2Ev, symObjAddr: 0x3B7A8, symBinAddr: 0x10003F3B0, symSize: 0x2C }
  - { offsetInCU: 0x13061E, offset: 0x13061E, size: 0x8, addend: 0x0, symName: __ZN5Eigen8internal14evaluator_baseINS_5BlockINS_6MatrixIdLin1ELin1ELi0ELin1ELin1EEELin1ELin1ELb0EEEEC2Ev, symObjAddr: 0x3B7D4, symBinAddr: 0x10003F3DC, symSize: 0x14 }
  - { offsetInCU: 0x130648, offset: 0x130648, size: 0x8, addend: 0x0, symName: __ZNK5Eigen8internal15BlockImpl_denseINS_6MatrixIdLin1ELin1ELi0ELin1ELin1EEELin1ELin1ELb0ELb1EE11innerStrideEv, symObjAddr: 0x3B7E8, symBinAddr: 0x10003F3F0, symSize: 0x68 }
  - { offsetInCU: 0x13066E, offset: 0x13066E, size: 0x8, addend: 0x0, symName: __ZN5Eigen8internal19variable_if_dynamicIlLi1EEC1El, symObjAddr: 0x3B850, symBinAddr: 0x10003F458, symSize: 0x34 }
  - { offsetInCU: 0x1306A6, offset: 0x1306A6, size: 0x8, addend: 0x0, symName: __ZNK5Eigen8internal15BlockImpl_denseINS_6MatrixIdLin1ELin1ELi0ELin1ELin1EEELin1ELin1ELb0ELb1EE11outerStrideEv, symObjAddr: 0x3B884, symBinAddr: 0x10003F48C, symSize: 0x68 }
  - { offsetInCU: 0x1306CC, offset: 0x1306CC, size: 0x8, addend: 0x0, symName: __ZN5Eigen8internal14evaluator_baseINS_5BlockINS_6MatrixIdLin1ELin1ELi0ELin1ELin1EEELin1ELin1ELb0EEEED2Ev, symObjAddr: 0x3B8EC, symBinAddr: 0x10003F4F4, symSize: 0x14 }
  - { offsetInCU: 0x1306F6, offset: 0x1306F6, size: 0x8, addend: 0x0, symName: __ZN5Eigen8internal19variable_if_dynamicIlLi1EEC2El, symObjAddr: 0x3B900, symBinAddr: 0x10003F508, symSize: 0x68 }
  - { offsetInCU: 0x13072E, offset: 0x13072E, size: 0x8, addend: 0x0, symName: __ZN5Eigen8internal31generic_dense_assignment_kernelINS0_9evaluatorINS_5BlockINS_6MatrixIdLin1ELin1ELi0ELin1ELin1EEELin1ELin1ELb0EEEEENS2_IS5_EENS0_9assign_opIddEELi0EEC2ERS7_RKS8_RKSA_RS6_, symObjAddr: 0x3B968, symBinAddr: 0x10003F570, symSize: 0x14C }
  - { offsetInCU: 0x130794, offset: 0x130794, size: 0x8, addend: 0x0, symName: __ZNK5Eigen8internal31generic_dense_assignment_kernelINS0_9evaluatorINS_5BlockINS_6MatrixIdLin1ELin1ELi0ELin1ELin1EEELin1ELin1ELb0EEEEENS2_IS5_EENS0_9assign_opIddEELi0EE10dstDataPtrEv, symObjAddr: 0x3BAB4, symBinAddr: 0x10003F6BC, symSize: 0x68 }
  - { offsetInCU: 0x1307BA, offset: 0x1307BA, size: 0x8, addend: 0x0, symName: __ZN5Eigen8internal21dense_assignment_loopINS0_31generic_dense_assignment_kernelINS0_9evaluatorINS_5BlockINS_6MatrixIdLin1ELin1ELi0ELin1ELin1EEELin1ELin1ELb0EEEEENS3_IS6_EENS0_9assign_opIddEELi0EEELi0ELi0EE3runERSC_, symObjAddr: 0x3BB1C, symBinAddr: 0x10003F724, symSize: 0xC4 }
  - { offsetInCU: 0x130818, offset: 0x130818, size: 0x8, addend: 0x0, symName: __ZNK5Eigen8internal31generic_dense_assignment_kernelINS0_9evaluatorINS_5BlockINS_6MatrixIdLin1ELin1ELi0ELin1ELin1EEELin1ELin1ELb0EEEEENS2_IS5_EENS0_9assign_opIddEELi0EE9innerSizeEv, symObjAddr: 0x3BBE0, symBinAddr: 0x10003F7E8, symSize: 0x84 }
  - { offsetInCU: 0x13083E, offset: 0x13083E, size: 0x8, addend: 0x0, symName: __ZNK5Eigen8internal31generic_dense_assignment_kernelINS0_9evaluatorINS_5BlockINS_6MatrixIdLin1ELin1ELi0ELin1ELin1EEELin1ELin1ELb0EEEEENS2_IS5_EENS0_9assign_opIddEELi0EE9outerSizeEv, symObjAddr: 0x3BC64, symBinAddr: 0x10003F86C, symSize: 0x84 }
  - { offsetInCU: 0x130864, offset: 0x130864, size: 0x8, addend: 0x0, symName: __ZNK5Eigen8internal31generic_dense_assignment_kernelINS0_9evaluatorINS_5BlockINS_6MatrixIdLin1ELin1ELi0ELin1ELin1EEELin1ELin1ELb0EEEEENS2_IS5_EENS0_9assign_opIddEELi0EE11outerStrideEv, symObjAddr: 0x3BCE8, symBinAddr: 0x10003F8F0, symSize: 0x68 }
  - { offsetInCU: 0x13088A, offset: 0x13088A, size: 0x8, addend: 0x0, symName: __ZN5Eigen8internal31generic_dense_assignment_kernelINS0_9evaluatorINS_5BlockINS_6MatrixIdLin1ELin1ELi0ELin1ELin1EEELin1ELin1ELb0EEEEENS2_IS5_EENS0_9assign_opIddEELi0EE23assignCoeffByOuterInnerEll, symObjAddr: 0x3BE0C, symBinAddr: 0x10003FA14, symSize: 0x60 }
  - { offsetInCU: 0x1308EC, offset: 0x1308EC, size: 0x8, addend: 0x0, symName: __ZN5Eigen8internal31generic_dense_assignment_kernelINS0_9evaluatorINS_5BlockINS_6MatrixIdLin1ELin1ELi0ELin1ELin1EEELin1ELin1ELb0EEEEENS2_IS5_EENS0_9assign_opIddEELi0EE24assignPacketByOuterInnerILi16ELi0E19__simd128_float64_tEEvll, symObjAddr: 0x3BE6C, symBinAddr: 0x10003FA74, symSize: 0x60 }
  - { offsetInCU: 0x13096B, offset: 0x13096B, size: 0x8, addend: 0x0, symName: __ZN5Eigen7MapBaseINS_5BlockINS_6MatrixIdLin1ELin1ELi0ELin1ELin1EEELin1ELin1ELb0EEELi1EE4dataEv, symObjAddr: 0x3BECC, symBinAddr: 0x10003FAD4, symSize: 0x60 }
  - { offsetInCU: 0x130991, offset: 0x130991, size: 0x8, addend: 0x0, symName: __ZNK5Eigen9DenseBaseINS_5BlockINS_6MatrixIdLin1ELin1ELi0ELin1ELin1EEELin1ELin1ELb0EEEE9innerSizeEv, symObjAddr: 0x3BF2C, symBinAddr: 0x10003FB34, symSize: 0x24 }
  - { offsetInCU: 0x1309B7, offset: 0x1309B7, size: 0x8, addend: 0x0, symName: __ZNK5Eigen9DenseBaseINS_5BlockINS_6MatrixIdLin1ELin1ELi0ELin1ELin1EEELin1ELin1ELb0EEEE9outerSizeEv, symObjAddr: 0x3BF50, symBinAddr: 0x10003FB58, symSize: 0x24 }
  - { offsetInCU: 0x1309DD, offset: 0x1309DD, size: 0x8, addend: 0x0, symName: __ZN5Eigen8internal31generic_dense_assignment_kernelINS0_9evaluatorINS_5BlockINS_6MatrixIdLin1ELin1ELi0ELin1ELin1EEELin1ELin1ELb0EEEEENS2_IS5_EENS0_9assign_opIddEELi0EE20rowIndexByOuterInnerEll, symObjAddr: 0x3BF74, symBinAddr: 0x10003FB7C, symSize: 0x18 }
  - { offsetInCU: 0x130A10, offset: 0x130A10, size: 0x8, addend: 0x0, symName: __ZN5Eigen8internal31generic_dense_assignment_kernelINS0_9evaluatorINS_5BlockINS_6MatrixIdLin1ELin1ELi0ELin1ELin1EEELin1ELin1ELb0EEEEENS2_IS5_EENS0_9assign_opIddEELi0EE20colIndexByOuterInnerEll, symObjAddr: 0x3BF8C, symBinAddr: 0x10003FB94, symSize: 0x18 }
  - { offsetInCU: 0x130A43, offset: 0x130A43, size: 0x8, addend: 0x0, symName: __ZN5Eigen8internal31generic_dense_assignment_kernelINS0_9evaluatorINS_5BlockINS_6MatrixIdLin1ELin1ELi0ELin1ELin1EEELin1ELin1ELb0EEEEENS2_IS5_EENS0_9assign_opIddEELi0EE11assignCoeffEll, symObjAddr: 0x3BFA4, symBinAddr: 0x10003FBAC, symSize: 0x110 }
  - { offsetInCU: 0x130A87, offset: 0x130A87, size: 0x8, addend: 0x0, symName: __ZN5Eigen8internal17mapbase_evaluatorINS_5BlockINS_6MatrixIdLin1ELin1ELi0ELin1ELin1EEELin1ELin1ELb0EEES4_E8coeffRefEll, symObjAddr: 0x3C0B4, symBinAddr: 0x10003FCBC, symSize: 0xB0 }
  - { offsetInCU: 0x130ACB, offset: 0x130ACB, size: 0x8, addend: 0x0, symName: __ZNK5Eigen8internal9evaluatorINS_15PlainObjectBaseINS_6MatrixIdLin1ELin1ELi0ELin1ELin1EEEEEE5coeffEll, symObjAddr: 0x3C164, symBinAddr: 0x10003FD6C, symSize: 0x98 }
  - { offsetInCU: 0x130B0D, offset: 0x130B0D, size: 0x8, addend: 0x0, symName: __ZNK5Eigen8internal17mapbase_evaluatorINS_5BlockINS_6MatrixIdLin1ELin1ELi0ELin1ELin1EEELin1ELin1ELb0EEES4_E9colStrideEv, symObjAddr: 0x3C1FC, symBinAddr: 0x10003FE04, symSize: 0x28 }
  - { offsetInCU: 0x130B33, offset: 0x130B33, size: 0x8, addend: 0x0, symName: __ZNK5Eigen8internal17mapbase_evaluatorINS_5BlockINS_6MatrixIdLin1ELin1ELi0ELin1ELin1EEELin1ELin1ELb0EEES4_E9rowStrideEv, symObjAddr: 0x3C224, symBinAddr: 0x10003FE2C, symSize: 0x20 }
  - { offsetInCU: 0x130B59, offset: 0x130B59, size: 0x8, addend: 0x0, symName: __ZNK5Eigen8internal30plainobjectbase_evaluator_dataIdLin1EE11outerStrideEv, symObjAddr: 0x3C244, symBinAddr: 0x10003FE4C, symSize: 0x64 }
  - { offsetInCU: 0x130B7F, offset: 0x130B7F, size: 0x8, addend: 0x0, symName: __ZN5Eigen8internal31generic_dense_assignment_kernelINS0_9evaluatorINS_5BlockINS_6MatrixIdLin1ELin1ELi0ELin1ELin1EEELin1ELin1ELb0EEEEENS2_IS5_EENS0_9assign_opIddEELi0EE12assignPacketILi16ELi0E19__simd128_float64_tEEvll, symObjAddr: 0x3C2A8, symBinAddr: 0x10003FEB0, symSize: 0x2EC }
  - { offsetInCU: 0x130BE3, offset: 0x130BE3, size: 0x8, addend: 0x0, symName: __ZNK5Eigen8internal9assign_opIddE12assignPacketILi16E19__simd128_float64_tEEvPdRKT0_, symObjAddr: 0x3C594, symBinAddr: 0x10004019C, symSize: 0x40 }
  - { offsetInCU: 0x130C67, offset: 0x130C67, size: 0x8, addend: 0x0, symName: __ZNK5Eigen8internal9evaluatorINS_15PlainObjectBaseINS_6MatrixIdLin1ELin1ELi0ELin1ELin1EEEEEE6packetILi0E19__simd128_float64_tEET0_ll, symObjAddr: 0x3C5D4, symBinAddr: 0x1000401DC, symSize: 0x9C }
  - { offsetInCU: 0x130CD9, offset: 0x130CD9, size: 0x8, addend: 0x0, symName: __ZNKSt3__16__lessIvvEclB8ue170006IllEEbRKT_RKT0_, symObjAddr: 0x3C9A8, symBinAddr: 0x1000405B0, symSize: 0xBC }
  - { offsetInCU: 0x130D2D, offset: 0x130D2D, size: 0x8, addend: 0x0, symName: __ZN5Eigen8internal9evaluatorINS_5BlockINS_6MatrixIdLin1ELin1ELi0ELin1ELin1EEELin1ELin1ELb0EEEED2Ev, symObjAddr: 0x3CA64, symBinAddr: 0x10004066C, symSize: 0x2C }
  - { offsetInCU: 0x130D5A, offset: 0x130D5A, size: 0x8, addend: 0x0, symName: __ZN5Eigen8internal15block_evaluatorINS_6MatrixIdLin1ELin1ELi0ELin1ELin1EEELin1ELin1ELb0ELb1EED2Ev, symObjAddr: 0x3CA90, symBinAddr: 0x100040698, symSize: 0x2C }
  - { offsetInCU: 0x130D87, offset: 0x130D87, size: 0x8, addend: 0x0, symName: __ZNSt3__16vectorINS_10unique_ptrIN18MultiHeadAttention10ThreadDataENS_14default_deleteIS3_EEEENS_9allocatorIS6_EEED2B8ue170006Ev, symObjAddr: 0x3CABC, symBinAddr: 0x1000406C4, symSize: 0x1F8 }
  - { offsetInCU: 0x130DB2, offset: 0x130DB2, size: 0x8, addend: 0x0, symName: __ZNSt3__16vectorINS_10unique_ptrIN18MultiHeadAttention10ThreadDataENS_14default_deleteIS3_EEEENS_9allocatorIS6_EEE16__destroy_vectorC1B8ue170006ERS9_, symObjAddr: 0x3CCB4, symBinAddr: 0x1000408BC, symSize: 0x34 }
  - { offsetInCU: 0x130DEB, offset: 0x130DEB, size: 0x8, addend: 0x0, symName: __ZNSt3__16vectorINS_10unique_ptrIN18MultiHeadAttention10ThreadDataENS_14default_deleteIS3_EEEENS_9allocatorIS6_EEE16__destroy_vectorclB8ue170006Ev, symObjAddr: 0x3CCE8, symBinAddr: 0x1000408F0, symSize: 0x228 }
  - { offsetInCU: 0x130E11, offset: 0x130E11, size: 0x8, addend: 0x0, symName: __ZNSt3__16vectorINS_10unique_ptrIN18MultiHeadAttention10ThreadDataENS_14default_deleteIS3_EEEENS_9allocatorIS6_EEE16__destroy_vectorC2B8ue170006ERS9_, symObjAddr: 0x3CF10, symBinAddr: 0x100040B18, symSize: 0x70 }
  - { offsetInCU: 0x130E4A, offset: 0x130E4A, size: 0x8, addend: 0x0, symName: __ZNSt3__16vectorINS_10unique_ptrIN18MultiHeadAttention10ThreadDataENS_14default_deleteIS3_EEEENS_9allocatorIS6_EEE7__clearB8ue170006Ev, symObjAddr: 0x3CF80, symBinAddr: 0x100040B88, symSize: 0x64 }
  - { offsetInCU: 0x130E70, offset: 0x130E70, size: 0x8, addend: 0x0, symName: __ZNSt3__16vectorINS_10unique_ptrIN18MultiHeadAttention10ThreadDataENS_14default_deleteIS3_EEEENS_9allocatorIS6_EEE22__base_destruct_at_endB8ue170006EPS6_, symObjAddr: 0x3CFE4, symBinAddr: 0x100040BEC, symSize: 0x114 }
  - { offsetInCU: 0x130EB4, offset: 0x130EB4, size: 0x8, addend: 0x0, symName: __ZNSt3__16vectorIP17_opaque_pthread_tNS_9allocatorIS2_EEED2B8ue170006Ev, symObjAddr: 0x3D0F8, symBinAddr: 0x100040D00, symSize: 0x1F4 }
  - { offsetInCU: 0x130EDF, offset: 0x130EDF, size: 0x8, addend: 0x0, symName: __ZN5Eigen8internal13scalar_sum_opIddEC1Ev, symObjAddr: 0x3D2EC, symBinAddr: 0x100040EF4, symSize: 0x2C }
  - { offsetInCU: 0x130F09, offset: 0x130F09, size: 0x8, addend: 0x0, symName: __ZN5Eigen13CwiseBinaryOpINS_8internal13scalar_sum_opIddEEKNS_6MatrixIdLin1ELin1ELi0ELin1ELin1EEES6_EC1ERS6_S8_RKS3_, symObjAddr: 0x3D318, symBinAddr: 0x100040F20, symSize: 0x44 }
  - { offsetInCU: 0x130F5D, offset: 0x130F5D, size: 0x8, addend: 0x0, symName: __ZN5Eigen8internal13scalar_sum_opIddEC2Ev, symObjAddr: 0x3D35C, symBinAddr: 0x100040F64, symSize: 0x14 }
  - { offsetInCU: 0x130F87, offset: 0x130F87, size: 0x8, addend: 0x0, symName: __ZN5Eigen13CwiseBinaryOpINS_8internal13scalar_sum_opIddEEKNS_6MatrixIdLin1ELin1ELi0ELin1ELin1EEES6_EC2ERS6_S8_RKS3_, symObjAddr: 0x3D370, symBinAddr: 0x100040F78, symSize: 0x178 }
  - { offsetInCU: 0x130FE0, offset: 0x130FE0, size: 0x8, addend: 0x0, symName: __ZN5Eigen17CwiseBinaryOpImplINS_8internal13scalar_sum_opIddEEKNS_6MatrixIdLin1ELin1ELi0ELin1ELin1EEES6_NS_5DenseEEC2Ev, symObjAddr: 0x3D4E8, symBinAddr: 0x1000410F0, symSize: 0x2C }
  - { offsetInCU: 0x13100C, offset: 0x13100C, size: 0x8, addend: 0x0, symName: __ZN5Eigen8internal13scalar_sum_opIddEC1ERKS2_, symObjAddr: 0x3D514, symBinAddr: 0x10004111C, symSize: 0x34 }
  - { offsetInCU: 0x131040, offset: 0x131040, size: 0x8, addend: 0x0, symName: __ZN5Eigen10MatrixBaseINS_13CwiseBinaryOpINS_8internal13scalar_sum_opIddEEKNS_6MatrixIdLin1ELin1ELi0ELin1ELin1EEES7_EEEC2Ev, symObjAddr: 0x3D548, symBinAddr: 0x100041150, symSize: 0x2C }
  - { offsetInCU: 0x13106A, offset: 0x13106A, size: 0x8, addend: 0x0, symName: __ZN5Eigen9DenseBaseINS_13CwiseBinaryOpINS_8internal13scalar_sum_opIddEEKNS_6MatrixIdLin1ELin1ELi0ELin1ELin1EEES7_EEEC2Ev, symObjAddr: 0x3D574, symBinAddr: 0x10004117C, symSize: 0x14 }
  - { offsetInCU: 0x131094, offset: 0x131094, size: 0x8, addend: 0x0, symName: __ZN5Eigen8internal13scalar_sum_opIddEC2ERKS2_, symObjAddr: 0x3D588, symBinAddr: 0x100041190, symSize: 0x18 }
  - { offsetInCU: 0x1310C8, offset: 0x1310C8, size: 0x8, addend: 0x0, symName: __ZN5Eigen6MatrixIdLin1ELin1ELi0ELin1ELin1EEC2INS_13CwiseBinaryOpINS_8internal13scalar_sum_opIddEEKS1_S7_EEEERKNS_9EigenBaseIT_EE, symObjAddr: 0x3D5A0, symBinAddr: 0x1000411A8, symSize: 0x40 }
  - { offsetInCU: 0x13110A, offset: 0x13110A, size: 0x8, addend: 0x0, symName: __ZNK5Eigen9EigenBaseINS_13CwiseBinaryOpINS_8internal13scalar_sum_opIddEEKNS_6MatrixIdLin1ELin1ELi0ELin1ELin1EEES7_EEE7derivedEv, symObjAddr: 0x3D5E0, symBinAddr: 0x1000411E8, symSize: 0x14 }
  - { offsetInCU: 0x131130, offset: 0x131130, size: 0x8, addend: 0x0, symName: __ZN5Eigen15PlainObjectBaseINS_6MatrixIdLin1ELin1ELi0ELin1ELin1EEEEC2INS_13CwiseBinaryOpINS_8internal13scalar_sum_opIddEEKS2_S9_EEEERKNS_9DenseBaseIT_EE, symObjAddr: 0x3D5F4, symBinAddr: 0x1000411FC, symSize: 0x80 }
  - { offsetInCU: 0x131172, offset: 0x131172, size: 0x8, addend: 0x0, symName: __ZN5Eigen15PlainObjectBaseINS_6MatrixIdLin1ELin1ELi0ELin1ELin1EEEE10resizeLikeINS_13CwiseBinaryOpINS_8internal13scalar_sum_opIddEEKS2_S9_EEEEvRKNS_9EigenBaseIT_EE, symObjAddr: 0x3D674, symBinAddr: 0x10004127C, symSize: 0x11C }
  - { offsetInCU: 0x131206, offset: 0x131206, size: 0x8, addend: 0x0, symName: __ZN5Eigen15PlainObjectBaseINS_6MatrixIdLin1ELin1ELi0ELin1ELin1EEEE12_set_noaliasINS_13CwiseBinaryOpINS_8internal13scalar_sum_opIddEEKS2_S9_EEEERS2_RKNS_9DenseBaseIT_EE, symObjAddr: 0x3D790, symBinAddr: 0x100041398, symSize: 0x21C }
  - { offsetInCU: 0x131246, offset: 0x131246, size: 0x8, addend: 0x0, symName: __ZNK5Eigen13CwiseBinaryOpINS_8internal13scalar_sum_opIddEEKNS_6MatrixIdLin1ELin1ELi0ELin1ELin1EEES6_E4rowsEv, symObjAddr: 0x3D9AC, symBinAddr: 0x1000415B4, symSize: 0x68 }
  - { offsetInCU: 0x13126C, offset: 0x13126C, size: 0x8, addend: 0x0, symName: __ZNK5Eigen13CwiseBinaryOpINS_8internal13scalar_sum_opIddEEKNS_6MatrixIdLin1ELin1ELi0ELin1ELin1EEES6_E4colsEv, symObjAddr: 0x3DA14, symBinAddr: 0x10004161C, symSize: 0x68 }
  - { offsetInCU: 0x131292, offset: 0x131292, size: 0x8, addend: 0x0, symName: __ZN5Eigen8internal10AssignmentINS_6MatrixIdLin1ELin1ELi0ELin1ELin1EEENS_13CwiseBinaryOpINS0_13scalar_sum_opIddEEKS3_S7_EENS0_9assign_opIddEENS0_11Dense2DenseEvE3runERS3_RKS8_RKSA_, symObjAddr: 0x3DAB8, symBinAddr: 0x1000416C0, symSize: 0x40 }
  - { offsetInCU: 0x1312D4, offset: 0x1312D4, size: 0x8, addend: 0x0, symName: __ZN5Eigen8internal27checkTransposeAliasing_implINS_6MatrixIdLin1ELin1ELi0ELin1ELin1EEENS_13CwiseBinaryOpINS0_13scalar_sum_opIddEEKS3_S7_EELb0EE3runERS7_RKS8_, symObjAddr: 0x3DF94, symBinAddr: 0x100041B9C, symSize: 0x14 }
  - { offsetInCU: 0x1312FF, offset: 0x1312FF, size: 0x8, addend: 0x0, symName: __ZN5Eigen8internal9evaluatorINS_13CwiseBinaryOpINS0_13scalar_sum_opIddEEKNS_6MatrixIdLin1ELin1ELi0ELin1ELin1EEES7_EEEC1ERKS8_, symObjAddr: 0x3DFA8, symBinAddr: 0x100041BB0, symSize: 0x34 }
  - { offsetInCU: 0x131338, offset: 0x131338, size: 0x8, addend: 0x0, symName: __ZN5Eigen8internal31generic_dense_assignment_kernelINS0_9evaluatorINS_6MatrixIdLin1ELin1ELi0ELin1ELin1EEEEENS2_INS_13CwiseBinaryOpINS0_13scalar_sum_opIddEEKS4_S9_EEEENS0_9assign_opIddEELi0EEC1ERS5_RKSB_RKSD_RS4_, symObjAddr: 0x3E0D8, symBinAddr: 0x100041CE0, symSize: 0x4C }
  - { offsetInCU: 0x13139E, offset: 0x13139E, size: 0x8, addend: 0x0, symName: __ZN5Eigen8internal9evaluatorINS_13CwiseBinaryOpINS0_13scalar_sum_opIddEEKNS_6MatrixIdLin1ELin1ELi0ELin1ELin1EEES7_EEED1Ev, symObjAddr: 0x3E1D0, symBinAddr: 0x100041DD8, symSize: 0x2C }
  - { offsetInCU: 0x1313CB, offset: 0x1313CB, size: 0x8, addend: 0x0, symName: __ZN5Eigen8internal9evaluatorINS_13CwiseBinaryOpINS0_13scalar_sum_opIddEEKNS_6MatrixIdLin1ELin1ELi0ELin1ELin1EEES7_EEEC2ERKS8_, symObjAddr: 0x3E1FC, symBinAddr: 0x100041E04, symSize: 0x34 }
  - { offsetInCU: 0x131404, offset: 0x131404, size: 0x8, addend: 0x0, symName: __ZN5Eigen8internal16binary_evaluatorINS_13CwiseBinaryOpINS0_13scalar_sum_opIddEEKNS_6MatrixIdLin1ELin1ELi0ELin1ELin1EEES7_EENS0_10IndexBasedES9_ddEC2ERKS8_, symObjAddr: 0x3E230, symBinAddr: 0x100041E38, symSize: 0x64 }
  - { offsetInCU: 0x13143D, offset: 0x13143D, size: 0x8, addend: 0x0, symName: __ZN5Eigen8internal14evaluator_baseINS_13CwiseBinaryOpINS0_13scalar_sum_opIddEEKNS_6MatrixIdLin1ELin1ELi0ELin1ELin1EEES7_EEEC2Ev, symObjAddr: 0x3E294, symBinAddr: 0x100041E9C, symSize: 0x14 }
  - { offsetInCU: 0x131467, offset: 0x131467, size: 0x8, addend: 0x0, symName: __ZN5Eigen8internal16binary_evaluatorINS_13CwiseBinaryOpINS0_13scalar_sum_opIddEEKNS_6MatrixIdLin1ELin1ELi0ELin1ELin1EEES7_EENS0_10IndexBasedES9_ddE4DataC1ERKS8_, symObjAddr: 0x3E2A8, symBinAddr: 0x100041EB0, symSize: 0x34 }
  - { offsetInCU: 0x1314A0, offset: 0x1314A0, size: 0x8, addend: 0x0, symName: __ZN5Eigen8internal14evaluator_baseINS_13CwiseBinaryOpINS0_13scalar_sum_opIddEEKNS_6MatrixIdLin1ELin1ELi0ELin1ELin1EEES7_EEED2Ev, symObjAddr: 0x3E2DC, symBinAddr: 0x100041EE4, symSize: 0x14 }
  - { offsetInCU: 0x1314CA, offset: 0x1314CA, size: 0x8, addend: 0x0, symName: __ZN5Eigen8internal16binary_evaluatorINS_13CwiseBinaryOpINS0_13scalar_sum_opIddEEKNS_6MatrixIdLin1ELin1ELi0ELin1ELin1EEES7_EENS0_10IndexBasedES9_ddE4DataC2ERKS8_, symObjAddr: 0x3E2F0, symBinAddr: 0x100041EF8, symSize: 0xA8 }
  - { offsetInCU: 0x131503, offset: 0x131503, size: 0x8, addend: 0x0, symName: __ZNK5Eigen13CwiseBinaryOpINS_8internal13scalar_sum_opIddEEKNS_6MatrixIdLin1ELin1ELi0ELin1ELin1EEES6_E7functorEv, symObjAddr: 0x3E398, symBinAddr: 0x100041FA0, symSize: 0x18 }
  - { offsetInCU: 0x131529, offset: 0x131529, size: 0x8, addend: 0x0, symName: __ZNK5Eigen13CwiseBinaryOpINS_8internal13scalar_sum_opIddEEKNS_6MatrixIdLin1ELin1ELi0ELin1ELin1EEES6_E3lhsEv, symObjAddr: 0x3E3B0, symBinAddr: 0x100041FB8, symSize: 0x60 }
  - { offsetInCU: 0x13154F, offset: 0x13154F, size: 0x8, addend: 0x0, symName: __ZN5Eigen8internal9evaluatorIKNS_6MatrixIdLin1ELin1ELi0ELin1ELin1EEEEC1ERS4_, symObjAddr: 0x3E410, symBinAddr: 0x100042018, symSize: 0x34 }
  - { offsetInCU: 0x131587, offset: 0x131587, size: 0x8, addend: 0x0, symName: __ZNK5Eigen13CwiseBinaryOpINS_8internal13scalar_sum_opIddEEKNS_6MatrixIdLin1ELin1ELi0ELin1ELin1EEES6_E3rhsEv, symObjAddr: 0x3E444, symBinAddr: 0x10004204C, symSize: 0x64 }
  - { offsetInCU: 0x1315AD, offset: 0x1315AD, size: 0x8, addend: 0x0, symName: __ZN5Eigen8internal9evaluatorIKNS_6MatrixIdLin1ELin1ELi0ELin1ELin1EEEED1Ev, symObjAddr: 0x3E4A8, symBinAddr: 0x1000420B0, symSize: 0x2C }
  - { offsetInCU: 0x1315D9, offset: 0x1315D9, size: 0x8, addend: 0x0, symName: __ZN5Eigen8internal9evaluatorIKNS_6MatrixIdLin1ELin1ELi0ELin1ELin1EEEEC2ERS4_, symObjAddr: 0x3E4D4, symBinAddr: 0x1000420DC, symSize: 0x34 }
  - { offsetInCU: 0x131611, offset: 0x131611, size: 0x8, addend: 0x0, symName: __ZN5Eigen8internal9evaluatorIKNS_6MatrixIdLin1ELin1ELi0ELin1ELin1EEEED2Ev, symObjAddr: 0x3E508, symBinAddr: 0x100042110, symSize: 0x2C }
  - { offsetInCU: 0x13163D, offset: 0x13163D, size: 0x8, addend: 0x0, symName: __ZN5Eigen8internal31generic_dense_assignment_kernelINS0_9evaluatorINS_6MatrixIdLin1ELin1ELi0ELin1ELin1EEEEENS2_INS_13CwiseBinaryOpINS0_13scalar_sum_opIddEEKS4_S9_EEEENS0_9assign_opIddEELi0EEC2ERS5_RKSB_RKSD_RS4_, symObjAddr: 0x3E534, symBinAddr: 0x10004213C, symSize: 0x14C }
  - { offsetInCU: 0x1316A3, offset: 0x1316A3, size: 0x8, addend: 0x0, symName: __ZNK5Eigen8internal31generic_dense_assignment_kernelINS0_9evaluatorINS_6MatrixIdLin1ELin1ELi0ELin1ELin1EEEEENS2_INS_13CwiseBinaryOpINS0_13scalar_sum_opIddEEKS4_S9_EEEENS0_9assign_opIddEELi0EE4sizeEv, symObjAddr: 0x3E680, symBinAddr: 0x100042288, symSize: 0x68 }
  - { offsetInCU: 0x1316C9, offset: 0x1316C9, size: 0x8, addend: 0x0, symName: __ZN5Eigen8internal31unaligned_dense_assignment_loopILb1EE3runINS0_31generic_dense_assignment_kernelINS0_9evaluatorINS_6MatrixIdLin1ELin1ELi0ELin1ELin1EEEEENS5_INS_13CwiseBinaryOpINS0_13scalar_sum_opIddEEKS7_SC_EEEENS0_9assign_opIddEELi0EEEEEvRT_ll, symObjAddr: 0x3E6E8, symBinAddr: 0x1000422F0, symSize: 0x18 }
  - { offsetInCU: 0x131708, offset: 0x131708, size: 0x8, addend: 0x0, symName: __ZN5Eigen8internal31generic_dense_assignment_kernelINS0_9evaluatorINS_6MatrixIdLin1ELin1ELi0ELin1ELin1EEEEENS2_INS_13CwiseBinaryOpINS0_13scalar_sum_opIddEEKS4_S9_EEEENS0_9assign_opIddEELi0EE12assignPacketILi16ELi16E19__simd128_float64_tEEvl, symObjAddr: 0x3E700, symBinAddr: 0x100042308, symSize: 0x2E0 }
  - { offsetInCU: 0x13175C, offset: 0x13175C, size: 0x8, addend: 0x0, symName: __ZN5Eigen8internal31unaligned_dense_assignment_loopILb0EE3runINS0_31generic_dense_assignment_kernelINS0_9evaluatorINS_6MatrixIdLin1ELin1ELi0ELin1ELin1EEEEENS5_INS_13CwiseBinaryOpINS0_13scalar_sum_opIddEEKS7_SC_EEEENS0_9assign_opIddEELi0EEEEEvRT_ll, symObjAddr: 0x3E9E0, symBinAddr: 0x1000425E8, symSize: 0x6C }
  - { offsetInCU: 0x1317C4, offset: 0x1317C4, size: 0x8, addend: 0x0, symName: __ZNK5Eigen8internal16binary_evaluatorINS_13CwiseBinaryOpINS0_13scalar_sum_opIddEEKNS_6MatrixIdLin1ELin1ELi0ELin1ELin1EEES7_EENS0_10IndexBasedES9_ddE6packetILi16E19__simd128_float64_tEET0_l, symObjAddr: 0x3EA4C, symBinAddr: 0x100042654, symSize: 0x2D8 }
  - { offsetInCU: 0x13180E, offset: 0x13180E, size: 0x8, addend: 0x0, symName: __ZNK5Eigen8internal16binary_evaluatorINS_13CwiseBinaryOpINS0_13scalar_sum_opIddEEKNS_6MatrixIdLin1ELin1ELi0ELin1ELin1EEES7_EENS0_10IndexBasedES9_ddE4Data4funcEv, symObjAddr: 0x3ED24, symBinAddr: 0x10004292C, symSize: 0x14 }
  - { offsetInCU: 0x131834, offset: 0x131834, size: 0x8, addend: 0x0, symName: __ZNK5Eigen8internal13scalar_sum_opIddE8packetOpI19__simd128_float64_tEET_RKS5_S7_, symObjAddr: 0x3ED38, symBinAddr: 0x100042940, symSize: 0x30 }
  - { offsetInCU: 0x13187F, offset: 0x13187F, size: 0x8, addend: 0x0, symName: __ZNK5Eigen8internal9evaluatorINS_15PlainObjectBaseINS_6MatrixIdLin1ELin1ELi0ELin1ELin1EEEEEE6packetILi16E19__simd128_float64_tEET0_l, symObjAddr: 0x3ED68, symBinAddr: 0x100042970, symSize: 0x78 }
  - { offsetInCU: 0x1318E3, offset: 0x1318E3, size: 0x8, addend: 0x0, symName: __ZN5Eigen8internal31generic_dense_assignment_kernelINS0_9evaluatorINS_6MatrixIdLin1ELin1ELi0ELin1ELin1EEEEENS2_INS_13CwiseBinaryOpINS0_13scalar_sum_opIddEEKS4_S9_EEEENS0_9assign_opIddEELi0EE11assignCoeffEl, symObjAddr: 0x3EF18, symBinAddr: 0x100042B20, symSize: 0x2E0 }
  - { offsetInCU: 0x13191A, offset: 0x13191A, size: 0x8, addend: 0x0, symName: __ZNK5Eigen8internal16binary_evaluatorINS_13CwiseBinaryOpINS0_13scalar_sum_opIddEEKNS_6MatrixIdLin1ELin1ELi0ELin1ELin1EEES7_EENS0_10IndexBasedES9_ddE5coeffEl, symObjAddr: 0x3F1F8, symBinAddr: 0x100042E00, symSize: 0x64 }
  - { offsetInCU: 0x13194F, offset: 0x13194F, size: 0x8, addend: 0x0, symName: __ZNK5Eigen8internal13scalar_sum_opIddEclERKdS4_, symObjAddr: 0x3F25C, symBinAddr: 0x100042E64, symSize: 0xB4 }
  - { offsetInCU: 0x131991, offset: 0x131991, size: 0x8, addend: 0x0, symName: __ZNK5Eigen8internal9evaluatorINS_15PlainObjectBaseINS_6MatrixIdLin1ELin1ELi0ELin1ELin1EEEEEE5coeffEl, symObjAddr: 0x3F310, symBinAddr: 0x100042F18, symSize: 0x6C }
  - { offsetInCU: 0x1319C5, offset: 0x1319C5, size: 0x8, addend: 0x0, symName: __ZN5Eigen8internal9evaluatorINS_13CwiseBinaryOpINS0_13scalar_sum_opIddEEKNS_6MatrixIdLin1ELin1ELi0ELin1ELin1EEES7_EEED2Ev, symObjAddr: 0x3F37C, symBinAddr: 0x100042F84, symSize: 0x2C }
  - { offsetInCU: 0x1319F2, offset: 0x1319F2, size: 0x8, addend: 0x0, symName: __ZN5Eigen8internal16binary_evaluatorINS_13CwiseBinaryOpINS0_13scalar_sum_opIddEEKNS_6MatrixIdLin1ELin1ELi0ELin1ELin1EEES7_EENS0_10IndexBasedES9_ddED2Ev, symObjAddr: 0x3F3A8, symBinAddr: 0x100042FB0, symSize: 0x34 }
  - { offsetInCU: 0x131A1E, offset: 0x131A1E, size: 0x8, addend: 0x0, symName: __ZN5Eigen8internal16binary_evaluatorINS_13CwiseBinaryOpINS0_13scalar_sum_opIddEEKNS_6MatrixIdLin1ELin1ELi0ELin1ELin1EEES7_EENS0_10IndexBasedES9_ddE4DataD1Ev, symObjAddr: 0x3F3DC, symBinAddr: 0x100042FE4, symSize: 0x2C }
  - { offsetInCU: 0x131A4B, offset: 0x131A4B, size: 0x8, addend: 0x0, symName: __ZN5Eigen8internal16binary_evaluatorINS_13CwiseBinaryOpINS0_13scalar_sum_opIddEEKNS_6MatrixIdLin1ELin1ELi0ELin1ELin1EEES7_EENS0_10IndexBasedES9_ddE4DataD2Ev, symObjAddr: 0x3F408, symBinAddr: 0x100043010, symSize: 0x3C }
  - { offsetInCU: 0x131A78, offset: 0x131A78, size: 0x8, addend: 0x0, symName: __ZN5Eigen15PlainObjectBaseINS_6MatrixIdLin1ELin1ELi0ELin1ELin1EEEEaSEOS3_, symObjAddr: 0x3F444, symBinAddr: 0x10004304C, symSize: 0x3C }
  - { offsetInCU: 0x131AAD, offset: 0x131AAD, size: 0x8, addend: 0x0, symName: __ZN5Eigen12DenseStorageIdLin1ELin1ELin1ELi0EEaSEOS1_, symObjAddr: 0x3F480, symBinAddr: 0x100043088, symSize: 0x78 }
  - { offsetInCU: 0x131AE2, offset: 0x131AE2, size: 0x8, addend: 0x0, symName: __ZNSt3__114basic_ofstreamIcNS_11char_traitsIcEEED2Ev, symObjAddr: 0x3F7B8, symBinAddr: 0x1000433C0, symSize: 0x198 }
  - { offsetInCU: 0x131B1C, offset: 0x131B1C, size: 0x8, addend: 0x0, symName: __ZTv0_n24_NSt3__114basic_ofstreamIcNS_11char_traitsIcEEED1Ev, symObjAddr: 0x3F950, symBinAddr: 0x100043558, symSize: 0xB0 }
  - { offsetInCU: 0x131B33, offset: 0x131B33, size: 0x8, addend: 0x0, symName: __ZN11TransformerD2Ev, symObjAddr: 0x3FA00, symBinAddr: 0x100043608, symSize: 0x3C }
  - { offsetInCU: 0x131B5F, offset: 0x131B5F, size: 0x8, addend: 0x0, symName: __ZN5Eigen8symbolic10SymbolExprINS_8internal17symbolic_last_tagEEC2Ev, symObjAddr: 0x3FA3C, symBinAddr: 0x100043644, symSize: 0x14 }
  - { offsetInCU: 0x131B89, offset: 0x131B89, size: 0x8, addend: 0x0, symName: __ZN5Eigen8internal8FixedIntILi1EEC2Ev, symObjAddr: 0x3FA50, symBinAddr: 0x100043658, symSize: 0x14 }
  - { offsetInCU: 0x131BB3, offset: 0x131BB3, size: 0x8, addend: 0x0, symName: __ZNK5Eigen8symbolic8BaseExprINS0_10SymbolExprINS_8internal17symbolic_last_tagEEEE7derivedEv, symObjAddr: 0x3FA64, symBinAddr: 0x10004366C, symSize: 0x14 }
  - { offsetInCU: 0x131BD9, offset: 0x131BD9, size: 0x8, addend: 0x0, symName: __ZN5Eigen8symbolic9ValueExprINS_8internal8FixedIntILi1EEEEC1Ev, symObjAddr: 0x3FA78, symBinAddr: 0x100043680, symSize: 0x2C }
  - { offsetInCU: 0x131C03, offset: 0x131C03, size: 0x8, addend: 0x0, symName: __ZN5Eigen8symbolic7AddExprINS0_10SymbolExprINS_8internal17symbolic_last_tagEEENS0_9ValueExprINS3_8FixedIntILi1EEEEEEC1ERKS5_RKS9_, symObjAddr: 0x3FAA4, symBinAddr: 0x1000436AC, symSize: 0x3C }
  - { offsetInCU: 0x131C49, offset: 0x131C49, size: 0x8, addend: 0x0, symName: __ZN5Eigen8symbolic9ValueExprINS_8internal8FixedIntILi1EEEEC2Ev, symObjAddr: 0x3FAE0, symBinAddr: 0x1000436E8, symSize: 0x14 }
  - { offsetInCU: 0x131C73, offset: 0x131C73, size: 0x8, addend: 0x0, symName: __ZN5Eigen8symbolic7AddExprINS0_10SymbolExprINS_8internal17symbolic_last_tagEEENS0_9ValueExprINS3_8FixedIntILi1EEEEEEC2ERKS5_RKS9_, symObjAddr: 0x3FAF4, symBinAddr: 0x1000436FC, symSize: 0x1C }
  - { offsetInCU: 0x131CB9, offset: 0x131CB9, size: 0x8, addend: 0x0, symName: __ZNSt3__111char_traitsIcE6lengthB8ue170006EPKc, symObjAddr: 0x40254, symBinAddr: 0x100043E5C, symSize: 0x40 }
  - { offsetInCU: 0x131CFA, offset: 0x131CFA, size: 0x8, addend: 0x0, symName: __ZNKSt3__113basic_ostreamIcNS_11char_traitsIcEEE6sentrycvbB8ue170006Ev, symObjAddr: 0x40294, symBinAddr: 0x100043E9C, symSize: 0x88 }
  - { offsetInCU: 0x131D20, offset: 0x131D20, size: 0x8, addend: 0x0, symName: __ZNSt3__119ostreambuf_iteratorIcNS_11char_traitsIcEEEC1B8ue170006ERNS_13basic_ostreamIcS2_EE, symObjAddr: 0x40A7C, symBinAddr: 0x100044684, symSize: 0x34 }
  - { offsetInCU: 0x131D58, offset: 0x131D58, size: 0x8, addend: 0x0, symName: __ZNKSt3__18ios_base5flagsB8ue170006Ev, symObjAddr: 0x40AB0, symBinAddr: 0x1000446B8, symSize: 0x8C }
  - { offsetInCU: 0x131D80, offset: 0x131D80, size: 0x8, addend: 0x0, symName: __ZNKSt3__19basic_iosIcNS_11char_traitsIcEEE4fillB8ue170006Ev, symObjAddr: 0x40B3C, symBinAddr: 0x100044744, symSize: 0x198 }
  - { offsetInCU: 0x131DA8, offset: 0x131DA8, size: 0x8, addend: 0x0, symName: __ZNKSt3__119ostreambuf_iteratorIcNS_11char_traitsIcEEE6failedB8ue170006Ev, symObjAddr: 0x40CD4, symBinAddr: 0x1000448DC, symSize: 0x6C }
  - { offsetInCU: 0x131DCE, offset: 0x131DCE, size: 0x8, addend: 0x0, symName: __ZNSt3__19basic_iosIcNS_11char_traitsIcEEE8setstateB8ue170006Ej, symObjAddr: 0x40D40, symBinAddr: 0x100044948, symSize: 0x2C }
  - { offsetInCU: 0x131E03, offset: 0x131E03, size: 0x8, addend: 0x0, symName: __ZNKSt3__18ios_base5widthB8ue170006Ev, symObjAddr: 0x40D6C, symBinAddr: 0x100044974, symSize: 0x64 }
  - { offsetInCU: 0x131E2B, offset: 0x131E2B, size: 0x8, addend: 0x0, symName: __ZNSt3__115basic_streambufIcNS_11char_traitsIcEEE5sputnB8ue170006EPKcl, symObjAddr: 0x40DD0, symBinAddr: 0x1000449D8, symSize: 0xC8 }
  - { offsetInCU: 0x131E6D, offset: 0x131E6D, size: 0x8, addend: 0x0, symName: __ZNSt3__112basic_stringIcNS_11char_traitsIcEENS_9allocatorIcEEEC1B8ue170006Emc, symObjAddr: 0x40E98, symBinAddr: 0x100044AA0, symSize: 0x3C }
  - { offsetInCU: 0x131EB5, offset: 0x131EB5, size: 0x8, addend: 0x0, symName: __ZNKSt3__112basic_stringIcNS_11char_traitsIcEENS_9allocatorIcEEE4dataB8ue170006Ev, symObjAddr: 0x40ED4, symBinAddr: 0x100044ADC, symSize: 0x28 }
  - { offsetInCU: 0x131EDB, offset: 0x131EDB, size: 0x8, addend: 0x0, symName: __ZNSt3__18ios_base5widthB8ue170006El, symObjAddr: 0x40EFC, symBinAddr: 0x100044B04, symSize: 0xB8 }
  - { offsetInCU: 0x131F21, offset: 0x131F21, size: 0x8, addend: 0x0, symName: __ZNSt3__112basic_stringIcNS_11char_traitsIcEENS_9allocatorIcEEEC2B8ue170006Emc, symObjAddr: 0x40FB4, symBinAddr: 0x100044BBC, symSize: 0x204 }
  - { offsetInCU: 0x131F6C, offset: 0x131F6C, size: 0x8, addend: 0x0, symName: __ZNSt3__117__compressed_pairINS_12basic_stringIcNS_11char_traitsIcEENS_9allocatorIcEEE5__repES5_EC1B8ue170006INS_18__default_init_tagESA_EEOT_OT0_, symObjAddr: 0x411B8, symBinAddr: 0x100044DC0, symSize: 0x3C }
  - { offsetInCU: 0x131FC4, offset: 0x131FC4, size: 0x8, addend: 0x0, symName: __ZNSt3__117__compressed_pairINS_12basic_stringIcNS_11char_traitsIcEENS_9allocatorIcEEE5__repES5_EC2B8ue170006INS_18__default_init_tagESA_EEOT_OT0_, symObjAddr: 0x411F4, symBinAddr: 0x100044DFC, symSize: 0x3C }
  - { offsetInCU: 0x13201C, offset: 0x13201C, size: 0x8, addend: 0x0, symName: __ZNSt3__122__compressed_pair_elemINS_12basic_stringIcNS_11char_traitsIcEENS_9allocatorIcEEE5__repELi0ELb0EEC2B8ue170006ENS_18__default_init_tagE, symObjAddr: 0x41230, symBinAddr: 0x100044E38, symSize: 0x14 }
  - { offsetInCU: 0x132050, offset: 0x132050, size: 0x8, addend: 0x0, symName: __ZNSt3__122__compressed_pair_elemINS_9allocatorIcEELi1ELb1EEC2B8ue170006ENS_18__default_init_tagE, symObjAddr: 0x41244, symBinAddr: 0x100044E4C, symSize: 0x2C }
  - { offsetInCU: 0x132084, offset: 0x132084, size: 0x8, addend: 0x0, symName: __ZNSt3__19allocatorIcEC2B8ue170006Ev, symObjAddr: 0x41270, symBinAddr: 0x100044E78, symSize: 0x2C }
  - { offsetInCU: 0x1320AE, offset: 0x1320AE, size: 0x8, addend: 0x0, symName: __ZNSt3__116__non_trivial_ifILb1ENS_9allocatorIcEEEC2B8ue170006Ev, symObjAddr: 0x4129C, symBinAddr: 0x100044EA4, symSize: 0x14 }
  - { offsetInCU: 0x1320D8, offset: 0x1320D8, size: 0x8, addend: 0x0, symName: __ZNKSt3__112basic_stringIcNS_11char_traitsIcEENS_9allocatorIcEEE13__get_pointerB8ue170006Ev, symObjAddr: 0x412C4, symBinAddr: 0x100044ECC, symSize: 0x54 }
  - { offsetInCU: 0x1320FE, offset: 0x1320FE, size: 0x8, addend: 0x0, symName: __ZNKSt3__112basic_stringIcNS_11char_traitsIcEENS_9allocatorIcEEE9__is_longB8ue170006Ev, symObjAddr: 0x41318, symBinAddr: 0x100044F20, symSize: 0xA4 }
  - { offsetInCU: 0x132124, offset: 0x132124, size: 0x8, addend: 0x0, symName: __ZNKSt3__112basic_stringIcNS_11char_traitsIcEENS_9allocatorIcEEE18__get_long_pointerB8ue170006Ev, symObjAddr: 0x413BC, symBinAddr: 0x100044FC4, symSize: 0x6C }
  - { offsetInCU: 0x13214A, offset: 0x13214A, size: 0x8, addend: 0x0, symName: __ZNKSt3__112basic_stringIcNS_11char_traitsIcEENS_9allocatorIcEEE19__get_short_pointerB8ue170006Ev, symObjAddr: 0x41428, symBinAddr: 0x100045030, symSize: 0x28 }
  - { offsetInCU: 0x132170, offset: 0x132170, size: 0x8, addend: 0x0, symName: __ZNKSt3__117__compressed_pairINS_12basic_stringIcNS_11char_traitsIcEENS_9allocatorIcEEE5__repES5_E5firstB8ue170006Ev, symObjAddr: 0x41450, symBinAddr: 0x100045058, symSize: 0x24 }
  - { offsetInCU: 0x132196, offset: 0x132196, size: 0x8, addend: 0x0, symName: __ZNKSt3__122__compressed_pair_elemINS_12basic_stringIcNS_11char_traitsIcEENS_9allocatorIcEEE5__repELi0ELb0EE5__getB8ue170006Ev, symObjAddr: 0x41474, symBinAddr: 0x10004507C, symSize: 0x14 }
  - { offsetInCU: 0x1321BC, offset: 0x1321BC, size: 0x8, addend: 0x0, symName: __ZNSt3__114pointer_traitsIPKcE10pointer_toB8ue170006ERS1_, symObjAddr: 0x41488, symBinAddr: 0x100045090, symSize: 0x14 }
  - { offsetInCU: 0x1321DF, offset: 0x1321DF, size: 0x8, addend: 0x0, symName: __ZNSt3__119ostreambuf_iteratorIcNS_11char_traitsIcEEEC2B8ue170006ERNS_13basic_ostreamIcS2_EE, symObjAddr: 0x4149C, symBinAddr: 0x1000450A4, symSize: 0x10C }
  - { offsetInCU: 0x132217, offset: 0x132217, size: 0x8, addend: 0x0, symName: __ZNKSt3__19basic_iosIcNS_11char_traitsIcEEE5rdbufB8ue170006Ev, symObjAddr: 0x415A8, symBinAddr: 0x1000451B0, symSize: 0x24 }
  - { offsetInCU: 0x13223F, offset: 0x13223F, size: 0x8, addend: 0x0, symName: __ZNKSt3__18ios_base5rdbufB8ue170006Ev, symObjAddr: 0x415CC, symBinAddr: 0x1000451D4, symSize: 0x64 }
  - { offsetInCU: 0x132265, offset: 0x132265, size: 0x8, addend: 0x0, symName: __ZNSt3__111char_traitsIcE11eq_int_typeB8ue170006Eii, symObjAddr: 0x41630, symBinAddr: 0x100045238, symSize: 0x28 }
  - { offsetInCU: 0x132298, offset: 0x132298, size: 0x8, addend: 0x0, symName: __ZNSt3__111char_traitsIcE3eofB8ue170006Ev, symObjAddr: 0x41658, symBinAddr: 0x100045260, symSize: 0x8 }
  - { offsetInCU: 0x1322AC, offset: 0x1322AC, size: 0x8, addend: 0x0, symName: __ZNKSt3__19basic_iosIcNS_11char_traitsIcEEE5widenB8ue170006Ec, symObjAddr: 0x41660, symBinAddr: 0x100045268, symSize: 0x2A4 }
  - { offsetInCU: 0x132317, offset: 0x132317, size: 0x8, addend: 0x0, symName: __ZNKSt3__15ctypeIcE5widenB8ue170006Ec, symObjAddr: 0x41930, symBinAddr: 0x100045538, symSize: 0xBC }
  - { offsetInCU: 0x13234C, offset: 0x13234C, size: 0x8, addend: 0x0, symName: __ZNSt3__18ios_base8setstateB8ue170006Ej, symObjAddr: 0x419EC, symBinAddr: 0x1000455F4, symSize: 0x9C }
  - { offsetInCU: 0x132383, offset: 0x132383, size: 0x8, addend: 0x0, symName: __ZNSt3__16vectorIfNS_9allocatorIfEEEC2Em, symObjAddr: 0x41AAC, symBinAddr: 0x1000456B4, symSize: 0x490 }
  - { offsetInCU: 0x1323D9, offset: 0x1323D9, size: 0x8, addend: 0x0, symName: __ZNSt3__117__compressed_pairIPfNS_9allocatorIfEEEC1B8ue170006IDnNS_18__default_init_tagEEEOT_OT0_, symObjAddr: 0x41F3C, symBinAddr: 0x100045B44, symSize: 0x3C }
  - { offsetInCU: 0x132431, offset: 0x132431, size: 0x8, addend: 0x0, symName: __ZNSt3__16vectorIfNS_9allocatorIfEEE16__destroy_vectorC1B8ue170006ERS3_, symObjAddr: 0x421F0, symBinAddr: 0x100045DF8, symSize: 0x34 }
  - { offsetInCU: 0x13246A, offset: 0x13246A, size: 0x8, addend: 0x0, symName: __ZNSt3__16vectorIfNS_9allocatorIfEEE11__vallocateB8ue170006Em, symObjAddr: 0x42224, symBinAddr: 0x100045E2C, symSize: 0x420 }
  - { offsetInCU: 0x1324B4, offset: 0x1324B4, size: 0x8, addend: 0x0, symName: __ZNSt3__16vectorIfNS_9allocatorIfEEE18__construct_at_endEm, symObjAddr: 0x42644, symBinAddr: 0x10004624C, symSize: 0x3E4 }
  - { offsetInCU: 0x13252E, offset: 0x13252E, size: 0x8, addend: 0x0, symName: __ZNSt3__128__exception_guard_exceptionsINS_6vectorIfNS_9allocatorIfEEE16__destroy_vectorEE10__completeB8ue170006Ev, symObjAddr: 0x42A28, symBinAddr: 0x100046630, symSize: 0x8C }
  - { offsetInCU: 0x132554, offset: 0x132554, size: 0x8, addend: 0x0, symName: __ZNSt3__128__exception_guard_exceptionsINS_6vectorIfNS_9allocatorIfEEE16__destroy_vectorEED1B8ue170006Ev, symObjAddr: 0x42AB4, symBinAddr: 0x1000466BC, symSize: 0x2C }
  - { offsetInCU: 0x13257E, offset: 0x13257E, size: 0x8, addend: 0x0, symName: __ZNSt3__117__compressed_pairIPfNS_9allocatorIfEEEC2B8ue170006IDnNS_18__default_init_tagEEEOT_OT0_, symObjAddr: 0x42AE0, symBinAddr: 0x1000466E8, symSize: 0x40 }
  - { offsetInCU: 0x1325D6, offset: 0x1325D6, size: 0x8, addend: 0x0, symName: __ZNSt3__122__compressed_pair_elemIPfLi0ELb0EEC2B8ue170006IDnvEEOT_, symObjAddr: 0x42B20, symBinAddr: 0x100046728, symSize: 0x64 }
  - { offsetInCU: 0x132618, offset: 0x132618, size: 0x8, addend: 0x0, symName: __ZNSt3__122__compressed_pair_elemINS_9allocatorIfEELi1ELb1EEC2B8ue170006ENS_18__default_init_tagE, symObjAddr: 0x42B84, symBinAddr: 0x10004678C, symSize: 0x2C }
  - { offsetInCU: 0x13264C, offset: 0x13264C, size: 0x8, addend: 0x0, symName: __ZNSt3__19allocatorIfEC2B8ue170006Ev, symObjAddr: 0x42BB0, symBinAddr: 0x1000467B8, symSize: 0x2C }
  - { offsetInCU: 0x132676, offset: 0x132676, size: 0x8, addend: 0x0, symName: __ZNSt3__116__non_trivial_ifILb1ENS_9allocatorIfEEEC2B8ue170006Ev, symObjAddr: 0x42BDC, symBinAddr: 0x1000467E4, symSize: 0x14 }
  - { offsetInCU: 0x1326A0, offset: 0x1326A0, size: 0x8, addend: 0x0, symName: __ZNSt3__128__exception_guard_exceptionsINS_6vectorIfNS_9allocatorIfEEE16__destroy_vectorEEC1B8ue170006ES5_, symObjAddr: 0x42BF0, symBinAddr: 0x1000467F8, symSize: 0x238 }
  - { offsetInCU: 0x1326DD, offset: 0x1326DD, size: 0x8, addend: 0x0, symName: __ZNSt3__128__exception_guard_exceptionsINS_6vectorIfNS_9allocatorIfEEE16__destroy_vectorEEC2B8ue170006ES5_, symObjAddr: 0x42E28, symBinAddr: 0x100046A30, symSize: 0x264 }
  - { offsetInCU: 0x13271A, offset: 0x13271A, size: 0x8, addend: 0x0, symName: __ZNSt3__16vectorIfNS_9allocatorIfEEE16__destroy_vectorC2B8ue170006ERS3_, symObjAddr: 0x4308C, symBinAddr: 0x100046C94, symSize: 0x70 }
  - { offsetInCU: 0x132753, offset: 0x132753, size: 0x8, addend: 0x0, symName: __ZNKSt3__16vectorIfNS_9allocatorIfEEE8max_sizeEv, symObjAddr: 0x430FC, symBinAddr: 0x100046D04, symSize: 0x2FC }
  - { offsetInCU: 0x13277C, offset: 0x13277C, size: 0x8, addend: 0x0, symName: __ZNKSt3__16vectorIfNS_9allocatorIfEEE20__throw_length_errorB8ue170006Ev, symObjAddr: 0x433F8, symBinAddr: 0x100047000, symSize: 0x20 }
  - { offsetInCU: 0x1327A2, offset: 0x1327A2, size: 0x8, addend: 0x0, symName: __ZNSt3__16vectorIfNS_9allocatorIfEEE7__allocB8ue170006Ev, symObjAddr: 0x436A4, symBinAddr: 0x1000472AC, symSize: 0x28 }
  - { offsetInCU: 0x1327C8, offset: 0x1327C8, size: 0x8, addend: 0x0, symName: __ZNSt3__16vectorIfNS_9allocatorIfEEE9__end_capB8ue170006Ev, symObjAddr: 0x436CC, symBinAddr: 0x1000472D4, symSize: 0x28 }
  - { offsetInCU: 0x1327EE, offset: 0x1327EE, size: 0x8, addend: 0x0, symName: __ZNKSt3__16vectorIfNS_9allocatorIfEEE14__annotate_newB8ue170006Em, symObjAddr: 0x436F4, symBinAddr: 0x1000472FC, symSize: 0xC0 }
  - { offsetInCU: 0x13282D, offset: 0x13282D, size: 0x8, addend: 0x0, symName: __ZNSt3__116allocator_traitsINS_9allocatorIfEEE8max_sizeB8ue170006IS2_vEEmRKS2_, symObjAddr: 0x437B4, symBinAddr: 0x1000473BC, symSize: 0x24 }
  - { offsetInCU: 0x13285B, offset: 0x13285B, size: 0x8, addend: 0x0, symName: __ZNKSt3__16vectorIfNS_9allocatorIfEEE7__allocB8ue170006Ev, symObjAddr: 0x437D8, symBinAddr: 0x1000473E0, symSize: 0x28 }
  - { offsetInCU: 0x132881, offset: 0x132881, size: 0x8, addend: 0x0, symName: __ZNKSt3__19allocatorIfE8max_sizeB8ue170006Ev, symObjAddr: 0x43800, symBinAddr: 0x100047408, symSize: 0x14 }
  - { offsetInCU: 0x1328A7, offset: 0x1328A7, size: 0x8, addend: 0x0, symName: __ZNKSt3__117__compressed_pairIPfNS_9allocatorIfEEE6secondB8ue170006Ev, symObjAddr: 0x43814, symBinAddr: 0x10004741C, symSize: 0x24 }
  - { offsetInCU: 0x1328CD, offset: 0x1328CD, size: 0x8, addend: 0x0, symName: __ZNKSt3__122__compressed_pair_elemINS_9allocatorIfEELi1ELb1EE5__getB8ue170006Ev, symObjAddr: 0x43838, symBinAddr: 0x100047440, symSize: 0x14 }
  - { offsetInCU: 0x1328F3, offset: 0x1328F3, size: 0x8, addend: 0x0, symName: __ZNSt3__19allocatorIfE8allocateB8ue170006Em, symObjAddr: 0x4384C, symBinAddr: 0x100047454, symSize: 0x5C }
  - { offsetInCU: 0x132927, offset: 0x132927, size: 0x8, addend: 0x0, symName: __ZNSt3__117__compressed_pairIPfNS_9allocatorIfEEE6secondB8ue170006Ev, symObjAddr: 0x438A8, symBinAddr: 0x1000474B0, symSize: 0x24 }
  - { offsetInCU: 0x13294D, offset: 0x13294D, size: 0x8, addend: 0x0, symName: __ZNSt3__122__compressed_pair_elemINS_9allocatorIfEELi1ELb1EE5__getB8ue170006Ev, symObjAddr: 0x438CC, symBinAddr: 0x1000474D4, symSize: 0x14 }
  - { offsetInCU: 0x132973, offset: 0x132973, size: 0x8, addend: 0x0, symName: __ZNSt3__117__compressed_pairIPfNS_9allocatorIfEEE5firstB8ue170006Ev, symObjAddr: 0x438E0, symBinAddr: 0x1000474E8, symSize: 0x24 }
  - { offsetInCU: 0x132999, offset: 0x132999, size: 0x8, addend: 0x0, symName: __ZNSt3__122__compressed_pair_elemIPfLi0ELb0EE5__getB8ue170006Ev, symObjAddr: 0x43904, symBinAddr: 0x10004750C, symSize: 0x14 }
  - { offsetInCU: 0x1329BF, offset: 0x1329BF, size: 0x8, addend: 0x0, symName: __ZNKSt3__16vectorIfNS_9allocatorIfEEE31__annotate_contiguous_containerEPKvS5_S5_S5_, symObjAddr: 0x43918, symBinAddr: 0x100047520, symSize: 0x58 }
  - { offsetInCU: 0x132A21, offset: 0x132A21, size: 0x8, addend: 0x0, symName: __ZNKSt3__16vectorIfNS_9allocatorIfEEE4dataB8ue170006Ev, symObjAddr: 0x43970, symBinAddr: 0x100047578, symSize: 0x64 }
  - { offsetInCU: 0x132A47, offset: 0x132A47, size: 0x8, addend: 0x0, symName: __ZNKSt3__16vectorIfNS_9allocatorIfEEE8capacityB8ue170006Ev, symObjAddr: 0x439D4, symBinAddr: 0x1000475DC, symSize: 0xBC }
  - { offsetInCU: 0x132A6D, offset: 0x132A6D, size: 0x8, addend: 0x0, symName: __ZNKSt3__16vectorIfNS_9allocatorIfEEE9__end_capB8ue170006Ev, symObjAddr: 0x43AA4, symBinAddr: 0x1000476AC, symSize: 0x28 }
  - { offsetInCU: 0x132A93, offset: 0x132A93, size: 0x8, addend: 0x0, symName: __ZNKSt3__117__compressed_pairIPfNS_9allocatorIfEEE5firstB8ue170006Ev, symObjAddr: 0x43ACC, symBinAddr: 0x1000476D4, symSize: 0x24 }
  - { offsetInCU: 0x132AB9, offset: 0x132AB9, size: 0x8, addend: 0x0, symName: __ZNKSt3__122__compressed_pair_elemIPfLi0ELb0EE5__getB8ue170006Ev, symObjAddr: 0x43AF0, symBinAddr: 0x1000476F8, symSize: 0x14 }
  - { offsetInCU: 0x132AF8, offset: 0x132AF8, size: 0x8, addend: 0x0, symName: __ZNSt3__16vectorIfNS_9allocatorIfEEE21_ConstructTransactionC1B8ue170006ERS3_m, symObjAddr: 0x43B04, symBinAddr: 0x10004770C, symSize: 0x3C }
  - { offsetInCU: 0x132B40, offset: 0x132B40, size: 0x8, addend: 0x0, symName: __ZNSt3__116allocator_traitsINS_9allocatorIfEEE9constructB8ue170006IfJEvEEvRS2_PT_DpOT0_, symObjAddr: 0x43B40, symBinAddr: 0x100047748, symSize: 0x2C }
  - { offsetInCU: 0x132B82, offset: 0x132B82, size: 0x8, addend: 0x0, symName: __ZNSt3__16vectorIfNS_9allocatorIfEEE21_ConstructTransactionD1B8ue170006Ev, symObjAddr: 0x43B6C, symBinAddr: 0x100047774, symSize: 0x2C }
  - { offsetInCU: 0x132BAC, offset: 0x132BAC, size: 0x8, addend: 0x0, symName: __ZNSt3__16vectorIfNS_9allocatorIfEEE21_ConstructTransactionC2B8ue170006ERS3_m, symObjAddr: 0x43B98, symBinAddr: 0x1000477A0, symSize: 0x1D0 }
  - { offsetInCU: 0x132BF4, offset: 0x132BF4, size: 0x8, addend: 0x0, symName: __ZNKSt3__16vectorIfNS_9allocatorIfEEE19__annotate_increaseB8ue170006Em, symObjAddr: 0x43D68, symBinAddr: 0x100047970, symSize: 0xD8 }
  - { offsetInCU: 0x132C29, offset: 0x132C29, size: 0x8, addend: 0x0, symName: __ZNKSt3__16vectorIfNS_9allocatorIfEEE4sizeB8ue170006Ev, symObjAddr: 0x43E40, symBinAddr: 0x100047A48, symSize: 0xB0 }
  - { offsetInCU: 0x132C4F, offset: 0x132C4F, size: 0x8, addend: 0x0, symName: __ZNSt3__19allocatorIfE9constructB8ue170006IfJEEEvPT_DpOT0_, symObjAddr: 0x43EF0, symBinAddr: 0x100047AF8, symSize: 0x90 }
  - { offsetInCU: 0x132C91, offset: 0x132C91, size: 0x8, addend: 0x0, symName: __ZNSt3__16vectorIfNS_9allocatorIfEEE21_ConstructTransactionD2B8ue170006Ev, symObjAddr: 0x43F80, symBinAddr: 0x100047B88, symSize: 0x278 }
  - { offsetInCU: 0x132CBB, offset: 0x132CBB, size: 0x8, addend: 0x0, symName: __ZNKSt3__16vectorIfNS_9allocatorIfEEE17__annotate_shrinkB8ue170006Em, symObjAddr: 0x441F8, symBinAddr: 0x100047E00, symSize: 0xC8 }
  - { offsetInCU: 0x132CF0, offset: 0x132CF0, size: 0x8, addend: 0x0, symName: __ZNSt3__128__exception_guard_exceptionsINS_6vectorIfNS_9allocatorIfEEE16__destroy_vectorEED2B8ue170006Ev, symObjAddr: 0x442C0, symBinAddr: 0x100047EC8, symSize: 0xBC }
  - { offsetInCU: 0x132D1A, offset: 0x132D1A, size: 0x8, addend: 0x0, symName: __ZNSt3__16vectorIfNS_9allocatorIfEEE16__destroy_vectorclB8ue170006Ev, symObjAddr: 0x4437C, symBinAddr: 0x100047F84, symSize: 0x228 }
  - { offsetInCU: 0x132D40, offset: 0x132D40, size: 0x8, addend: 0x0, symName: __ZNSt3__16vectorIfNS_9allocatorIfEEE7__clearB8ue170006Ev, symObjAddr: 0x445A4, symBinAddr: 0x1000481AC, symSize: 0x64 }
  - { offsetInCU: 0x132D66, offset: 0x132D66, size: 0x8, addend: 0x0, symName: __ZNKSt3__16vectorIfNS_9allocatorIfEEE17__annotate_deleteB8ue170006Ev, symObjAddr: 0x44608, symBinAddr: 0x100048210, symSize: 0xCC }
  - { offsetInCU: 0x132D8C, offset: 0x132D8C, size: 0x8, addend: 0x0, symName: __ZNSt3__116allocator_traitsINS_9allocatorIfEEE10deallocateB8ue170006ERS2_Pfm, symObjAddr: 0x446D4, symBinAddr: 0x1000482DC, symSize: 0x34 }
  - { offsetInCU: 0x132DCE, offset: 0x132DCE, size: 0x8, addend: 0x0, symName: __ZNSt3__16vectorIfNS_9allocatorIfEEE22__base_destruct_at_endB8ue170006EPf, symObjAddr: 0x44708, symBinAddr: 0x100048310, symSize: 0x114 }
  - { offsetInCU: 0x132E12, offset: 0x132E12, size: 0x8, addend: 0x0, symName: __ZNSt3__116allocator_traitsINS_9allocatorIfEEE7destroyB8ue170006IfvEEvRS2_PT_, symObjAddr: 0x4481C, symBinAddr: 0x100048424, symSize: 0x2C }
  - { offsetInCU: 0x132E4F, offset: 0x132E4F, size: 0x8, addend: 0x0, symName: __ZNSt3__19allocatorIfE7destroyB8ue170006EPf, symObjAddr: 0x44848, symBinAddr: 0x100048450, symSize: 0x14 }
  - { offsetInCU: 0x132E83, offset: 0x132E83, size: 0x8, addend: 0x0, symName: __ZNSt3__19allocatorIfE10deallocateB8ue170006EPfm, symObjAddr: 0x4485C, symBinAddr: 0x100048464, symSize: 0x4C }
  - { offsetInCU: 0x132EC5, offset: 0x132EC5, size: 0x8, addend: 0x0, symName: __ZNSt3__16vectorIfNS_9allocatorIfEEED2B8ue170006Ev, symObjAddr: 0x448A8, symBinAddr: 0x1000484B0, symSize: 0x1F4 }
  - { offsetInCU: 0x132EF0, offset: 0x132EF0, size: 0x8, addend: 0x0, symName: __ZNSt3__16vectorINS0_IfNS_9allocatorIfEEEENS1_IS3_EEEC2EmRKS3_, symObjAddr: 0x44A9C, symBinAddr: 0x1000486A4, symSize: 0x498 }
  - { offsetInCU: 0x132F56, offset: 0x132F56, size: 0x8, addend: 0x0, symName: __ZNSt3__117__compressed_pairIPNS_6vectorIfNS_9allocatorIfEEEENS2_IS4_EEEC1B8ue170006IDnNS_18__default_init_tagEEEOT_OT0_, symObjAddr: 0x44F34, symBinAddr: 0x100048B3C, symSize: 0x3C }
  - { offsetInCU: 0x132FAE, offset: 0x132FAE, size: 0x8, addend: 0x0, symName: __ZNSt3__16vectorINS0_IfNS_9allocatorIfEEEENS1_IS3_EEE16__destroy_vectorC1B8ue170006ERS5_, symObjAddr: 0x451E8, symBinAddr: 0x100048DF0, symSize: 0x34 }
  - { offsetInCU: 0x132FE7, offset: 0x132FE7, size: 0x8, addend: 0x0, symName: __ZNSt3__16vectorINS0_IfNS_9allocatorIfEEEENS1_IS3_EEE11__vallocateB8ue170006Em, symObjAddr: 0x4521C, symBinAddr: 0x100048E24, symSize: 0x428 }
  - { offsetInCU: 0x133031, offset: 0x133031, size: 0x8, addend: 0x0, symName: __ZNSt3__16vectorINS0_IfNS_9allocatorIfEEEENS1_IS3_EEE18__construct_at_endEmRKS3_, symObjAddr: 0x45644, symBinAddr: 0x10004924C, symSize: 0x3EC }
  - { offsetInCU: 0x1330BB, offset: 0x1330BB, size: 0x8, addend: 0x0, symName: __ZNSt3__128__exception_guard_exceptionsINS_6vectorINS1_IfNS_9allocatorIfEEEENS2_IS4_EEE16__destroy_vectorEE10__completeB8ue170006Ev, symObjAddr: 0x45A30, symBinAddr: 0x100049638, symSize: 0x8C }
  - { offsetInCU: 0x1330E1, offset: 0x1330E1, size: 0x8, addend: 0x0, symName: __ZNSt3__128__exception_guard_exceptionsINS_6vectorINS1_IfNS_9allocatorIfEEEENS2_IS4_EEE16__destroy_vectorEED1B8ue170006Ev, symObjAddr: 0x45ABC, symBinAddr: 0x1000496C4, symSize: 0x2C }
  - { offsetInCU: 0x13310B, offset: 0x13310B, size: 0x8, addend: 0x0, symName: __ZNSt3__117__compressed_pairIPNS_6vectorIfNS_9allocatorIfEEEENS2_IS4_EEEC2B8ue170006IDnNS_18__default_init_tagEEEOT_OT0_, symObjAddr: 0x45AE8, symBinAddr: 0x1000496F0, symSize: 0x40 }
  - { offsetInCU: 0x133163, offset: 0x133163, size: 0x8, addend: 0x0, symName: __ZNSt3__122__compressed_pair_elemIPNS_6vectorIfNS_9allocatorIfEEEELi0ELb0EEC2B8ue170006IDnvEEOT_, symObjAddr: 0x45B28, symBinAddr: 0x100049730, symSize: 0x64 }
  - { offsetInCU: 0x1331A5, offset: 0x1331A5, size: 0x8, addend: 0x0, symName: __ZNSt3__122__compressed_pair_elemINS_9allocatorINS_6vectorIfNS1_IfEEEEEELi1ELb1EEC2B8ue170006ENS_18__default_init_tagE, symObjAddr: 0x45B8C, symBinAddr: 0x100049794, symSize: 0x2C }
  - { offsetInCU: 0x1331D9, offset: 0x1331D9, size: 0x8, addend: 0x0, symName: __ZNSt3__19allocatorINS_6vectorIfNS0_IfEEEEEC2B8ue170006Ev, symObjAddr: 0x45BB8, symBinAddr: 0x1000497C0, symSize: 0x2C }
  - { offsetInCU: 0x133203, offset: 0x133203, size: 0x8, addend: 0x0, symName: __ZNSt3__116__non_trivial_ifILb1ENS_9allocatorINS_6vectorIfNS1_IfEEEEEEEC2B8ue170006Ev, symObjAddr: 0x45BE4, symBinAddr: 0x1000497EC, symSize: 0x14 }
  - { offsetInCU: 0x13322D, offset: 0x13322D, size: 0x8, addend: 0x0, symName: __ZNSt3__128__exception_guard_exceptionsINS_6vectorINS1_IfNS_9allocatorIfEEEENS2_IS4_EEE16__destroy_vectorEEC1B8ue170006ES7_, symObjAddr: 0x45BF8, symBinAddr: 0x100049800, symSize: 0x238 }
  - { offsetInCU: 0x13326A, offset: 0x13326A, size: 0x8, addend: 0x0, symName: __ZNSt3__128__exception_guard_exceptionsINS_6vectorINS1_IfNS_9allocatorIfEEEENS2_IS4_EEE16__destroy_vectorEEC2B8ue170006ES7_, symObjAddr: 0x45E30, symBinAddr: 0x100049A38, symSize: 0x264 }
  - { offsetInCU: 0x1332A7, offset: 0x1332A7, size: 0x8, addend: 0x0, symName: __ZNSt3__16vectorINS0_IfNS_9allocatorIfEEEENS1_IS3_EEE16__destroy_vectorC2B8ue170006ERS5_, symObjAddr: 0x46094, symBinAddr: 0x100049C9C, symSize: 0x70 }
  - { offsetInCU: 0x1332E0, offset: 0x1332E0, size: 0x8, addend: 0x0, symName: __ZNKSt3__16vectorINS0_IfNS_9allocatorIfEEEENS1_IS3_EEE8max_sizeEv, symObjAddr: 0x46104, symBinAddr: 0x100049D0C, symSize: 0x2FC }
  - { offsetInCU: 0x133309, offset: 0x133309, size: 0x8, addend: 0x0, symName: __ZNKSt3__16vectorINS0_IfNS_9allocatorIfEEEENS1_IS3_EEE20__throw_length_errorB8ue170006Ev, symObjAddr: 0x46400, symBinAddr: 0x10004A008, symSize: 0x20 }
  - { offsetInCU: 0x13332F, offset: 0x13332F, size: 0x8, addend: 0x0, symName: __ZNSt3__16vectorINS0_IfNS_9allocatorIfEEEENS1_IS3_EEE7__allocB8ue170006Ev, symObjAddr: 0x466AC, symBinAddr: 0x10004A2B4, symSize: 0x28 }
  - { offsetInCU: 0x133355, offset: 0x133355, size: 0x8, addend: 0x0, symName: __ZNSt3__16vectorINS0_IfNS_9allocatorIfEEEENS1_IS3_EEE9__end_capB8ue170006Ev, symObjAddr: 0x466D4, symBinAddr: 0x10004A2DC, symSize: 0x28 }
  - { offsetInCU: 0x13337B, offset: 0x13337B, size: 0x8, addend: 0x0, symName: __ZNKSt3__16vectorINS0_IfNS_9allocatorIfEEEENS1_IS3_EEE14__annotate_newB8ue170006Em, symObjAddr: 0x466FC, symBinAddr: 0x10004A304, symSize: 0xDC }
  - { offsetInCU: 0x1333BA, offset: 0x1333BA, size: 0x8, addend: 0x0, symName: __ZNSt3__116allocator_traitsINS_9allocatorINS_6vectorIfNS1_IfEEEEEEE8max_sizeB8ue170006IS5_vEEmRKS5_, symObjAddr: 0x467D8, symBinAddr: 0x10004A3E0, symSize: 0x24 }
  - { offsetInCU: 0x1333E8, offset: 0x1333E8, size: 0x8, addend: 0x0, symName: __ZNKSt3__16vectorINS0_IfNS_9allocatorIfEEEENS1_IS3_EEE7__allocB8ue170006Ev, symObjAddr: 0x467FC, symBinAddr: 0x10004A404, symSize: 0x28 }
  - { offsetInCU: 0x13340E, offset: 0x13340E, size: 0x8, addend: 0x0, symName: __ZNKSt3__19allocatorINS_6vectorIfNS0_IfEEEEE8max_sizeB8ue170006Ev, symObjAddr: 0x46824, symBinAddr: 0x10004A42C, symSize: 0x18 }
  - { offsetInCU: 0x133434, offset: 0x133434, size: 0x8, addend: 0x0, symName: __ZNKSt3__117__compressed_pairIPNS_6vectorIfNS_9allocatorIfEEEENS2_IS4_EEE6secondB8ue170006Ev, symObjAddr: 0x4683C, symBinAddr: 0x10004A444, symSize: 0x24 }
  - { offsetInCU: 0x13345A, offset: 0x13345A, size: 0x8, addend: 0x0, symName: __ZNKSt3__122__compressed_pair_elemINS_9allocatorINS_6vectorIfNS1_IfEEEEEELi1ELb1EE5__getB8ue170006Ev, symObjAddr: 0x46860, symBinAddr: 0x10004A468, symSize: 0x14 }
  - { offsetInCU: 0x133480, offset: 0x133480, size: 0x8, addend: 0x0, symName: __ZNSt3__19allocatorINS_6vectorIfNS0_IfEEEEE8allocateB8ue170006Em, symObjAddr: 0x46874, symBinAddr: 0x10004A47C, symSize: 0x60 }
  - { offsetInCU: 0x1334B4, offset: 0x1334B4, size: 0x8, addend: 0x0, symName: __ZNSt3__117__compressed_pairIPNS_6vectorIfNS_9allocatorIfEEEENS2_IS4_EEE6secondB8ue170006Ev, symObjAddr: 0x468D4, symBinAddr: 0x10004A4DC, symSize: 0x24 }
  - { offsetInCU: 0x1334DA, offset: 0x1334DA, size: 0x8, addend: 0x0, symName: __ZNSt3__122__compressed_pair_elemINS_9allocatorINS_6vectorIfNS1_IfEEEEEELi1ELb1EE5__getB8ue170006Ev, symObjAddr: 0x468F8, symBinAddr: 0x10004A500, symSize: 0x14 }
  - { offsetInCU: 0x133500, offset: 0x133500, size: 0x8, addend: 0x0, symName: __ZNSt3__117__compressed_pairIPNS_6vectorIfNS_9allocatorIfEEEENS2_IS4_EEE5firstB8ue170006Ev, symObjAddr: 0x4690C, symBinAddr: 0x10004A514, symSize: 0x24 }
  - { offsetInCU: 0x133526, offset: 0x133526, size: 0x8, addend: 0x0, symName: __ZNSt3__122__compressed_pair_elemIPNS_6vectorIfNS_9allocatorIfEEEELi0ELb0EE5__getB8ue170006Ev, symObjAddr: 0x46930, symBinAddr: 0x10004A538, symSize: 0x14 }
  - { offsetInCU: 0x13354C, offset: 0x13354C, size: 0x8, addend: 0x0, symName: __ZNKSt3__16vectorINS0_IfNS_9allocatorIfEEEENS1_IS3_EEE31__annotate_contiguous_containerEPKvS7_S7_S7_, symObjAddr: 0x46944, symBinAddr: 0x10004A54C, symSize: 0x58 }
  - { offsetInCU: 0x1335AE, offset: 0x1335AE, size: 0x8, addend: 0x0, symName: __ZNKSt3__16vectorINS0_IfNS_9allocatorIfEEEENS1_IS3_EEE4dataB8ue170006Ev, symObjAddr: 0x4699C, symBinAddr: 0x10004A5A4, symSize: 0x64 }
  - { offsetInCU: 0x1335D4, offset: 0x1335D4, size: 0x8, addend: 0x0, symName: __ZNKSt3__16vectorINS0_IfNS_9allocatorIfEEEENS1_IS3_EEE8capacityB8ue170006Ev, symObjAddr: 0x46A00, symBinAddr: 0x10004A608, symSize: 0xBC }
  - { offsetInCU: 0x1335FA, offset: 0x1335FA, size: 0x8, addend: 0x0, symName: __ZNKSt3__16vectorINS0_IfNS_9allocatorIfEEEENS1_IS3_EEE9__end_capB8ue170006Ev, symObjAddr: 0x46AD0, symBinAddr: 0x10004A6D8, symSize: 0x28 }
  - { offsetInCU: 0x133620, offset: 0x133620, size: 0x8, addend: 0x0, symName: __ZNKSt3__117__compressed_pairIPNS_6vectorIfNS_9allocatorIfEEEENS2_IS4_EEE5firstB8ue170006Ev, symObjAddr: 0x46AF8, symBinAddr: 0x10004A700, symSize: 0x24 }
  - { offsetInCU: 0x133646, offset: 0x133646, size: 0x8, addend: 0x0, symName: __ZNKSt3__122__compressed_pair_elemIPNS_6vectorIfNS_9allocatorIfEEEELi0ELb0EE5__getB8ue170006Ev, symObjAddr: 0x46B1C, symBinAddr: 0x10004A724, symSize: 0x14 }
  - { offsetInCU: 0x133685, offset: 0x133685, size: 0x8, addend: 0x0, symName: __ZNSt3__16vectorINS0_IfNS_9allocatorIfEEEENS1_IS3_EEE21_ConstructTransactionC1B8ue170006ERS5_m, symObjAddr: 0x46B30, symBinAddr: 0x10004A738, symSize: 0x3C }
  - { offsetInCU: 0x1336CD, offset: 0x1336CD, size: 0x8, addend: 0x0, symName: __ZNSt3__116allocator_traitsINS_9allocatorINS_6vectorIfNS1_IfEEEEEEE9constructB8ue170006IS4_JRKS4_EvEEvRS5_PT_DpOT0_, symObjAddr: 0x46B6C, symBinAddr: 0x10004A774, symSize: 0x34 }
  - { offsetInCU: 0x133724, offset: 0x133724, size: 0x8, addend: 0x0, symName: __ZNSt3__16vectorINS0_IfNS_9allocatorIfEEEENS1_IS3_EEE21_ConstructTransactionD1B8ue170006Ev, symObjAddr: 0x46BA0, symBinAddr: 0x10004A7A8, symSize: 0x2C }
  - { offsetInCU: 0x13374E, offset: 0x13374E, size: 0x8, addend: 0x0, symName: __ZNSt3__16vectorINS0_IfNS_9allocatorIfEEEENS1_IS3_EEE21_ConstructTransactionC2B8ue170006ERS5_m, symObjAddr: 0x46BCC, symBinAddr: 0x10004A7D4, symSize: 0x1D8 }
  - { offsetInCU: 0x133796, offset: 0x133796, size: 0x8, addend: 0x0, symName: __ZNKSt3__16vectorINS0_IfNS_9allocatorIfEEEENS1_IS3_EEE19__annotate_increaseB8ue170006Em, symObjAddr: 0x46DA4, symBinAddr: 0x10004A9AC, symSize: 0xF8 }
  - { offsetInCU: 0x1337CB, offset: 0x1337CB, size: 0x8, addend: 0x0, symName: __ZNKSt3__16vectorINS0_IfNS_9allocatorIfEEEENS1_IS3_EEE4sizeB8ue170006Ev, symObjAddr: 0x46E9C, symBinAddr: 0x10004AAA4, symSize: 0xB0 }
  - { offsetInCU: 0x1337F1, offset: 0x1337F1, size: 0x8, addend: 0x0, symName: __ZNSt3__19allocatorINS_6vectorIfNS0_IfEEEEE9constructB8ue170006IS3_JRKS3_EEEvPT_DpOT0_, symObjAddr: 0x46F4C, symBinAddr: 0x10004AB54, symSize: 0x30 }
  - { offsetInCU: 0x133847, offset: 0x133847, size: 0x8, addend: 0x0, symName: __ZNSt3__16vectorIfNS_9allocatorIfEEEC1ERKS3_, symObjAddr: 0x46F7C, symBinAddr: 0x10004AB84, symSize: 0x34 }
  - { offsetInCU: 0x133882, offset: 0x133882, size: 0x8, addend: 0x0, symName: __ZNSt3__16vectorIfNS_9allocatorIfEEEC2ERKS3_, symObjAddr: 0x46FB0, symBinAddr: 0x10004ABB8, symSize: 0x388 }
  - { offsetInCU: 0x1338BF, offset: 0x1338BF, size: 0x8, addend: 0x0, symName: __ZNSt3__116allocator_traitsINS_9allocatorIfEEE37select_on_container_copy_constructionB8ue170006IS2_vvEES2_RKS2_, symObjAddr: 0x47338, symBinAddr: 0x10004AF40, symSize: 0x10 }
  - { offsetInCU: 0x1338F4, offset: 0x1338F4, size: 0x8, addend: 0x0, symName: __ZNSt3__117__compressed_pairIPfNS_9allocatorIfEEEC1B8ue170006IDnS3_EEOT_OT0_, symObjAddr: 0x47348, symBinAddr: 0x10004AF50, symSize: 0x3C }
  - { offsetInCU: 0x13394C, offset: 0x13394C, size: 0x8, addend: 0x0, symName: __ZNSt3__16vectorIfNS_9allocatorIfEEE16__init_with_sizeB8ue170006IPfS5_EEvT_T0_m, symObjAddr: 0x47384, symBinAddr: 0x10004AF8C, symSize: 0x35C }
  - { offsetInCU: 0x1339C8, offset: 0x1339C8, size: 0x8, addend: 0x0, symName: __ZNSt3__117__compressed_pairIPfNS_9allocatorIfEEEC2B8ue170006IDnS3_EEOT_OT0_, symObjAddr: 0x476E0, symBinAddr: 0x10004B2E8, symSize: 0x44 }
  - { offsetInCU: 0x133A20, offset: 0x133A20, size: 0x8, addend: 0x0, symName: __ZNSt3__122__compressed_pair_elemINS_9allocatorIfEELi1ELb1EEC2B8ue170006IS2_vEEOT_, symObjAddr: 0x47724, symBinAddr: 0x10004B32C, symSize: 0x18 }
  - { offsetInCU: 0x133A62, offset: 0x133A62, size: 0x8, addend: 0x0, symName: __ZNSt3__16vectorIfNS_9allocatorIfEEE18__construct_at_endIPfS5_EEvT_T0_m, symObjAddr: 0x4773C, symBinAddr: 0x10004B344, symSize: 0x380 }
  - { offsetInCU: 0x133B00, offset: 0x133B00, size: 0x8, addend: 0x0, symName: __ZNSt3__14pairIPfS1_EC1B8ue170006IS1_S1_LPv0EEEOT_OT0_, symObjAddr: 0x48398, symBinAddr: 0x10004BFA0, symSize: 0x3C }
  - { offsetInCU: 0x133B5E, offset: 0x133B5E, size: 0x8, addend: 0x0, symName: __ZNSt3__14pairIPfS1_EC2B8ue170006IS1_S1_LPv0EEEOT_OT0_, symObjAddr: 0x483D4, symBinAddr: 0x10004BFDC, symSize: 0x138 }
  - { offsetInCU: 0x133BC6, offset: 0x133BC6, size: 0x8, addend: 0x0, symName: __ZNKSt3__114__copy_trivialclB8ue170006IffLi0EEENS_4pairIPT_PT0_EES4_S4_S6_, symObjAddr: 0x49174, symBinAddr: 0x10004CD7C, symSize: 0x230 }
  - { offsetInCU: 0x133C32, offset: 0x133C32, size: 0x8, addend: 0x0, symName: __ZNSt3__14pairIPfS1_EC1B8ue170006IRS1_S1_LPv0EEEOT_OT0_, symObjAddr: 0x499F4, symBinAddr: 0x10004D5FC, symSize: 0x3C }
  - { offsetInCU: 0x133C90, offset: 0x133C90, size: 0x8, addend: 0x0, symName: __ZNSt3__14pairIPfS1_EC2B8ue170006IRS1_S1_LPv0EEEOT_OT0_, symObjAddr: 0x49A30, symBinAddr: 0x10004D638, symSize: 0x138 }
  - { offsetInCU: 0x133CEE, offset: 0x133CEE, size: 0x8, addend: 0x0, symName: __ZNSt3__118__unwrap_iter_implIPfLb1EE8__unwrapB8ue170006ES1_, symObjAddr: 0x49B68, symBinAddr: 0x10004D770, symSize: 0x24 }
  - { offsetInCU: 0x133D11, offset: 0x133D11, size: 0x8, addend: 0x0, symName: __ZNSt3__118__unwrap_iter_implIPfLb1EE8__rewrapB8ue170006ES1_S1_, symObjAddr: 0x49B8C, symBinAddr: 0x10004D794, symSize: 0x50 }
  - { offsetInCU: 0x133D42, offset: 0x133D42, size: 0x8, addend: 0x0, symName: __ZNSt3__16vectorINS0_IfNS_9allocatorIfEEEENS1_IS3_EEE21_ConstructTransactionD2B8ue170006Ev, symObjAddr: 0x49BDC, symBinAddr: 0x10004D7E4, symSize: 0x278 }
  - { offsetInCU: 0x133D6C, offset: 0x133D6C, size: 0x8, addend: 0x0, symName: __ZNKSt3__16vectorINS0_IfNS_9allocatorIfEEEENS1_IS3_EEE17__annotate_shrinkB8ue170006Em, symObjAddr: 0x49E54, symBinAddr: 0x10004DA5C, symSize: 0xE4 }
  - { offsetInCU: 0x133DA1, offset: 0x133DA1, size: 0x8, addend: 0x0, symName: __ZNSt3__128__exception_guard_exceptionsINS_6vectorINS1_IfNS_9allocatorIfEEEENS2_IS4_EEE16__destroy_vectorEED2B8ue170006Ev, symObjAddr: 0x49F38, symBinAddr: 0x10004DB40, symSize: 0xBC }
  - { offsetInCU: 0x133DCB, offset: 0x133DCB, size: 0x8, addend: 0x0, symName: __ZNSt3__16vectorINS0_IfNS_9allocatorIfEEEENS1_IS3_EEE16__destroy_vectorclB8ue170006Ev, symObjAddr: 0x49FF4, symBinAddr: 0x10004DBFC, symSize: 0x228 }
  - { offsetInCU: 0x133DF1, offset: 0x133DF1, size: 0x8, addend: 0x0, symName: __ZNSt3__16vectorINS0_IfNS_9allocatorIfEEEENS1_IS3_EEE7__clearB8ue170006Ev, symObjAddr: 0x4A21C, symBinAddr: 0x10004DE24, symSize: 0x64 }
  - { offsetInCU: 0x133E17, offset: 0x133E17, size: 0x8, addend: 0x0, symName: __ZNKSt3__16vectorINS0_IfNS_9allocatorIfEEEENS1_IS3_EEE17__annotate_deleteB8ue170006Ev, symObjAddr: 0x4A280, symBinAddr: 0x10004DE88, symSize: 0xE8 }
  - { offsetInCU: 0x133E3D, offset: 0x133E3D, size: 0x8, addend: 0x0, symName: __ZNSt3__116allocator_traitsINS_9allocatorINS_6vectorIfNS1_IfEEEEEEE10deallocateB8ue170006ERS5_PS4_m, symObjAddr: 0x4A368, symBinAddr: 0x10004DF70, symSize: 0x34 }
  - { offsetInCU: 0x133E7F, offset: 0x133E7F, size: 0x8, addend: 0x0, symName: __ZNSt3__16vectorINS0_IfNS_9allocatorIfEEEENS1_IS3_EEE22__base_destruct_at_endB8ue170006EPS3_, symObjAddr: 0x4A39C, symBinAddr: 0x10004DFA4, symSize: 0x114 }
  - { offsetInCU: 0x133EC3, offset: 0x133EC3, size: 0x8, addend: 0x0, symName: __ZNSt3__116allocator_traitsINS_9allocatorINS_6vectorIfNS1_IfEEEEEEE7destroyB8ue170006IS4_vEEvRS5_PT_, symObjAddr: 0x4A4B0, symBinAddr: 0x10004E0B8, symSize: 0x2C }
  - { offsetInCU: 0x133F00, offset: 0x133F00, size: 0x8, addend: 0x0, symName: __ZNSt3__19allocatorINS_6vectorIfNS0_IfEEEEE7destroyB8ue170006EPS3_, symObjAddr: 0x4A4DC, symBinAddr: 0x10004E0E4, symSize: 0x28 }
  - { offsetInCU: 0x133F34, offset: 0x133F34, size: 0x8, addend: 0x0, symName: __ZNSt3__19allocatorINS_6vectorIfNS0_IfEEEEE10deallocateB8ue170006EPS3_m, symObjAddr: 0x4A504, symBinAddr: 0x10004E10C, symSize: 0x50 }
  - { offsetInCU: 0x133F76, offset: 0x133F76, size: 0x8, addend: 0x0, symName: __ZNSt3__16vectorINS0_IfNS_9allocatorIfEEEENS1_IS3_EEED2B8ue170006Ev, symObjAddr: 0x4A554, symBinAddr: 0x10004E15C, symSize: 0x1F4 }
  - { offsetInCU: 0x133FA1, offset: 0x133FA1, size: 0x8, addend: 0x0, symName: __ZN5Eigen9TransposeIKNS_6MatrixIdLin1ELin1ELi0ELin1ELin1EEEEC1ERS3_, symObjAddr: 0x4A748, symBinAddr: 0x10004E350, symSize: 0x34 }
  - { offsetInCU: 0x133FD9, offset: 0x133FD9, size: 0x8, addend: 0x0, symName: __ZN5Eigen9TransposeIKNS_6MatrixIdLin1ELin1ELi0ELin1ELin1EEEEC2ERS3_, symObjAddr: 0x4A77C, symBinAddr: 0x10004E384, symSize: 0x80 }
  - { offsetInCU: 0x134011, offset: 0x134011, size: 0x8, addend: 0x0, symName: __ZN5Eigen13TransposeImplIKNS_6MatrixIdLin1ELin1ELi0ELin1ELin1EEENS_5DenseEEC2Ev, symObjAddr: 0x4A7FC, symBinAddr: 0x10004E404, symSize: 0x2C }
  - { offsetInCU: 0x13403B, offset: 0x13403B, size: 0x8, addend: 0x0, symName: __ZN5Eigen10MatrixBaseINS_9TransposeIKNS_6MatrixIdLin1ELin1ELi0ELin1ELin1EEEEEEC2Ev, symObjAddr: 0x4A828, symBinAddr: 0x10004E430, symSize: 0x2C }
  - { offsetInCU: 0x134065, offset: 0x134065, size: 0x8, addend: 0x0, symName: __ZN5Eigen9DenseBaseINS_9TransposeIKNS_6MatrixIdLin1ELin1ELi0ELin1ELin1EEEEEEC2Ev, symObjAddr: 0x4A854, symBinAddr: 0x10004E45C, symSize: 0x14 }
  - { offsetInCU: 0x13408F, offset: 0x13408F, size: 0x8, addend: 0x0, symName: __ZNK5Eigen9EigenBaseINS_9TransposeIKNS_6MatrixIdLin1ELin1ELi0ELin1ELin1EEEEEE7derivedEv, symObjAddr: 0x4A868, symBinAddr: 0x10004E470, symSize: 0x14 }
  - { offsetInCU: 0x1340B5, offset: 0x1340B5, size: 0x8, addend: 0x0, symName: __ZN5Eigen7ProductINS_6MatrixIdLin1ELin1ELi0ELin1ELin1EEENS_9TransposeIKS2_EELi0EEC1ERS4_RKS5_, symObjAddr: 0x4A87C, symBinAddr: 0x10004E484, symSize: 0x3C }
  - { offsetInCU: 0x1340FB, offset: 0x1340FB, size: 0x8, addend: 0x0, symName: __ZN5Eigen7ProductINS_6MatrixIdLin1ELin1ELi0ELin1ELin1EEENS_9TransposeIKS2_EELi0EEC2ERS4_RKS5_, symObjAddr: 0x4A8B8, symBinAddr: 0x10004E4C0, symSize: 0x114 }
  - { offsetInCU: 0x134146, offset: 0x134146, size: 0x8, addend: 0x0, symName: __ZN5Eigen11ProductImplINS_6MatrixIdLin1ELin1ELi0ELin1ELin1EEENS_9TransposeIKS2_EELi0ENS_5DenseEEC2Ev, symObjAddr: 0x4A9CC, symBinAddr: 0x10004E5D4, symSize: 0x2C }
  - { offsetInCU: 0x134172, offset: 0x134172, size: 0x8, addend: 0x0, symName: __ZNK5Eigen9TransposeIKNS_6MatrixIdLin1ELin1ELi0ELin1ELin1EEEE4rowsEv, symObjAddr: 0x4A9F8, symBinAddr: 0x10004E600, symSize: 0x64 }
  - { offsetInCU: 0x13419D, offset: 0x13419D, size: 0x8, addend: 0x0, symName: __ZN5Eigen8internal18dense_product_baseINS_6MatrixIdLin1ELin1ELi0ELin1ELin1EEENS_9TransposeIKS3_EELi0ELi8EEC2Ev, symObjAddr: 0x4AA5C, symBinAddr: 0x10004E664, symSize: 0x2C }
  - { offsetInCU: 0x1341C9, offset: 0x1341C9, size: 0x8, addend: 0x0, symName: __ZN5Eigen10MatrixBaseINS_7ProductINS_6MatrixIdLin1ELin1ELi0ELin1ELin1EEENS_9TransposeIKS3_EELi0EEEEC2Ev, symObjAddr: 0x4AA88, symBinAddr: 0x10004E690, symSize: 0x2C }
  - { offsetInCU: 0x1341F3, offset: 0x1341F3, size: 0x8, addend: 0x0, symName: __ZN5Eigen9DenseBaseINS_7ProductINS_6MatrixIdLin1ELin1ELi0ELin1ELin1EEENS_9TransposeIKS3_EELi0EEEEC2Ev, symObjAddr: 0x4AAB4, symBinAddr: 0x10004E6BC, symSize: 0x14 }
  - { offsetInCU: 0x13421D, offset: 0x13421D, size: 0x8, addend: 0x0, symName: __ZNK5Eigen9EigenBaseINS_7ProductINS_6MatrixIdLin1ELin1ELi0ELin1ELin1EEENS_9TransposeIKS3_EELi0EEEE7derivedEv, symObjAddr: 0x4AAC8, symBinAddr: 0x10004E6D0, symSize: 0x14 }
  - { offsetInCU: 0x134243, offset: 0x134243, size: 0x8, addend: 0x0, symName: __ZNK5Eigen7ProductINS_6MatrixIdLin1ELin1ELi0ELin1ELin1EEENS_9TransposeIKS2_EELi0EE4rowsEv, symObjAddr: 0x4AADC, symBinAddr: 0x10004E6E4, symSize: 0x64 }
  - { offsetInCU: 0x134269, offset: 0x134269, size: 0x8, addend: 0x0, symName: __ZNK5Eigen7ProductINS_6MatrixIdLin1ELin1ELi0ELin1ELin1EEENS_9TransposeIKS2_EELi0EE4colsEv, symObjAddr: 0x4AB40, symBinAddr: 0x10004E748, symSize: 0x28 }
  - { offsetInCU: 0x13428F, offset: 0x13428F, size: 0x8, addend: 0x0, symName: __ZN5Eigen8internal18scalar_constant_opIdEC1ERKd, symObjAddr: 0x4AB68, symBinAddr: 0x10004E770, symSize: 0x34 }
  - { offsetInCU: 0x1342C7, offset: 0x1342C7, size: 0x8, addend: 0x0, symName: __ZN5Eigen14CwiseNullaryOpINS_8internal18scalar_constant_opIdEEKNS_6MatrixIdLin1ELin1ELi0ELin1ELin1EEEEC1EllRKS3_, symObjAddr: 0x4AB9C, symBinAddr: 0x10004E7A4, symSize: 0x44 }
  - { offsetInCU: 0x13431B, offset: 0x13431B, size: 0x8, addend: 0x0, symName: __ZN5Eigen8internal18scalar_quotient_opIddEC1Ev, symObjAddr: 0x4ABE0, symBinAddr: 0x10004E7E8, symSize: 0x2C }
  - { offsetInCU: 0x134345, offset: 0x134345, size: 0x8, addend: 0x0, symName: __ZN5Eigen13CwiseBinaryOpINS_8internal18scalar_quotient_opIddEEKNS_7ProductINS_6MatrixIdLin1ELin1ELi0ELin1ELin1EEENS_9TransposeIKS6_EELi0EEEKNS_14CwiseNullaryOpINS1_18scalar_constant_opIdEES8_EEEC1ERSB_RSG_RKS3_, symObjAddr: 0x4AC0C, symBinAddr: 0x10004E814, symSize: 0x44 }
  - { offsetInCU: 0x134399, offset: 0x134399, size: 0x8, addend: 0x0, symName: __ZNK5Eigen9TransposeIKNS_6MatrixIdLin1ELin1ELi0ELin1ELin1EEEE4colsEv, symObjAddr: 0x4AC50, symBinAddr: 0x10004E858, symSize: 0x64 }
  - { offsetInCU: 0x1343BF, offset: 0x1343BF, size: 0x8, addend: 0x0, symName: __ZN5Eigen8internal18scalar_constant_opIdEC2ERKd, symObjAddr: 0x4ACB4, symBinAddr: 0x10004E8BC, symSize: 0xB0 }
  - { offsetInCU: 0x1343F7, offset: 0x1343F7, size: 0x8, addend: 0x0, symName: __ZN5Eigen14CwiseNullaryOpINS_8internal18scalar_constant_opIdEEKNS_6MatrixIdLin1ELin1ELi0ELin1ELin1EEEEC2EllRKS3_, symObjAddr: 0x4AD64, symBinAddr: 0x10004E96C, symSize: 0xE0 }
  - { offsetInCU: 0x13444B, offset: 0x13444B, size: 0x8, addend: 0x0, symName: __ZN5Eigen10MatrixBaseINS_14CwiseNullaryOpINS_8internal18scalar_constant_opIdEEKNS_6MatrixIdLin1ELin1ELi0ELin1ELin1EEEEEEC2Ev, symObjAddr: 0x4AE44, symBinAddr: 0x10004EA4C, symSize: 0x2C }
  - { offsetInCU: 0x134475, offset: 0x134475, size: 0x8, addend: 0x0, symName: __ZN5Eigen9DenseBaseINS_14CwiseNullaryOpINS_8internal18scalar_constant_opIdEEKNS_6MatrixIdLin1ELin1ELi0ELin1ELin1EEEEEEC2Ev, symObjAddr: 0x4AE70, symBinAddr: 0x10004EA78, symSize: 0x14 }
  - { offsetInCU: 0x13449F, offset: 0x13449F, size: 0x8, addend: 0x0, symName: __ZN5Eigen8internal18scalar_quotient_opIddEC2Ev, symObjAddr: 0x4AE84, symBinAddr: 0x10004EA8C, symSize: 0x14 }
  - { offsetInCU: 0x1344C9, offset: 0x1344C9, size: 0x8, addend: 0x0, symName: __ZN5Eigen13CwiseBinaryOpINS_8internal18scalar_quotient_opIddEEKNS_7ProductINS_6MatrixIdLin1ELin1ELi0ELin1ELin1EEENS_9TransposeIKS6_EELi0EEEKNS_14CwiseNullaryOpINS1_18scalar_constant_opIdEES8_EEEC2ERSB_RSG_RKS3_, symObjAddr: 0x4AE98, symBinAddr: 0x10004EAA0, symSize: 0x100 }
  - { offsetInCU: 0x134522, offset: 0x134522, size: 0x8, addend: 0x0, symName: __ZN5Eigen17CwiseBinaryOpImplINS_8internal18scalar_quotient_opIddEEKNS_7ProductINS_6MatrixIdLin1ELin1ELi0ELin1ELin1EEENS_9TransposeIKS6_EELi0EEEKNS_14CwiseNullaryOpINS1_18scalar_constant_opIdEES8_EENS_5DenseEEC2Ev, symObjAddr: 0x4AF98, symBinAddr: 0x10004EBA0, symSize: 0x2C }
  - { offsetInCU: 0x13454E, offset: 0x13454E, size: 0x8, addend: 0x0, symName: __ZN5Eigen14CwiseNullaryOpINS_8internal18scalar_constant_opIdEEKNS_6MatrixIdLin1ELin1ELi0ELin1ELin1EEEEC1ERKS7_, symObjAddr: 0x4AFC4, symBinAddr: 0x10004EBCC, symSize: 0x34 }
  - { offsetInCU: 0x134583, offset: 0x134583, size: 0x8, addend: 0x0, symName: __ZN5Eigen8internal18scalar_quotient_opIddEC1ERKS2_, symObjAddr: 0x4AFF8, symBinAddr: 0x10004EC00, symSize: 0x34 }
  - { offsetInCU: 0x1345B8, offset: 0x1345B8, size: 0x8, addend: 0x0, symName: __ZN5Eigen10MatrixBaseINS_13CwiseBinaryOpINS_8internal18scalar_quotient_opIddEEKNS_7ProductINS_6MatrixIdLin1ELin1ELi0ELin1ELin1EEENS_9TransposeIKS7_EELi0EEEKNS_14CwiseNullaryOpINS2_18scalar_constant_opIdEES9_EEEEEC2Ev, symObjAddr: 0x4B02C, symBinAddr: 0x10004EC34, symSize: 0x2C }
  - { offsetInCU: 0x1345E2, offset: 0x1345E2, size: 0x8, addend: 0x0, symName: __ZN5Eigen9DenseBaseINS_13CwiseBinaryOpINS_8internal18scalar_quotient_opIddEEKNS_7ProductINS_6MatrixIdLin1ELin1ELi0ELin1ELin1EEENS_9TransposeIKS7_EELi0EEEKNS_14CwiseNullaryOpINS2_18scalar_constant_opIdEES9_EEEEEC2Ev, symObjAddr: 0x4B058, symBinAddr: 0x10004EC60, symSize: 0x14 }
  - { offsetInCU: 0x13460C, offset: 0x13460C, size: 0x8, addend: 0x0, symName: __ZN5Eigen14CwiseNullaryOpINS_8internal18scalar_constant_opIdEEKNS_6MatrixIdLin1ELin1ELi0ELin1ELin1EEEEC2ERKS7_, symObjAddr: 0x4B06C, symBinAddr: 0x10004EC74, symSize: 0x4C }
  - { offsetInCU: 0x134641, offset: 0x134641, size: 0x8, addend: 0x0, symName: __ZN5Eigen8internal18scalar_quotient_opIddEC2ERKS2_, symObjAddr: 0x4B0B8, symBinAddr: 0x10004ECC0, symSize: 0x18 }
  - { offsetInCU: 0x134676, offset: 0x134676, size: 0x8, addend: 0x0, symName: __ZN5Eigen6MatrixIdLin1ELin1ELi0ELin1ELin1EEC2INS_13CwiseBinaryOpINS_8internal18scalar_quotient_opIddEEKNS_7ProductIS1_NS_9TransposeIKS1_EELi0EEEKNS_14CwiseNullaryOpINS4_18scalar_constant_opIdEES9_EEEEEERKNS_9EigenBaseIT_EE, symObjAddr: 0x4B0D0, symBinAddr: 0x10004ECD8, symSize: 0x40 }
  - { offsetInCU: 0x1346B8, offset: 0x1346B8, size: 0x8, addend: 0x0, symName: __ZNK5Eigen9EigenBaseINS_13CwiseBinaryOpINS_8internal18scalar_quotient_opIddEEKNS_7ProductINS_6MatrixIdLin1ELin1ELi0ELin1ELin1EEENS_9TransposeIKS7_EELi0EEEKNS_14CwiseNullaryOpINS2_18scalar_constant_opIdEES9_EEEEE7derivedEv, symObjAddr: 0x4B110, symBinAddr: 0x10004ED18, symSize: 0x14 }
  - { offsetInCU: 0x1346DE, offset: 0x1346DE, size: 0x8, addend: 0x0, symName: __ZN5Eigen15PlainObjectBaseINS_6MatrixIdLin1ELin1ELi0ELin1ELin1EEEEC2INS_13CwiseBinaryOpINS_8internal18scalar_quotient_opIddEEKNS_7ProductIS2_NS_9TransposeIKS2_EELi0EEEKNS_14CwiseNullaryOpINS6_18scalar_constant_opIdEESB_EEEEEERKNS_9DenseBaseIT_EE, symObjAddr: 0x4B124, symBinAddr: 0x10004ED2C, symSize: 0x80 }
  - { offsetInCU: 0x134720, offset: 0x134720, size: 0x8, addend: 0x0, symName: __ZN5Eigen15PlainObjectBaseINS_6MatrixIdLin1ELin1ELi0ELin1ELin1EEEE10resizeLikeINS_13CwiseBinaryOpINS_8internal18scalar_quotient_opIddEEKNS_7ProductIS2_NS_9TransposeIKS2_EELi0EEEKNS_14CwiseNullaryOpINS6_18scalar_constant_opIdEESB_EEEEEEvRKNS_9EigenBaseIT_EE, symObjAddr: 0x4B1A4, symBinAddr: 0x10004EDAC, symSize: 0x11C }
  - { offsetInCU: 0x1347B4, offset: 0x1347B4, size: 0x8, addend: 0x0, symName: __ZN5Eigen15PlainObjectBaseINS_6MatrixIdLin1ELin1ELi0ELin1ELin1EEEE12_set_noaliasINS_13CwiseBinaryOpINS_8internal18scalar_quotient_opIddEEKNS_7ProductIS2_NS_9TransposeIKS2_EELi0EEEKNS_14CwiseNullaryOpINS6_18scalar_constant_opIdEESB_EEEEEERS2_RKNS_9DenseBaseIT_EE, symObjAddr: 0x4B2C0, symBinAddr: 0x10004EEC8, symSize: 0x21C }
  - { offsetInCU: 0x1347F4, offset: 0x1347F4, size: 0x8, addend: 0x0, symName: __ZNK5Eigen13CwiseBinaryOpINS_8internal18scalar_quotient_opIddEEKNS_7ProductINS_6MatrixIdLin1ELin1ELi0ELin1ELin1EEENS_9TransposeIKS6_EELi0EEEKNS_14CwiseNullaryOpINS1_18scalar_constant_opIdEES8_EEE4rowsEv, symObjAddr: 0x4B4DC, symBinAddr: 0x10004F0E4, symSize: 0x44 }
  - { offsetInCU: 0x13481A, offset: 0x13481A, size: 0x8, addend: 0x0, symName: __ZNK5Eigen13CwiseBinaryOpINS_8internal18scalar_quotient_opIddEEKNS_7ProductINS_6MatrixIdLin1ELin1ELi0ELin1ELin1EEENS_9TransposeIKS6_EELi0EEEKNS_14CwiseNullaryOpINS1_18scalar_constant_opIdEES8_EEE4colsEv, symObjAddr: 0x4B520, symBinAddr: 0x10004F128, symSize: 0x28 }
  - { offsetInCU: 0x134840, offset: 0x134840, size: 0x8, addend: 0x0, symName: __ZN5Eigen8internal10AssignmentINS_6MatrixIdLin1ELin1ELi0ELin1ELin1EEENS_13CwiseBinaryOpINS0_18scalar_quotient_opIddEEKNS_7ProductIS3_NS_9TransposeIKS3_EELi0EEEKNS_14CwiseNullaryOpINS0_18scalar_constant_opIdEES9_EEEENS0_9assign_opIddEENS0_11Dense2DenseEvE3runERS3_RKSI_RKSK_, symObjAddr: 0x4B584, symBinAddr: 0x10004F18C, symSize: 0x40 }
  - { offsetInCU: 0x134882, offset: 0x134882, size: 0x8, addend: 0x0, symName: __ZN5Eigen8internal27checkTransposeAliasing_implINS_6MatrixIdLin1ELin1ELi0ELin1ELin1EEENS_13CwiseBinaryOpINS0_18scalar_quotient_opIddEEKNS_7ProductIS3_NS_9TransposeIKS3_EELi0EEEKNS_14CwiseNullaryOpINS0_18scalar_constant_opIdEES9_EEEELb0EE3runERS9_RKSI_, symObjAddr: 0x4BA30, symBinAddr: 0x10004F638, symSize: 0x14 }
  - { offsetInCU: 0x1348AD, offset: 0x1348AD, size: 0x8, addend: 0x0, symName: __ZN5Eigen8internal9evaluatorINS_13CwiseBinaryOpINS0_18scalar_quotient_opIddEEKNS_7ProductINS_6MatrixIdLin1ELin1ELi0ELin1ELin1EEENS_9TransposeIKS7_EELi0EEEKNS_14CwiseNullaryOpINS0_18scalar_constant_opIdEES9_EEEEEC1ERKSI_, symObjAddr: 0x4BA44, symBinAddr: 0x10004F64C, symSize: 0x34 }
  - { offsetInCU: 0x1348E6, offset: 0x1348E6, size: 0x8, addend: 0x0, symName: __ZN5Eigen8internal31generic_dense_assignment_kernelINS0_9evaluatorINS_6MatrixIdLin1ELin1ELi0ELin1ELin1EEEEENS2_INS_13CwiseBinaryOpINS0_18scalar_quotient_opIddEEKNS_7ProductIS4_NS_9TransposeIKS4_EELi0EEEKNS_14CwiseNullaryOpINS0_18scalar_constant_opIdEESB_EEEEEENS0_9assign_opIddEELi0EEC1ERS5_RKSL_RKSN_RS4_, symObjAddr: 0x4BB74, symBinAddr: 0x10004F77C, symSize: 0x4C }
  - { offsetInCU: 0x13494C, offset: 0x13494C, size: 0x8, addend: 0x0, symName: __ZN5Eigen8internal9evaluatorINS_13CwiseBinaryOpINS0_18scalar_quotient_opIddEEKNS_7ProductINS_6MatrixIdLin1ELin1ELi0ELin1ELin1EEENS_9TransposeIKS7_EELi0EEEKNS_14CwiseNullaryOpINS0_18scalar_constant_opIdEES9_EEEEED1Ev, symObjAddr: 0x4BC6C, symBinAddr: 0x10004F874, symSize: 0x2C }
  - { offsetInCU: 0x134979, offset: 0x134979, size: 0x8, addend: 0x0, symName: __ZN5Eigen8internal9evaluatorINS_13CwiseBinaryOpINS0_18scalar_quotient_opIddEEKNS_7ProductINS_6MatrixIdLin1ELin1ELi0ELin1ELin1EEENS_9TransposeIKS7_EELi0EEEKNS_14CwiseNullaryOpINS0_18scalar_constant_opIdEES9_EEEEEC2ERKSI_, symObjAddr: 0x4BC98, symBinAddr: 0x10004F8A0, symSize: 0x34 }
  - { offsetInCU: 0x1349B2, offset: 0x1349B2, size: 0x8, addend: 0x0, symName: __ZN5Eigen8internal16binary_evaluatorINS_13CwiseBinaryOpINS0_18scalar_quotient_opIddEEKNS_7ProductINS_6MatrixIdLin1ELin1ELi0ELin1ELin1EEENS_9TransposeIKS7_EELi0EEEKNS_14CwiseNullaryOpINS0_18scalar_constant_opIdEES9_EEEENS0_10IndexBasedESJ_ddEC2ERKSI_, symObjAddr: 0x4BCCC, symBinAddr: 0x10004F8D4, symSize: 0x64 }
  - { offsetInCU: 0x1349EB, offset: 0x1349EB, size: 0x8, addend: 0x0, symName: __ZN5Eigen8internal14evaluator_baseINS_13CwiseBinaryOpINS0_18scalar_quotient_opIddEEKNS_7ProductINS_6MatrixIdLin1ELin1ELi0ELin1ELin1EEENS_9TransposeIKS7_EELi0EEEKNS_14CwiseNullaryOpINS0_18scalar_constant_opIdEES9_EEEEEC2Ev, symObjAddr: 0x4BD30, symBinAddr: 0x10004F938, symSize: 0x14 }
  - { offsetInCU: 0x134A15, offset: 0x134A15, size: 0x8, addend: 0x0, symName: __ZN5Eigen8internal16binary_evaluatorINS_13CwiseBinaryOpINS0_18scalar_quotient_opIddEEKNS_7ProductINS_6MatrixIdLin1ELin1ELi0ELin1ELin1EEENS_9TransposeIKS7_EELi0EEEKNS_14CwiseNullaryOpINS0_18scalar_constant_opIdEES9_EEEENS0_10IndexBasedESJ_ddE4DataC1ERKSI_, symObjAddr: 0x4BD44, symBinAddr: 0x10004F94C, symSize: 0x34 }
  - { offsetInCU: 0x134A4E, offset: 0x134A4E, size: 0x8, addend: 0x0, symName: __ZN5Eigen8internal14evaluator_baseINS_13CwiseBinaryOpINS0_18scalar_quotient_opIddEEKNS_7ProductINS_6MatrixIdLin1ELin1ELi0ELin1ELin1EEENS_9TransposeIKS7_EELi0EEEKNS_14CwiseNullaryOpINS0_18scalar_constant_opIdEES9_EEEEED2Ev, symObjAddr: 0x4BD78, symBinAddr: 0x10004F980, symSize: 0x14 }
  - { offsetInCU: 0x134A78, offset: 0x134A78, size: 0x8, addend: 0x0, symName: __ZN5Eigen8internal16binary_evaluatorINS_13CwiseBinaryOpINS0_18scalar_quotient_opIddEEKNS_7ProductINS_6MatrixIdLin1ELin1ELi0ELin1ELin1EEENS_9TransposeIKS7_EELi0EEEKNS_14CwiseNullaryOpINS0_18scalar_constant_opIdEES9_EEEENS0_10IndexBasedESJ_ddE4DataC2ERKSI_, symObjAddr: 0x4BD8C, symBinAddr: 0x10004F994, symSize: 0xA8 }
  - { offsetInCU: 0x134AB1, offset: 0x134AB1, size: 0x8, addend: 0x0, symName: __ZNK5Eigen13CwiseBinaryOpINS_8internal18scalar_quotient_opIddEEKNS_7ProductINS_6MatrixIdLin1ELin1ELi0ELin1ELin1EEENS_9TransposeIKS6_EELi0EEEKNS_14CwiseNullaryOpINS1_18scalar_constant_opIdEES8_EEE7functorEv, symObjAddr: 0x4BE34, symBinAddr: 0x10004FA3C, symSize: 0x18 }
  - { offsetInCU: 0x134AD7, offset: 0x134AD7, size: 0x8, addend: 0x0, symName: __ZNK5Eigen13CwiseBinaryOpINS_8internal18scalar_quotient_opIddEEKNS_7ProductINS_6MatrixIdLin1ELin1ELi0ELin1ELin1EEENS_9TransposeIKS6_EELi0EEEKNS_14CwiseNullaryOpINS1_18scalar_constant_opIdEES8_EEE3lhsEv, symObjAddr: 0x4BE4C, symBinAddr: 0x10004FA54, symSize: 0x14 }
  - { offsetInCU: 0x134AFD, offset: 0x134AFD, size: 0x8, addend: 0x0, symName: __ZN5Eigen8internal9evaluatorIKNS_7ProductINS_6MatrixIdLin1ELin1ELi0ELin1ELin1EEENS_9TransposeIKS4_EELi0EEEEC1ERS9_, symObjAddr: 0x4BE60, symBinAddr: 0x10004FA68, symSize: 0x34 }
  - { offsetInCU: 0x134B35, offset: 0x134B35, size: 0x8, addend: 0x0, symName: __ZNK5Eigen13CwiseBinaryOpINS_8internal18scalar_quotient_opIddEEKNS_7ProductINS_6MatrixIdLin1ELin1ELi0ELin1ELin1EEENS_9TransposeIKS6_EELi0EEEKNS_14CwiseNullaryOpINS1_18scalar_constant_opIdEES8_EEE3rhsEv, symObjAddr: 0x4BE94, symBinAddr: 0x10004FA9C, symSize: 0x18 }
  - { offsetInCU: 0x134B5B, offset: 0x134B5B, size: 0x8, addend: 0x0, symName: __ZN5Eigen8internal9evaluatorIKNS_7ProductINS_6MatrixIdLin1ELin1ELi0ELin1ELin1EEENS_9TransposeIKS4_EELi0EEEED1Ev, symObjAddr: 0x4BEAC, symBinAddr: 0x10004FAB4, symSize: 0x2C }
  - { offsetInCU: 0x134B87, offset: 0x134B87, size: 0x8, addend: 0x0, symName: __ZN5Eigen8internal9evaluatorIKNS_7ProductINS_6MatrixIdLin1ELin1ELi0ELin1ELin1EEENS_9TransposeIKS4_EELi0EEEEC2ERS9_, symObjAddr: 0x4BED8, symBinAddr: 0x10004FAE0, symSize: 0x34 }
  - { offsetInCU: 0x134BBF, offset: 0x134BBF, size: 0x8, addend: 0x0, symName: __ZN5Eigen8internal9evaluatorINS_7ProductINS_6MatrixIdLin1ELin1ELi0ELin1ELin1EEENS_9TransposeIKS4_EELi0EEEEC2ERKS8_, symObjAddr: 0x4BF0C, symBinAddr: 0x10004FB14, symSize: 0x34 }
  - { offsetInCU: 0x134BF7, offset: 0x134BF7, size: 0x8, addend: 0x0, symName: __ZN5Eigen8internal17product_evaluatorINS_7ProductINS_6MatrixIdLin1ELin1ELi0ELin1ELin1EEENS_9TransposeIKS4_EELi0EEELi8ENS_10DenseShapeES9_ddEC2ERKS8_, symObjAddr: 0x4BF40, symBinAddr: 0x10004FB48, symSize: 0x3EC }
  - { offsetInCU: 0x134C31, offset: 0x134C31, size: 0x8, addend: 0x0, symName: __ZN5Eigen8internal9evaluatorINS_6MatrixIdLin1ELin1ELi0ELin1ELin1EEEEC2Ev, symObjAddr: 0x4C32C, symBinAddr: 0x10004FF34, symSize: 0x2C }
  - { offsetInCU: 0x134C5B, offset: 0x134C5B, size: 0x8, addend: 0x0, symName: __ZN5Eigen6MatrixIdLin1ELin1ELi0ELin1ELin1EEC1IllEERKT_RKT0_, symObjAddr: 0x4C358, symBinAddr: 0x10004FF60, symSize: 0x3C }
  - { offsetInCU: 0x134CB5, offset: 0x134CB5, size: 0x8, addend: 0x0, symName: __ZN5Eigen8internal20generic_product_implINS_6MatrixIdLin1ELin1ELi0ELin1ELin1EEENS_9TransposeIKS3_EENS_10DenseShapeES7_Li8EE6evalToIS3_EEvRT_RS5_RKS6_, symObjAddr: 0x4C394, symBinAddr: 0x10004FF9C, symSize: 0x324 }
  - { offsetInCU: 0x134D03, offset: 0x134D03, size: 0x8, addend: 0x0, symName: __ZNK5Eigen7ProductINS_6MatrixIdLin1ELin1ELi0ELin1ELin1EEENS_9TransposeIKS2_EELi0EE3lhsEv, symObjAddr: 0x4C6B8, symBinAddr: 0x1000502C0, symSize: 0x60 }
  - { offsetInCU: 0x134D29, offset: 0x134D29, size: 0x8, addend: 0x0, symName: __ZNK5Eigen7ProductINS_6MatrixIdLin1ELin1ELi0ELin1ELin1EEENS_9TransposeIKS2_EELi0EE3rhsEv, symObjAddr: 0x4C718, symBinAddr: 0x100050320, symSize: 0x18 }
  - { offsetInCU: 0x134D4F, offset: 0x134D4F, size: 0x8, addend: 0x0, symName: __ZN5Eigen8internal9evaluatorINS_15PlainObjectBaseINS_6MatrixIdLin1ELin1ELi0ELin1ELin1EEEEEEC2Ev, symObjAddr: 0x4C730, symBinAddr: 0x100050338, symSize: 0x64 }
  - { offsetInCU: 0x134D79, offset: 0x134D79, size: 0x8, addend: 0x0, symName: __ZN5Eigen6MatrixIdLin1ELin1ELi0ELin1ELin1EEC2IllEERKT_RKT0_, symObjAddr: 0x4C794, symBinAddr: 0x10005039C, symSize: 0xFC }
  - { offsetInCU: 0x134DD3, offset: 0x134DD3, size: 0x8, addend: 0x0, symName: __ZN5Eigen15PlainObjectBaseINS_6MatrixIdLin1ELin1ELi0ELin1ELin1EEEE6_init2IllEEvllPNS_8internal9enable_ifILb1ET_E4typeE, symObjAddr: 0x4C890, symBinAddr: 0x100050498, symSize: 0x44 }
  - { offsetInCU: 0x134E72, offset: 0x134E72, size: 0x8, addend: 0x0, symName: __ZN5Eigen8internal20generic_product_implINS_6MatrixIdLin1ELin1ELi0ELin1ELin1EEENS_9TransposeIKS3_EENS_10DenseShapeES7_Li3EE12eval_dynamicIS3_NS0_9assign_opIddEEEEvRT_RS5_RKS6_RKT0_, symObjAddr: 0x4C8D4, symBinAddr: 0x1000504DC, symSize: 0x314 }
  - { offsetInCU: 0x134F3C, offset: 0x134F3C, size: 0x8, addend: 0x0, symName: __ZN5Eigen9DenseBaseINS_6MatrixIdLin1ELin1ELi0ELin1ELin1EEEE7setZeroEv, symObjAddr: 0x4CBE8, symBinAddr: 0x1000507F0, symSize: 0x214 }
  - { offsetInCU: 0x134F9C, offset: 0x134F9C, size: 0x8, addend: 0x0, symName: __ZN5Eigen8internal20generic_product_implINS_6MatrixIdLin1ELin1ELi0ELin1ELin1EEENS_9TransposeIKS3_EENS_10DenseShapeES7_Li8EE13scaleAndAddToIS3_EEvRT_RS5_RKS6_RKd, symObjAddr: 0x4CDFC, symBinAddr: 0x100050A04, symSize: 0x880 }
  - { offsetInCU: 0x1350F7, offset: 0x1350F7, size: 0x8, addend: 0x0, symName: __ZN5Eigen8internal20generic_product_implINS_6MatrixIdLin1ELin1ELi0ELin1ELin1EEENS_9TransposeIKS3_EENS_10DenseShapeES7_Li3EE17eval_dynamic_implIS3_S3_S6_NS0_9assign_opIddEEdEEvRT_RKT0_RKT1_RKT2_RKT3_NS0_10false_typeE, symObjAddr: 0x4D67C, symBinAddr: 0x100051284, symSize: 0x250 }
  - { offsetInCU: 0x135195, offset: 0x135195, size: 0x8, addend: 0x0, symName: __ZN5Eigen8internal11blas_traitsINS_6MatrixIdLin1ELin1ELi0ELin1ELin1EEEE7extractERKS3_, symObjAddr: 0x4D8CC, symBinAddr: 0x1000514D4, symSize: 0x14 }
  - { offsetInCU: 0x1351B9, offset: 0x1351B9, size: 0x8, addend: 0x0, symName: __ZNK5Eigen9DenseBaseINS_6MatrixIdLin1ELin1ELi0ELin1ELin1EEEE11conjugateIfILb0EEENS_8internal11conditionalIXT_ERKS2_S8_E4typeEv, symObjAddr: 0x4D8E0, symBinAddr: 0x1000514E8, symSize: 0x24 }
  - { offsetInCU: 0x1351E9, offset: 0x1351E9, size: 0x8, addend: 0x0, symName: __ZN5Eigen8internal11blas_traitsINS_9TransposeIKNS_6MatrixIdLin1ELin1ELi0ELin1ELin1EEEEEE7extractERKS6_, symObjAddr: 0x4D904, symBinAddr: 0x10005150C, symSize: 0x208 }
  - { offsetInCU: 0x13520E, offset: 0x13520E, size: 0x8, addend: 0x0, symName: __ZNK5Eigen9DenseBaseINS_9TransposeIKNS_6MatrixIdLin1ELin1ELi0ELin1ELin1EEEEEE11conjugateIfILb0EEENS_8internal11conditionalIXT_ERKS5_SB_E4typeEv, symObjAddr: 0x4DB0C, symBinAddr: 0x100051714, symSize: 0x24 }
  - { offsetInCU: 0x13523E, offset: 0x13523E, size: 0x8, addend: 0x0, symName: __ZN5Eigen8internal11blas_traitsINS_6MatrixIdLin1ELin1ELi0ELin1ELin1EEEE19extractScalarFactorERKS3_, symObjAddr: 0x4DB30, symBinAddr: 0x100051738, symSize: 0x14 }
  - { offsetInCU: 0x13525E, offset: 0x13525E, size: 0x8, addend: 0x0, symName: __ZN5Eigen8internal11blas_traitsINS_9TransposeIKNS_6MatrixIdLin1ELin1ELi0ELin1ELin1EEEEEE19extractScalarFactorERKS6_, symObjAddr: 0x4DB44, symBinAddr: 0x10005174C, symSize: 0x28 }
  - { offsetInCU: 0x135282, offset: 0x135282, size: 0x8, addend: 0x0, symName: __ZNK5Eigen9TransposeIKNS_6MatrixIdLin1ELin1ELi0ELin1ELin1EEEE16nestedExpressionEv, symObjAddr: 0x4DB6C, symBinAddr: 0x100051774, symSize: 0x60 }
  - { offsetInCU: 0x1352A8, offset: 0x1352A8, size: 0x8, addend: 0x0, symName: __ZNK5Eigen10MatrixBaseINS_6MatrixIdLin1ELin1ELi0ELin1ELin1EEEE11lazyProductINS_9TransposeIKS2_EEEEKNS_7ProductIS2_T_Li1EEERKNS0_IS9_EE, symObjAddr: 0x4E038, symBinAddr: 0x100051C40, symSize: 0x224 }
  - { offsetInCU: 0x1352EA, offset: 0x1352EA, size: 0x8, addend: 0x0, symName: __ZN5Eigen8internal9evaluatorINS_7ProductINS_6MatrixIdLin1ELin1ELi0ELin1ELin1EEENS_9TransposeIKS4_EELi1EEEEC1ERKS8_, symObjAddr: 0x4E25C, symBinAddr: 0x100051E64, symSize: 0x34 }
  - { offsetInCU: 0x135322, offset: 0x135322, size: 0x8, addend: 0x0, symName: __ZN5Eigen8internal41restricted_packet_dense_assignment_kernelINS0_9evaluatorINS_6MatrixIdLin1ELin1ELi0ELin1ELin1EEEEENS2_INS_7ProductIS4_NS_9TransposeIKS4_EELi1EEEEENS0_9assign_opIddEEEC1ERS5_RKSB_RKSD_RS4_, symObjAddr: 0x4E38C, symBinAddr: 0x100051F94, symSize: 0x4C }
  - { offsetInCU: 0x135388, offset: 0x135388, size: 0x8, addend: 0x0, symName: __ZN5Eigen8internal9evaluatorINS_7ProductINS_6MatrixIdLin1ELin1ELi0ELin1ELin1EEENS_9TransposeIKS4_EELi1EEEED1Ev, symObjAddr: 0x4E8FC, symBinAddr: 0x100052504, symSize: 0x2C }
  - { offsetInCU: 0x1353B4, offset: 0x1353B4, size: 0x8, addend: 0x0, symName: __ZN5Eigen8internal9evaluatorINS_7ProductINS_6MatrixIdLin1ELin1ELi0ELin1ELin1EEENS_9TransposeIKS4_EELi1EEEEC2ERKS8_, symObjAddr: 0x4E928, symBinAddr: 0x100052530, symSize: 0x34 }
  - { offsetInCU: 0x1353EC, offset: 0x1353EC, size: 0x8, addend: 0x0, symName: __ZN5Eigen8internal17product_evaluatorINS_7ProductINS_6MatrixIdLin1ELin1ELi0ELin1ELin1EEENS_9TransposeIKS4_EELi1EEELi8ENS_10DenseShapeES9_ddEC2ERKS8_, symObjAddr: 0x4E95C, symBinAddr: 0x100052564, symSize: 0x1D4 }
  - { offsetInCU: 0x135425, offset: 0x135425, size: 0x8, addend: 0x0, symName: __ZN5Eigen8internal14evaluator_baseINS_7ProductINS_6MatrixIdLin1ELin1ELi0ELin1ELin1EEENS_9TransposeIKS4_EELi1EEEEC2Ev, symObjAddr: 0x4EB30, symBinAddr: 0x100052738, symSize: 0x14 }
  - { offsetInCU: 0x13544F, offset: 0x13544F, size: 0x8, addend: 0x0, symName: __ZNK5Eigen7ProductINS_6MatrixIdLin1ELin1ELi0ELin1ELin1EEENS_9TransposeIKS2_EELi1EE3lhsEv, symObjAddr: 0x4EB44, symBinAddr: 0x10005274C, symSize: 0x60 }
  - { offsetInCU: 0x135475, offset: 0x135475, size: 0x8, addend: 0x0, symName: __ZNK5Eigen7ProductINS_6MatrixIdLin1ELin1ELi0ELin1ELin1EEENS_9TransposeIKS2_EELi1EE3rhsEv, symObjAddr: 0x4EBA4, symBinAddr: 0x1000527AC, symSize: 0x18 }
  - { offsetInCU: 0x13549B, offset: 0x13549B, size: 0x8, addend: 0x0, symName: __ZN5Eigen8internal9evaluatorINS_9TransposeIKNS_6MatrixIdLin1ELin1ELi0ELin1ELin1EEEEEEC1ERKS6_, symObjAddr: 0x4EBBC, symBinAddr: 0x1000527C4, symSize: 0x34 }
  - { offsetInCU: 0x1354D3, offset: 0x1354D3, size: 0x8, addend: 0x0, symName: __ZN5Eigen8internal9evaluatorINS_9TransposeIKNS_6MatrixIdLin1ELin1ELi0ELin1ELin1EEEEEED1Ev, symObjAddr: 0x4EBF0, symBinAddr: 0x1000527F8, symSize: 0x2C }
  - { offsetInCU: 0x1354FF, offset: 0x1354FF, size: 0x8, addend: 0x0, symName: __ZN5Eigen8internal14evaluator_baseINS_7ProductINS_6MatrixIdLin1ELin1ELi0ELin1ELin1EEENS_9TransposeIKS4_EELi1EEEED2Ev, symObjAddr: 0x4EC1C, symBinAddr: 0x100052824, symSize: 0x14 }
  - { offsetInCU: 0x135529, offset: 0x135529, size: 0x8, addend: 0x0, symName: __ZN5Eigen8internal9evaluatorINS_9TransposeIKNS_6MatrixIdLin1ELin1ELi0ELin1ELin1EEEEEEC2ERKS6_, symObjAddr: 0x4EC30, symBinAddr: 0x100052838, symSize: 0x34 }
  - { offsetInCU: 0x135561, offset: 0x135561, size: 0x8, addend: 0x0, symName: __ZN5Eigen8internal15unary_evaluatorINS_9TransposeIKNS_6MatrixIdLin1ELin1ELi0ELin1ELin1EEEEENS0_10IndexBasedEdEC2ERKS6_, symObjAddr: 0x4EC64, symBinAddr: 0x10005286C, symSize: 0x6C }
  - { offsetInCU: 0x13559A, offset: 0x13559A, size: 0x8, addend: 0x0, symName: __ZN5Eigen8internal14evaluator_baseINS_9TransposeIKNS_6MatrixIdLin1ELin1ELi0ELin1ELin1EEEEEEC2Ev, symObjAddr: 0x4ECD0, symBinAddr: 0x1000528D8, symSize: 0x14 }
  - { offsetInCU: 0x1355C4, offset: 0x1355C4, size: 0x8, addend: 0x0, symName: __ZN5Eigen8internal14evaluator_baseINS_9TransposeIKNS_6MatrixIdLin1ELin1ELi0ELin1ELin1EEEEEED2Ev, symObjAddr: 0x4ECE4, symBinAddr: 0x1000528EC, symSize: 0x14 }
  - { offsetInCU: 0x1355EE, offset: 0x1355EE, size: 0x8, addend: 0x0, symName: __ZN5Eigen8internal9evaluatorINS_9TransposeIKNS_6MatrixIdLin1ELin1ELi0ELin1ELin1EEEEEED2Ev, symObjAddr: 0x4ECF8, symBinAddr: 0x100052900, symSize: 0x2C }
  - { offsetInCU: 0x13561A, offset: 0x13561A, size: 0x8, addend: 0x0, symName: __ZN5Eigen8internal15unary_evaluatorINS_9TransposeIKNS_6MatrixIdLin1ELin1ELi0ELin1ELin1EEEEENS0_10IndexBasedEdED2Ev, symObjAddr: 0x4ED24, symBinAddr: 0x10005292C, symSize: 0x34 }
  - { offsetInCU: 0x135646, offset: 0x135646, size: 0x8, addend: 0x0, symName: __ZNK5Eigen7ProductINS_6MatrixIdLin1ELin1ELi0ELin1ELin1EEENS_9TransposeIKS2_EELi1EE4rowsEv, symObjAddr: 0x4ED58, symBinAddr: 0x100052960, symSize: 0x64 }
  - { offsetInCU: 0x13566C, offset: 0x13566C, size: 0x8, addend: 0x0, symName: __ZNK5Eigen7ProductINS_6MatrixIdLin1ELin1ELi0ELin1ELin1EEENS_9TransposeIKS2_EELi1EE4colsEv, symObjAddr: 0x4EDBC, symBinAddr: 0x1000529C4, symSize: 0x28 }
  - { offsetInCU: 0x135692, offset: 0x135692, size: 0x8, addend: 0x0, symName: __ZN5Eigen8internal41restricted_packet_dense_assignment_kernelINS0_9evaluatorINS_6MatrixIdLin1ELin1ELi0ELin1ELin1EEEEENS2_INS_7ProductIS4_NS_9TransposeIKS4_EELi1EEEEENS0_9assign_opIddEEEC2ERS5_RKSB_RKSD_RS4_, symObjAddr: 0x4EDE4, symBinAddr: 0x1000529EC, symSize: 0x4C }
  - { offsetInCU: 0x1356F8, offset: 0x1356F8, size: 0x8, addend: 0x0, symName: __ZN5Eigen8internal31generic_dense_assignment_kernelINS0_9evaluatorINS_6MatrixIdLin1ELin1ELi0ELin1ELin1EEEEENS2_INS_7ProductIS4_NS_9TransposeIKS4_EELi1EEEEENS0_9assign_opIddEELi1EEC2ERS5_RKSB_RKSD_RS4_, symObjAddr: 0x4EE30, symBinAddr: 0x100052A38, symSize: 0x14C }
  - { offsetInCU: 0x13575E, offset: 0x13575E, size: 0x8, addend: 0x0, symName: __ZNK5Eigen8internal31generic_dense_assignment_kernelINS0_9evaluatorINS_6MatrixIdLin1ELin1ELi0ELin1ELin1EEEEENS2_INS_7ProductIS4_NS_9TransposeIKS4_EELi1EEEEENS0_9assign_opIddEELi1EE10dstDataPtrEv, symObjAddr: 0x4EF7C, symBinAddr: 0x100052B84, symSize: 0x68 }
  - { offsetInCU: 0x135784, offset: 0x135784, size: 0x8, addend: 0x0, symName: __ZNK5Eigen8internal31generic_dense_assignment_kernelINS0_9evaluatorINS_6MatrixIdLin1ELin1ELi0ELin1ELin1EEEEENS2_INS_7ProductIS4_NS_9TransposeIKS4_EELi1EEEEENS0_9assign_opIddEELi1EE9innerSizeEv, symObjAddr: 0x4EFE4, symBinAddr: 0x100052BEC, symSize: 0x68 }
  - { offsetInCU: 0x1357AA, offset: 0x1357AA, size: 0x8, addend: 0x0, symName: __ZNK5Eigen8internal31generic_dense_assignment_kernelINS0_9evaluatorINS_6MatrixIdLin1ELin1ELi0ELin1ELin1EEEEENS2_INS_7ProductIS4_NS_9TransposeIKS4_EELi1EEEEENS0_9assign_opIddEELi1EE9outerSizeEv, symObjAddr: 0x4F04C, symBinAddr: 0x100052C54, symSize: 0x84 }
  - { offsetInCU: 0x1357D0, offset: 0x1357D0, size: 0x8, addend: 0x0, symName: __ZNK5Eigen8internal31generic_dense_assignment_kernelINS0_9evaluatorINS_6MatrixIdLin1ELin1ELi0ELin1ELin1EEEEENS2_INS_7ProductIS4_NS_9TransposeIKS4_EELi1EEEEENS0_9assign_opIddEELi1EE11outerStrideEv, symObjAddr: 0x4F0D0, symBinAddr: 0x100052CD8, symSize: 0x68 }
  - { offsetInCU: 0x1357F6, offset: 0x1357F6, size: 0x8, addend: 0x0, symName: __ZN5Eigen8internal31generic_dense_assignment_kernelINS0_9evaluatorINS_6MatrixIdLin1ELin1ELi0ELin1ELin1EEEEENS2_INS_7ProductIS4_NS_9TransposeIKS4_EELi1EEEEENS0_9assign_opIddEELi1EE23assignCoeffByOuterInnerEll, symObjAddr: 0x4F138, symBinAddr: 0x100052D40, symSize: 0x60 }
  - { offsetInCU: 0x135858, offset: 0x135858, size: 0x8, addend: 0x0, symName: __ZN5Eigen8internal31generic_dense_assignment_kernelINS0_9evaluatorINS_6MatrixIdLin1ELin1ELi0ELin1ELin1EEEEENS2_INS_7ProductIS4_NS_9TransposeIKS4_EELi1EEEEENS0_9assign_opIddEELi1EE24assignPacketByOuterInnerILi16ELi0E19__simd128_float64_tEEvll, symObjAddr: 0x4F198, symBinAddr: 0x100052DA0, symSize: 0x60 }
  - { offsetInCU: 0x1358D7, offset: 0x1358D7, size: 0x8, addend: 0x0, symName: __ZNK5Eigen9DenseBaseINS_6MatrixIdLin1ELin1ELi0ELin1ELin1EEEE9outerSizeEv, symObjAddr: 0x4F1F8, symBinAddr: 0x100052E00, symSize: 0x24 }
  - { offsetInCU: 0x1358FD, offset: 0x1358FD, size: 0x8, addend: 0x0, symName: __ZN5Eigen8internal31generic_dense_assignment_kernelINS0_9evaluatorINS_6MatrixIdLin1ELin1ELi0ELin1ELin1EEEEENS2_INS_7ProductIS4_NS_9TransposeIKS4_EELi1EEEEENS0_9assign_opIddEELi1EE20rowIndexByOuterInnerEll, symObjAddr: 0x4F21C, symBinAddr: 0x100052E24, symSize: 0x18 }
  - { offsetInCU: 0x135930, offset: 0x135930, size: 0x8, addend: 0x0, symName: __ZN5Eigen8internal31generic_dense_assignment_kernelINS0_9evaluatorINS_6MatrixIdLin1ELin1ELi0ELin1ELin1EEEEENS2_INS_7ProductIS4_NS_9TransposeIKS4_EELi1EEEEENS0_9assign_opIddEELi1EE20colIndexByOuterInnerEll, symObjAddr: 0x4F234, symBinAddr: 0x100052E3C, symSize: 0x18 }
  - { offsetInCU: 0x135963, offset: 0x135963, size: 0x8, addend: 0x0, symName: __ZN5Eigen8internal31generic_dense_assignment_kernelINS0_9evaluatorINS_6MatrixIdLin1ELin1ELi0ELin1ELin1EEEEENS2_INS_7ProductIS4_NS_9TransposeIKS4_EELi1EEEEENS0_9assign_opIddEELi1EE11assignCoeffEll, symObjAddr: 0x4F24C, symBinAddr: 0x100052E54, symSize: 0x2EC }
  - { offsetInCU: 0x1359AA, offset: 0x1359AA, size: 0x8, addend: 0x0, symName: __ZN5Eigen8internal9evaluatorINS_15PlainObjectBaseINS_6MatrixIdLin1ELin1ELi0ELin1ELin1EEEEEE8coeffRefEll, symObjAddr: 0x4F538, symBinAddr: 0x100053140, symSize: 0x98 }
  - { offsetInCU: 0x1359EC, offset: 0x1359EC, size: 0x8, addend: 0x0, symName: __ZNK5Eigen8internal17product_evaluatorINS_7ProductINS_6MatrixIdLin1ELin1ELi0ELin1ELin1EEENS_9TransposeIKS4_EELi1EEELi8ENS_10DenseShapeES9_ddE5coeffEll, symObjAddr: 0x4F5D0, symBinAddr: 0x1000531D8, symSize: 0x3E8 }
  - { offsetInCU: 0x135A33, offset: 0x135A33, size: 0x8, addend: 0x0, symName: __ZNK5Eigen9DenseBaseINS_6MatrixIdLin1ELin1ELi0ELin1ELin1EEEE3rowEl, symObjAddr: 0x4F9B8, symBinAddr: 0x1000535C0, symSize: 0x3C }
  - { offsetInCU: 0x135A68, offset: 0x135A68, size: 0x8, addend: 0x0, symName: __ZNK5Eigen9DenseBaseINS_5BlockIKNS_6MatrixIdLin1ELin1ELi0ELin1ELin1EEELi1ELin1ELb0EEEE9transposeEv, symObjAddr: 0x4F9F4, symBinAddr: 0x1000535FC, symSize: 0x34 }
  - { offsetInCU: 0x135A90, offset: 0x135A90, size: 0x8, addend: 0x0, symName: __ZNK5Eigen10MatrixBaseINS_9TransposeIKNS_5BlockIKNS_6MatrixIdLin1ELin1ELi0ELin1ELin1EEELi1ELin1ELb0EEEEEE12cwiseProductINS2_IKNS1_IS5_EELin1ELi1ELb0EEEEEKNS_13CwiseBinaryOpINS_8internal17scalar_product_opIdNSF_6traitsIT_E6ScalarEEEKS8_KSI_EERKNS0_ISI_EE, symObjAddr: 0x4FA28, symBinAddr: 0x100053630, symSize: 0x214 }
  - { offsetInCU: 0x135ACF, offset: 0x135ACF, size: 0x8, addend: 0x0, symName: __ZNK5Eigen9DenseBaseINS_9TransposeIKNS_6MatrixIdLin1ELin1ELi0ELin1ELin1EEEEEE3colEl, symObjAddr: 0x4FC3C, symBinAddr: 0x100053844, symSize: 0x3C }
  - { offsetInCU: 0x135B04, offset: 0x135B04, size: 0x8, addend: 0x0, symName: __ZNK5Eigen9DenseBaseINS_13CwiseBinaryOpINS_8internal17scalar_product_opIddEEKNS_9TransposeIKNS_5BlockIKNS_6MatrixIdLin1ELin1ELi0ELin1ELin1EEELi1ELin1ELb0EEEEEKNS6_IKNS5_IS9_EELin1ELi1ELb0EEEEEE3sumEv, symObjAddr: 0x4FC78, symBinAddr: 0x100053880, symSize: 0x230 }
  - { offsetInCU: 0x135B2E, offset: 0x135B2E, size: 0x8, addend: 0x0, symName: __ZN5Eigen5BlockIKNS_6MatrixIdLin1ELin1ELi0ELin1ELin1EEELi1ELin1ELb0EEC1ERS3_l, symObjAddr: 0x4FEA8, symBinAddr: 0x100053AB0, symSize: 0x3C }
  - { offsetInCU: 0x135B74, offset: 0x135B74, size: 0x8, addend: 0x0, symName: __ZN5Eigen5BlockIKNS_6MatrixIdLin1ELin1ELi0ELin1ELin1EEELi1ELin1ELb0EEC2ERS3_l, symObjAddr: 0x4FEE4, symBinAddr: 0x100053AEC, symSize: 0xD0 }
  - { offsetInCU: 0x135BBA, offset: 0x135BBA, size: 0x8, addend: 0x0, symName: __ZN5Eigen9BlockImplIKNS_6MatrixIdLin1ELin1ELi0ELin1ELin1EEELi1ELin1ELb0ENS_5DenseEEC2ERS3_l, symObjAddr: 0x4FFB4, symBinAddr: 0x100053BBC, symSize: 0x3C }
  - { offsetInCU: 0x135C00, offset: 0x135C00, size: 0x8, addend: 0x0, symName: __ZN5Eigen8internal15BlockImpl_denseIKNS_6MatrixIdLin1ELin1ELi0ELin1ELin1EEELi1ELin1ELb0ELb1EEC2ERS4_l, symObjAddr: 0x4FFF0, symBinAddr: 0x100053BF8, symSize: 0xF8 }
  - { offsetInCU: 0x135C48, offset: 0x135C48, size: 0x8, addend: 0x0, symName: __ZN5Eigen7MapBaseINS_5BlockIKNS_6MatrixIdLin1ELin1ELi0ELin1ELin1EEELi1ELin1ELb0EEELi0EEC2EPKdll, symObjAddr: 0x500E8, symBinAddr: 0x100053CF0, symSize: 0x17C }
  - { offsetInCU: 0x135C9C, offset: 0x135C9C, size: 0x8, addend: 0x0, symName: __ZN5Eigen8internal15BlockImpl_denseIKNS_6MatrixIdLin1ELin1ELi0ELin1ELin1EEELi1ELin1ELb0ELb1EE4initEv, symObjAddr: 0x50264, symBinAddr: 0x100053E6C, symSize: 0xB0 }
  - { offsetInCU: 0x135CC2, offset: 0x135CC2, size: 0x8, addend: 0x0, symName: __ZN5Eigen10MatrixBaseINS_5BlockIKNS_6MatrixIdLin1ELin1ELi0ELin1ELin1EEELi1ELin1ELb0EEEEC2Ev, symObjAddr: 0x50314, symBinAddr: 0x100053F1C, symSize: 0x2C }
  - { offsetInCU: 0x135CEC, offset: 0x135CEC, size: 0x8, addend: 0x0, symName: __ZNK5Eigen7MapBaseINS_5BlockIKNS_6MatrixIdLin1ELin1ELi0ELin1ELin1EEELi1ELin1ELb0EEELi0EE11checkSanityIS5_EEvNS_8internal9enable_ifIXeqsr8internal6traitsIT_EE9AlignmentLi0EEPvE4typeE, symObjAddr: 0x50340, symBinAddr: 0x100053F48, symSize: 0x14 }
  - { offsetInCU: 0x135D25, offset: 0x135D25, size: 0x8, addend: 0x0, symName: __ZN5Eigen9DenseBaseINS_5BlockIKNS_6MatrixIdLin1ELin1ELi0ELin1ELin1EEELi1ELin1ELb0EEEEC2Ev, symObjAddr: 0x50354, symBinAddr: 0x100053F5C, symSize: 0x14 }
  - { offsetInCU: 0x135D4F, offset: 0x135D4F, size: 0x8, addend: 0x0, symName: __ZNK5Eigen9EigenBaseINS_5BlockIKNS_6MatrixIdLin1ELin1ELi0ELin1ELin1EEELi1ELin1ELb0EEEE7derivedEv, symObjAddr: 0x50368, symBinAddr: 0x100053F70, symSize: 0x14 }
  - { offsetInCU: 0x135D75, offset: 0x135D75, size: 0x8, addend: 0x0, symName: __ZN5Eigen9TransposeIKNS_5BlockIKNS_6MatrixIdLin1ELin1ELi0ELin1ELin1EEELi1ELin1ELb0EEEEC1ERS6_, symObjAddr: 0x5037C, symBinAddr: 0x100053F84, symSize: 0x34 }
  - { offsetInCU: 0x135DAD, offset: 0x135DAD, size: 0x8, addend: 0x0, symName: __ZN5Eigen9TransposeIKNS_5BlockIKNS_6MatrixIdLin1ELin1ELi0ELin1ELin1EEELi1ELin1ELb0EEEEC2ERS6_, symObjAddr: 0x503B0, symBinAddr: 0x100053FB8, symSize: 0x40 }
  - { offsetInCU: 0x135DE5, offset: 0x135DE5, size: 0x8, addend: 0x0, symName: __ZN5Eigen13TransposeImplIKNS_5BlockIKNS_6MatrixIdLin1ELin1ELi0ELin1ELin1EEELi1ELin1ELb0EEENS_5DenseEEC2Ev, symObjAddr: 0x503F0, symBinAddr: 0x100053FF8, symSize: 0x2C }
  - { offsetInCU: 0x135E0F, offset: 0x135E0F, size: 0x8, addend: 0x0, symName: __ZN5Eigen10MatrixBaseINS_9TransposeIKNS_5BlockIKNS_6MatrixIdLin1ELin1ELi0ELin1ELin1EEELi1ELin1ELb0EEEEEEC2Ev, symObjAddr: 0x5041C, symBinAddr: 0x100054024, symSize: 0x2C }
  - { offsetInCU: 0x135E39, offset: 0x135E39, size: 0x8, addend: 0x0, symName: __ZN5Eigen9DenseBaseINS_9TransposeIKNS_5BlockIKNS_6MatrixIdLin1ELin1ELi0ELin1ELin1EEELi1ELin1ELb0EEEEEEC2Ev, symObjAddr: 0x50448, symBinAddr: 0x100054050, symSize: 0x14 }
  - { offsetInCU: 0x135E63, offset: 0x135E63, size: 0x8, addend: 0x0, symName: __ZNK5Eigen9EigenBaseINS_9TransposeIKNS_5BlockIKNS_6MatrixIdLin1ELin1ELi0ELin1ELin1EEELi1ELin1ELb0EEEEEE7derivedEv, symObjAddr: 0x5045C, symBinAddr: 0x100054064, symSize: 0x14 }
  - { offsetInCU: 0x135E89, offset: 0x135E89, size: 0x8, addend: 0x0, symName: __ZNK5Eigen9EigenBaseINS_5BlockIKNS_9TransposeIKNS_6MatrixIdLin1ELin1ELi0ELin1ELin1EEEEELin1ELi1ELb0EEEE7derivedEv, symObjAddr: 0x50470, symBinAddr: 0x100054078, symSize: 0x14 }
  - { offsetInCU: 0x135EAF, offset: 0x135EAF, size: 0x8, addend: 0x0, symName: __ZN5Eigen8internal17scalar_product_opIddEC1Ev, symObjAddr: 0x50484, symBinAddr: 0x10005408C, symSize: 0x2C }
  - { offsetInCU: 0x135ED9, offset: 0x135ED9, size: 0x8, addend: 0x0, symName: __ZN5Eigen13CwiseBinaryOpINS_8internal17scalar_product_opIddEEKNS_9TransposeIKNS_5BlockIKNS_6MatrixIdLin1ELin1ELi0ELin1ELin1EEELi1ELin1ELb0EEEEEKNS5_IKNS4_IS8_EELin1ELi1ELb0EEEEC1ERSC_RSG_RKS3_, symObjAddr: 0x504B0, symBinAddr: 0x1000540B8, symSize: 0x44 }
  - { offsetInCU: 0x135F2D, offset: 0x135F2D, size: 0x8, addend: 0x0, symName: __ZN5Eigen8internal17scalar_product_opIddEC2Ev, symObjAddr: 0x504F4, symBinAddr: 0x1000540FC, symSize: 0x14 }
  - { offsetInCU: 0x135F57, offset: 0x135F57, size: 0x8, addend: 0x0, symName: __ZN5Eigen13CwiseBinaryOpINS_8internal17scalar_product_opIddEEKNS_9TransposeIKNS_5BlockIKNS_6MatrixIdLin1ELin1ELi0ELin1ELin1EEELi1ELin1ELb0EEEEEKNS5_IKNS4_IS8_EELin1ELi1ELb0EEEEC2ERSC_RSG_RKS3_, symObjAddr: 0x50508, symBinAddr: 0x100054110, symSize: 0x108 }
  - { offsetInCU: 0x135FB0, offset: 0x135FB0, size: 0x8, addend: 0x0, symName: __ZN5Eigen17CwiseBinaryOpImplINS_8internal17scalar_product_opIddEEKNS_9TransposeIKNS_5BlockIKNS_6MatrixIdLin1ELin1ELi0ELin1ELin1EEELi1ELin1ELb0EEEEEKNS5_IKNS4_IS8_EELin1ELi1ELb0EEENS_5DenseEEC2Ev, symObjAddr: 0x50610, symBinAddr: 0x100054218, symSize: 0x2C }
  - { offsetInCU: 0x135FDC, offset: 0x135FDC, size: 0x8, addend: 0x0, symName: __ZNK5Eigen9TransposeIKNS_5BlockIKNS_6MatrixIdLin1ELin1ELi0ELin1ELin1EEELi1ELin1ELb0EEEE4rowsEv, symObjAddr: 0x5063C, symBinAddr: 0x100054244, symSize: 0x24 }
  - { offsetInCU: 0x136002, offset: 0x136002, size: 0x8, addend: 0x0, symName: __ZNK5Eigen7MapBaseINS_5BlockIKNS_9TransposeIKNS_6MatrixIdLin1ELin1ELi0ELin1ELin1EEEEELin1ELi1ELb0EEELi0EE4rowsEv, symObjAddr: 0x50660, symBinAddr: 0x100054268, symSize: 0x28 }
  - { offsetInCU: 0x136028, offset: 0x136028, size: 0x8, addend: 0x0, symName: __ZNK5Eigen9TransposeIKNS_5BlockIKNS_6MatrixIdLin1ELin1ELi0ELin1ELin1EEELi1ELin1ELb0EEEE4colsEv, symObjAddr: 0x50688, symBinAddr: 0x100054290, symSize: 0x24 }
  - { offsetInCU: 0x13604E, offset: 0x13604E, size: 0x8, addend: 0x0, symName: __ZNK5Eigen7MapBaseINS_5BlockIKNS_9TransposeIKNS_6MatrixIdLin1ELin1ELi0ELin1ELin1EEEEELin1ELi1ELb0EEELi0EE4colsEv, symObjAddr: 0x506AC, symBinAddr: 0x1000542B4, symSize: 0x20 }
  - { offsetInCU: 0x136074, offset: 0x136074, size: 0x8, addend: 0x0, symName: __ZN5Eigen10MatrixBaseINS_13CwiseBinaryOpINS_8internal17scalar_product_opIddEEKNS_9TransposeIKNS_5BlockIKNS_6MatrixIdLin1ELin1ELi0ELin1ELin1EEELi1ELin1ELb0EEEEEKNS6_IKNS5_IS9_EELin1ELi1ELb0EEEEEEC2Ev, symObjAddr: 0x506CC, symBinAddr: 0x1000542D4, symSize: 0x2C }
  - { offsetInCU: 0x13609E, offset: 0x13609E, size: 0x8, addend: 0x0, symName: __ZN5Eigen9DenseBaseINS_13CwiseBinaryOpINS_8internal17scalar_product_opIddEEKNS_9TransposeIKNS_5BlockIKNS_6MatrixIdLin1ELin1ELi0ELin1ELin1EEELi1ELin1ELb0EEEEEKNS6_IKNS5_IS9_EELin1ELi1ELb0EEEEEEC2Ev, symObjAddr: 0x506F8, symBinAddr: 0x100054300, symSize: 0x14 }
  - { offsetInCU: 0x1360C8, offset: 0x1360C8, size: 0x8, addend: 0x0, symName: __ZNK5Eigen7MapBaseINS_5BlockIKNS_6MatrixIdLin1ELin1ELi0ELin1ELin1EEELi1ELin1ELb0EEELi0EE4colsEv, symObjAddr: 0x5070C, symBinAddr: 0x100054314, symSize: 0x28 }
  - { offsetInCU: 0x1360EE, offset: 0x1360EE, size: 0x8, addend: 0x0, symName: __ZNK5Eigen7MapBaseINS_5BlockIKNS_6MatrixIdLin1ELin1ELi0ELin1ELin1EEELi1ELin1ELb0EEELi0EE4rowsEv, symObjAddr: 0x50734, symBinAddr: 0x10005433C, symSize: 0x20 }
  - { offsetInCU: 0x136114, offset: 0x136114, size: 0x8, addend: 0x0, symName: __ZN5Eigen5BlockIKNS_9TransposeIKNS_6MatrixIdLin1ELin1ELi0ELin1ELin1EEEEELin1ELi1ELb0EEC1ERS6_l, symObjAddr: 0x50754, symBinAddr: 0x10005435C, symSize: 0x3C }
  - { offsetInCU: 0x13615A, offset: 0x13615A, size: 0x8, addend: 0x0, symName: __ZN5Eigen5BlockIKNS_9TransposeIKNS_6MatrixIdLin1ELin1ELi0ELin1ELin1EEEEELin1ELi1ELb0EEC2ERS6_l, symObjAddr: 0x50790, symBinAddr: 0x100054398, symSize: 0xB0 }
  - { offsetInCU: 0x1361A0, offset: 0x1361A0, size: 0x8, addend: 0x0, symName: __ZN5Eigen9BlockImplIKNS_9TransposeIKNS_6MatrixIdLin1ELin1ELi0ELin1ELin1EEEEELin1ELi1ELb0ENS_5DenseEEC2ERS6_l, symObjAddr: 0x50840, symBinAddr: 0x100054448, symSize: 0x3C }
  - { offsetInCU: 0x1361E6, offset: 0x1361E6, size: 0x8, addend: 0x0, symName: __ZN5Eigen8internal15BlockImpl_denseIKNS_9TransposeIKNS_6MatrixIdLin1ELin1ELi0ELin1ELin1EEEEELin1ELi1ELb0ELb1EEC2ERS7_l, symObjAddr: 0x5087C, symBinAddr: 0x100054484, symSize: 0xB8 }
  - { offsetInCU: 0x13622E, offset: 0x13622E, size: 0x8, addend: 0x0, symName: __ZNK5Eigen13TransposeImplIKNS_6MatrixIdLin1ELin1ELi0ELin1ELin1EEENS_5DenseEE4dataEv, symObjAddr: 0x50934, symBinAddr: 0x10005453C, symSize: 0x2C }
  - { offsetInCU: 0x136254, offset: 0x136254, size: 0x8, addend: 0x0, symName: __ZNK5Eigen13TransposeImplIKNS_6MatrixIdLin1ELin1ELi0ELin1ELin1EEENS_5DenseEE11innerStrideEv, symObjAddr: 0x50960, symBinAddr: 0x100054568, symSize: 0x2C }
  - { offsetInCU: 0x13627A, offset: 0x13627A, size: 0x8, addend: 0x0, symName: __ZN5Eigen7MapBaseINS_5BlockIKNS_9TransposeIKNS_6MatrixIdLin1ELin1ELi0ELin1ELin1EEEEELin1ELi1ELb0EEELi0EEC2EPKdll, symObjAddr: 0x5098C, symBinAddr: 0x100054594, symSize: 0x168 }
  - { offsetInCU: 0x1362CE, offset: 0x1362CE, size: 0x8, addend: 0x0, symName: __ZN5Eigen8internal15BlockImpl_denseIKNS_9TransposeIKNS_6MatrixIdLin1ELin1ELi0ELin1ELin1EEEEELin1ELi1ELb0ELb1EE4initEv, symObjAddr: 0x50AF4, symBinAddr: 0x1000546FC, symSize: 0x80 }
  - { offsetInCU: 0x1362F4, offset: 0x1362F4, size: 0x8, addend: 0x0, symName: __ZN5Eigen10MatrixBaseINS_5BlockIKNS_9TransposeIKNS_6MatrixIdLin1ELin1ELi0ELin1ELin1EEEEELin1ELi1ELb0EEEEC2Ev, symObjAddr: 0x50B74, symBinAddr: 0x10005477C, symSize: 0x2C }
  - { offsetInCU: 0x13631E, offset: 0x13631E, size: 0x8, addend: 0x0, symName: __ZNK5Eigen7MapBaseINS_5BlockIKNS_9TransposeIKNS_6MatrixIdLin1ELin1ELi0ELin1ELin1EEEEELin1ELi1ELb0EEELi0EE11checkSanityIS8_EEvNS_8internal9enable_ifIXeqsr8internal6traitsIT_EE9AlignmentLi0EEPvE4typeE, symObjAddr: 0x50BA0, symBinAddr: 0x1000547A8, symSize: 0x14 }
  - { offsetInCU: 0x136357, offset: 0x136357, size: 0x8, addend: 0x0, symName: __ZN5Eigen9DenseBaseINS_5BlockIKNS_9TransposeIKNS_6MatrixIdLin1ELin1ELi0ELin1ELin1EEEEELin1ELi1ELb0EEEEC2Ev, symObjAddr: 0x50BB4, symBinAddr: 0x1000547BC, symSize: 0x14 }
  - { offsetInCU: 0x136381, offset: 0x136381, size: 0x8, addend: 0x0, symName: __ZNK5Eigen9EigenBaseINS_13CwiseBinaryOpINS_8internal17scalar_product_opIddEEKNS_9TransposeIKNS_5BlockIKNS_6MatrixIdLin1ELin1ELi0ELin1ELin1EEELi1ELin1ELb0EEEEEKNS6_IKNS5_IS9_EELin1ELi1ELb0EEEEEE4sizeEv, symObjAddr: 0x50BC8, symBinAddr: 0x1000547D0, symSize: 0x44 }
  - { offsetInCU: 0x1363A7, offset: 0x1363A7, size: 0x8, addend: 0x0, symName: __ZNK5Eigen9EigenBaseINS_13CwiseBinaryOpINS_8internal17scalar_product_opIddEEKNS_9TransposeIKNS_5BlockIKNS_6MatrixIdLin1ELin1ELi0ELin1ELin1EEELi1ELin1ELb0EEEEEKNS6_IKNS5_IS9_EELin1ELi1ELb0EEEEEE7derivedEv, symObjAddr: 0x50C0C, symBinAddr: 0x100054814, symSize: 0x14 }
  - { offsetInCU: 0x1363CD, offset: 0x1363CD, size: 0x8, addend: 0x0, symName: __ZNK5Eigen9DenseBaseINS_13CwiseBinaryOpINS_8internal17scalar_product_opIddEEKNS_9TransposeIKNS_5BlockIKNS_6MatrixIdLin1ELin1ELi0ELin1ELin1EEELi1ELin1ELb0EEEEEKNS6_IKNS5_IS9_EELin1ELi1ELb0EEEEEE5reduxINS2_13scalar_sum_opIddEEEEdRKT_, symObjAddr: 0x50C20, symBinAddr: 0x100054828, symSize: 0x3AC }
  - { offsetInCU: 0x13642F, offset: 0x13642F, size: 0x8, addend: 0x0, symName: __ZNK5Eigen9EigenBaseINS_13CwiseBinaryOpINS_8internal17scalar_product_opIddEEKNS_9TransposeIKNS_5BlockIKNS_6MatrixIdLin1ELin1ELi0ELin1ELin1EEELi1ELin1ELb0EEEEEKNS6_IKNS5_IS9_EELin1ELi1ELb0EEEEEE4rowsEv, symObjAddr: 0x50FCC, symBinAddr: 0x100054BD4, symSize: 0x44 }
  - { offsetInCU: 0x136455, offset: 0x136455, size: 0x8, addend: 0x0, symName: __ZNK5Eigen9EigenBaseINS_13CwiseBinaryOpINS_8internal17scalar_product_opIddEEKNS_9TransposeIKNS_5BlockIKNS_6MatrixIdLin1ELin1ELi0ELin1ELin1EEELi1ELin1ELb0EEEEEKNS6_IKNS5_IS9_EELin1ELi1ELb0EEEEEE4colsEv, symObjAddr: 0x51010, symBinAddr: 0x100054C18, symSize: 0x44 }
  - { offsetInCU: 0x13647B, offset: 0x13647B, size: 0x8, addend: 0x0, symName: __ZNK5Eigen13CwiseBinaryOpINS_8internal17scalar_product_opIddEEKNS_9TransposeIKNS_5BlockIKNS_6MatrixIdLin1ELin1ELi0ELin1ELin1EEELi1ELin1ELb0EEEEEKNS5_IKNS4_IS8_EELin1ELi1ELb0EEEE4rowsEv, symObjAddr: 0x51054, symBinAddr: 0x100054C5C, symSize: 0x28 }
  - { offsetInCU: 0x1364A1, offset: 0x1364A1, size: 0x8, addend: 0x0, symName: __ZNK5Eigen13CwiseBinaryOpINS_8internal17scalar_product_opIddEEKNS_9TransposeIKNS_5BlockIKNS_6MatrixIdLin1ELin1ELi0ELin1ELin1EEELi1ELin1ELb0EEEEEKNS5_IKNS4_IS8_EELin1ELi1ELb0EEEE4colsEv, symObjAddr: 0x5107C, symBinAddr: 0x100054C84, symSize: 0x24 }
  - { offsetInCU: 0x1365A8, offset: 0x1365A8, size: 0x8, addend: 0x0, symName: __ZN5Eigen8internal15redux_evaluatorINS_13CwiseBinaryOpINS0_17scalar_product_opIddEEKNS_9TransposeIKNS_5BlockIKNS_6MatrixIdLin1ELin1ELi0ELin1ELin1EEELi1ELin1ELb0EEEEEKNS6_IKNS5_IS9_EELin1ELi1ELb0EEEEEEC1ERKSI_, symObjAddr: 0x510A0, symBinAddr: 0x100054CA8, symSize: 0x34 }
  - { offsetInCU: 0x1365E6, offset: 0x1365E6, size: 0x8, addend: 0x0, symName: __ZN5Eigen8internal10redux_implINS0_13scalar_sum_opIddEENS0_15redux_evaluatorINS_13CwiseBinaryOpINS0_17scalar_product_opIddEEKNS_9TransposeIKNS_5BlockIKNS_6MatrixIdLin1ELin1ELi0ELin1ELin1EEELi1ELin1ELb0EEEEEKNS9_IKNS8_ISC_EELin1ELi1ELb0EEEEEEELi0ELi0EE3runISL_EEdRKSM_RKS3_RKT_, symObjAddr: 0x510D4, symBinAddr: 0x100054CDC, symSize: 0x594 }
  - { offsetInCU: 0x13669A, offset: 0x13669A, size: 0x8, addend: 0x0, symName: __ZN5Eigen8internal15redux_evaluatorINS_13CwiseBinaryOpINS0_17scalar_product_opIddEEKNS_9TransposeIKNS_5BlockIKNS_6MatrixIdLin1ELin1ELi0ELin1ELin1EEELi1ELin1ELb0EEEEEKNS6_IKNS5_IS9_EELin1ELi1ELb0EEEEEED1Ev, symObjAddr: 0x51668, symBinAddr: 0x100055270, symSize: 0x2C }
  - { offsetInCU: 0x1366C7, offset: 0x1366C7, size: 0x8, addend: 0x0, symName: __ZN5Eigen8internal15redux_evaluatorINS_13CwiseBinaryOpINS0_17scalar_product_opIddEEKNS_9TransposeIKNS_5BlockIKNS_6MatrixIdLin1ELin1ELi0ELin1ELin1EEELi1ELin1ELb0EEEEEKNS6_IKNS5_IS9_EELin1ELi1ELb0EEEEEEC2ERKSI_, symObjAddr: 0x51694, symBinAddr: 0x10005529C, symSize: 0x34 }
  - { offsetInCU: 0x136700, offset: 0x136700, size: 0x8, addend: 0x0, symName: __ZN5Eigen8internal9evaluatorINS_13CwiseBinaryOpINS0_17scalar_product_opIddEEKNS_9TransposeIKNS_5BlockIKNS_6MatrixIdLin1ELin1ELi0ELin1ELin1EEELi1ELin1ELb0EEEEEKNS6_IKNS5_IS9_EELin1ELi1ELb0EEEEEEC2ERKSI_, symObjAddr: 0x516C8, symBinAddr: 0x1000552D0, symSize: 0x34 }
  - { offsetInCU: 0x136739, offset: 0x136739, size: 0x8, addend: 0x0, symName: __ZN5Eigen8internal16binary_evaluatorINS_13CwiseBinaryOpINS0_17scalar_product_opIddEEKNS_9TransposeIKNS_5BlockIKNS_6MatrixIdLin1ELin1ELi0ELin1ELin1EEELi1ELin1ELb0EEEEEKNS6_IKNS5_IS9_EELin1ELi1ELb0EEEEENS0_10IndexBasedESJ_ddEC2ERKSI_, symObjAddr: 0x516FC, symBinAddr: 0x100055304, symSize: 0x64 }
  - { offsetInCU: 0x136772, offset: 0x136772, size: 0x8, addend: 0x0, symName: __ZN5Eigen8internal14evaluator_baseINS_13CwiseBinaryOpINS0_17scalar_product_opIddEEKNS_9TransposeIKNS_5BlockIKNS_6MatrixIdLin1ELin1ELi0ELin1ELin1EEELi1ELin1ELb0EEEEEKNS6_IKNS5_IS9_EELin1ELi1ELb0EEEEEEC2Ev, symObjAddr: 0x51760, symBinAddr: 0x100055368, symSize: 0x14 }
  - { offsetInCU: 0x13679C, offset: 0x13679C, size: 0x8, addend: 0x0, symName: __ZN5Eigen8internal16binary_evaluatorINS_13CwiseBinaryOpINS0_17scalar_product_opIddEEKNS_9TransposeIKNS_5BlockIKNS_6MatrixIdLin1ELin1ELi0ELin1ELin1EEELi1ELin1ELb0EEEEEKNS6_IKNS5_IS9_EELin1ELi1ELb0EEEEENS0_10IndexBasedESJ_ddE4DataC1ERKSI_, symObjAddr: 0x51774, symBinAddr: 0x10005537C, symSize: 0x34 }
  - { offsetInCU: 0x1367D5, offset: 0x1367D5, size: 0x8, addend: 0x0, symName: __ZN5Eigen8internal14evaluator_baseINS_13CwiseBinaryOpINS0_17scalar_product_opIddEEKNS_9TransposeIKNS_5BlockIKNS_6MatrixIdLin1ELin1ELi0ELin1ELin1EEELi1ELin1ELb0EEEEEKNS6_IKNS5_IS9_EELin1ELi1ELb0EEEEEED2Ev, symObjAddr: 0x517A8, symBinAddr: 0x1000553B0, symSize: 0x14 }
  - { offsetInCU: 0x1367FF, offset: 0x1367FF, size: 0x8, addend: 0x0, symName: __ZN5Eigen8internal16binary_evaluatorINS_13CwiseBinaryOpINS0_17scalar_product_opIddEEKNS_9TransposeIKNS_5BlockIKNS_6MatrixIdLin1ELin1ELi0ELin1ELin1EEELi1ELin1ELb0EEEEEKNS6_IKNS5_IS9_EELin1ELi1ELb0EEEEENS0_10IndexBasedESJ_ddE4DataC2ERKSI_, symObjAddr: 0x517BC, symBinAddr: 0x1000553C4, symSize: 0xA8 }
  - { offsetInCU: 0x136838, offset: 0x136838, size: 0x8, addend: 0x0, symName: __ZNK5Eigen13CwiseBinaryOpINS_8internal17scalar_product_opIddEEKNS_9TransposeIKNS_5BlockIKNS_6MatrixIdLin1ELin1ELi0ELin1ELin1EEELi1ELin1ELb0EEEEEKNS5_IKNS4_IS8_EELin1ELi1ELb0EEEE7functorEv, symObjAddr: 0x51864, symBinAddr: 0x10005546C, symSize: 0x18 }
  - { offsetInCU: 0x13685E, offset: 0x13685E, size: 0x8, addend: 0x0, symName: __ZNK5Eigen13CwiseBinaryOpINS_8internal17scalar_product_opIddEEKNS_9TransposeIKNS_5BlockIKNS_6MatrixIdLin1ELin1ELi0ELin1ELin1EEELi1ELin1ELb0EEEEEKNS5_IKNS4_IS8_EELin1ELi1ELb0EEEE3lhsEv, symObjAddr: 0x5187C, symBinAddr: 0x100055484, symSize: 0x14 }
  - { offsetInCU: 0x136884, offset: 0x136884, size: 0x8, addend: 0x0, symName: __ZN5Eigen8internal9evaluatorIKNS_9TransposeIKNS_5BlockIKNS_6MatrixIdLin1ELin1ELi0ELin1ELin1EEELi1ELin1ELb0EEEEEEC1ERSA_, symObjAddr: 0x51890, symBinAddr: 0x100055498, symSize: 0x34 }
  - { offsetInCU: 0x1368BC, offset: 0x1368BC, size: 0x8, addend: 0x0, symName: __ZNK5Eigen13CwiseBinaryOpINS_8internal17scalar_product_opIddEEKNS_9TransposeIKNS_5BlockIKNS_6MatrixIdLin1ELin1ELi0ELin1ELin1EEELi1ELin1ELb0EEEEEKNS5_IKNS4_IS8_EELin1ELi1ELb0EEEE3rhsEv, symObjAddr: 0x518C4, symBinAddr: 0x1000554CC, symSize: 0x18 }
  - { offsetInCU: 0x1368E2, offset: 0x1368E2, size: 0x8, addend: 0x0, symName: __ZN5Eigen8internal9evaluatorIKNS_5BlockIKNS_9TransposeIKNS_6MatrixIdLin1ELin1ELi0ELin1ELin1EEEEELin1ELi1ELb0EEEEC1ERSA_, symObjAddr: 0x518DC, symBinAddr: 0x1000554E4, symSize: 0x34 }
  - { offsetInCU: 0x13691A, offset: 0x13691A, size: 0x8, addend: 0x0, symName: __ZN5Eigen8internal9evaluatorIKNS_9TransposeIKNS_5BlockIKNS_6MatrixIdLin1ELin1ELi0ELin1ELin1EEELi1ELin1ELb0EEEEEED1Ev, symObjAddr: 0x51910, symBinAddr: 0x100055518, symSize: 0x2C }
  - { offsetInCU: 0x136946, offset: 0x136946, size: 0x8, addend: 0x0, symName: __ZN5Eigen8internal9evaluatorIKNS_9TransposeIKNS_5BlockIKNS_6MatrixIdLin1ELin1ELi0ELin1ELin1EEELi1ELin1ELb0EEEEEEC2ERSA_, symObjAddr: 0x5193C, symBinAddr: 0x100055544, symSize: 0x34 }
  - { offsetInCU: 0x13697E, offset: 0x13697E, size: 0x8, addend: 0x0, symName: __ZN5Eigen8internal9evaluatorINS_9TransposeIKNS_5BlockIKNS_6MatrixIdLin1ELin1ELi0ELin1ELin1EEELi1ELin1ELb0EEEEEEC2ERKS9_, symObjAddr: 0x51970, symBinAddr: 0x100055578, symSize: 0x34 }
  - { offsetInCU: 0x1369B6, offset: 0x1369B6, size: 0x8, addend: 0x0, symName: __ZN5Eigen8internal15unary_evaluatorINS_9TransposeIKNS_5BlockIKNS_6MatrixIdLin1ELin1ELi0ELin1ELin1EEELi1ELin1ELb0EEEEENS0_10IndexBasedEdEC2ERKS9_, symObjAddr: 0x519A4, symBinAddr: 0x1000555AC, symSize: 0x74 }
  - { offsetInCU: 0x1369EF, offset: 0x1369EF, size: 0x8, addend: 0x0, symName: __ZN5Eigen8internal14evaluator_baseINS_9TransposeIKNS_5BlockIKNS_6MatrixIdLin1ELin1ELi0ELin1ELin1EEELi1ELin1ELb0EEEEEEC2Ev, symObjAddr: 0x51A18, symBinAddr: 0x100055620, symSize: 0x14 }
  - { offsetInCU: 0x136A19, offset: 0x136A19, size: 0x8, addend: 0x0, symName: __ZNK5Eigen9TransposeIKNS_5BlockIKNS_6MatrixIdLin1ELin1ELi0ELin1ELin1EEELi1ELin1ELb0EEEE16nestedExpressionEv, symObjAddr: 0x51A2C, symBinAddr: 0x100055634, symSize: 0x14 }
  - { offsetInCU: 0x136A3F, offset: 0x136A3F, size: 0x8, addend: 0x0, symName: __ZN5Eigen8internal9evaluatorIKNS_5BlockIKNS_6MatrixIdLin1ELin1ELi0ELin1ELin1EEELi1ELin1ELb0EEEEC1ERS7_, symObjAddr: 0x51A40, symBinAddr: 0x100055648, symSize: 0x34 }
  - { offsetInCU: 0x136A77, offset: 0x136A77, size: 0x8, addend: 0x0, symName: __ZN5Eigen8internal14evaluator_baseINS_9TransposeIKNS_5BlockIKNS_6MatrixIdLin1ELin1ELi0ELin1ELin1EEELi1ELin1ELb0EEEEEED2Ev, symObjAddr: 0x51A74, symBinAddr: 0x10005567C, symSize: 0x14 }
  - { offsetInCU: 0x136AA1, offset: 0x136AA1, size: 0x8, addend: 0x0, symName: __ZN5Eigen8internal9evaluatorIKNS_5BlockIKNS_6MatrixIdLin1ELin1ELi0ELin1ELin1EEELi1ELin1ELb0EEEEC2ERS7_, symObjAddr: 0x51A88, symBinAddr: 0x100055690, symSize: 0x34 }
  - { offsetInCU: 0x136AD9, offset: 0x136AD9, size: 0x8, addend: 0x0, symName: __ZN5Eigen8internal9evaluatorINS_5BlockIKNS_6MatrixIdLin1ELin1ELi0ELin1ELin1EEELi1ELin1ELb0EEEEC2ERKS6_, symObjAddr: 0x51ABC, symBinAddr: 0x1000556C4, symSize: 0x34 }
  - { offsetInCU: 0x136B12, offset: 0x136B12, size: 0x8, addend: 0x0, symName: __ZN5Eigen8internal15block_evaluatorIKNS_6MatrixIdLin1ELin1ELi0ELin1ELin1EEELi1ELin1ELb0ELb1EEC2ERKNS_5BlockIS4_Li1ELin1ELb0EEE, symObjAddr: 0x51AF0, symBinAddr: 0x1000556F8, symSize: 0xE0 }
  - { offsetInCU: 0x136B4B, offset: 0x136B4B, size: 0x8, addend: 0x0, symName: __ZN5Eigen8internal17mapbase_evaluatorINS_5BlockIKNS_6MatrixIdLin1ELin1ELi0ELin1ELin1EEELi1ELin1ELb0EEENS3_IdLi1ELin1ELi1ELi1ELin1EEEEC2ERKS6_, symObjAddr: 0x51BD0, symBinAddr: 0x1000557D8, symSize: 0xF0 }
  - { offsetInCU: 0x136B84, offset: 0x136B84, size: 0x8, addend: 0x0, symName: __ZNK5Eigen7MapBaseINS_5BlockIKNS_6MatrixIdLin1ELin1ELi0ELin1ELin1EEELi1ELin1ELb0EEELi0EE4dataEv, symObjAddr: 0x51CC0, symBinAddr: 0x1000558C8, symSize: 0x60 }
  - { offsetInCU: 0x136BAA, offset: 0x136BAA, size: 0x8, addend: 0x0, symName: __ZN5Eigen8internal17mapbase_evaluatorINS_5BlockIKNS_6MatrixIdLin1ELin1ELi0ELin1ELin1EEELi1ELin1ELb0EEENS3_IdLi1ELin1ELi1ELi1ELin1EEEED2Ev, symObjAddr: 0x51D20, symBinAddr: 0x100055928, symSize: 0x2C }
  - { offsetInCU: 0x136BD7, offset: 0x136BD7, size: 0x8, addend: 0x0, symName: __ZN5Eigen8internal14evaluator_baseINS_5BlockIKNS_6MatrixIdLin1ELin1ELi0ELin1ELin1EEELi1ELin1ELb0EEEEC2Ev, symObjAddr: 0x51D4C, symBinAddr: 0x100055954, symSize: 0x14 }
  - { offsetInCU: 0x136C01, offset: 0x136C01, size: 0x8, addend: 0x0, symName: __ZNK5Eigen8internal15BlockImpl_denseIKNS_6MatrixIdLin1ELin1ELi0ELin1ELin1EEELi1ELin1ELb0ELb1EE11innerStrideEv, symObjAddr: 0x51D60, symBinAddr: 0x100055968, symSize: 0x68 }
  - { offsetInCU: 0x136C27, offset: 0x136C27, size: 0x8, addend: 0x0, symName: __ZNK5Eigen8internal15BlockImpl_denseIKNS_6MatrixIdLin1ELin1ELi0ELin1ELin1EEELi1ELin1ELb0ELb1EE11outerStrideEv, symObjAddr: 0x51DC8, symBinAddr: 0x1000559D0, symSize: 0x68 }
  - { offsetInCU: 0x136C4D, offset: 0x136C4D, size: 0x8, addend: 0x0, symName: __ZN5Eigen8internal14evaluator_baseINS_5BlockIKNS_6MatrixIdLin1ELin1ELi0ELin1ELin1EEELi1ELin1ELb0EEEED2Ev, symObjAddr: 0x51E30, symBinAddr: 0x100055A38, symSize: 0x14 }
  - { offsetInCU: 0x136C77, offset: 0x136C77, size: 0x8, addend: 0x0, symName: __ZN5Eigen8internal9evaluatorIKNS_5BlockIKNS_9TransposeIKNS_6MatrixIdLin1ELin1ELi0ELin1ELin1EEEEELin1ELi1ELb0EEEEC2ERSA_, symObjAddr: 0x51E44, symBinAddr: 0x100055A4C, symSize: 0x34 }
  - { offsetInCU: 0x136CAF, offset: 0x136CAF, size: 0x8, addend: 0x0, symName: __ZN5Eigen8internal9evaluatorINS_5BlockIKNS_9TransposeIKNS_6MatrixIdLin1ELin1ELi0ELin1ELin1EEEEELin1ELi1ELb0EEEEC2ERKS9_, symObjAddr: 0x51E78, symBinAddr: 0x100055A80, symSize: 0x34 }
  - { offsetInCU: 0x136CE8, offset: 0x136CE8, size: 0x8, addend: 0x0, symName: __ZN5Eigen8internal15block_evaluatorIKNS_9TransposeIKNS_6MatrixIdLin1ELin1ELi0ELin1ELin1EEEEELin1ELi1ELb0ELb1EEC2ERKNS_5BlockIS7_Lin1ELi1ELb0EEE, symObjAddr: 0x51EAC, symBinAddr: 0x100055AB4, symSize: 0xE0 }
  - { offsetInCU: 0x136D21, offset: 0x136D21, size: 0x8, addend: 0x0, symName: __ZN5Eigen8internal17mapbase_evaluatorINS_5BlockIKNS_9TransposeIKNS_6MatrixIdLin1ELin1ELi0ELin1ELin1EEEEELin1ELi1ELb0EEENS4_IdLin1ELi1ELi0ELin1ELi1EEEEC2ERKS9_, symObjAddr: 0x51F8C, symBinAddr: 0x100055B94, symSize: 0xF0 }
  - { offsetInCU: 0x136D5A, offset: 0x136D5A, size: 0x8, addend: 0x0, symName: __ZNK5Eigen7MapBaseINS_5BlockIKNS_9TransposeIKNS_6MatrixIdLin1ELin1ELi0ELin1ELin1EEEEELin1ELi1ELb0EEELi0EE4dataEv, symObjAddr: 0x5207C, symBinAddr: 0x100055C84, symSize: 0x60 }
  - { offsetInCU: 0x136D80, offset: 0x136D80, size: 0x8, addend: 0x0, symName: __ZN5Eigen8internal17mapbase_evaluatorINS_5BlockIKNS_9TransposeIKNS_6MatrixIdLin1ELin1ELi0ELin1ELin1EEEEELin1ELi1ELb0EEENS4_IdLin1ELi1ELi0ELin1ELi1EEEED2Ev, symObjAddr: 0x520DC, symBinAddr: 0x100055CE4, symSize: 0x2C }
  - { offsetInCU: 0x136DAD, offset: 0x136DAD, size: 0x8, addend: 0x0, symName: __ZN5Eigen8internal14evaluator_baseINS_5BlockIKNS_9TransposeIKNS_6MatrixIdLin1ELin1ELi0ELin1ELin1EEEEELin1ELi1ELb0EEEEC2Ev, symObjAddr: 0x52108, symBinAddr: 0x100055D10, symSize: 0x14 }
  - { offsetInCU: 0x136DD7, offset: 0x136DD7, size: 0x8, addend: 0x0, symName: __ZNK5Eigen8internal15BlockImpl_denseIKNS_9TransposeIKNS_6MatrixIdLin1ELin1ELi0ELin1ELin1EEEEELin1ELi1ELb0ELb1EE11innerStrideEv, symObjAddr: 0x5211C, symBinAddr: 0x100055D24, symSize: 0x44 }
  - { offsetInCU: 0x136DFD, offset: 0x136DFD, size: 0x8, addend: 0x0, symName: __ZNK5Eigen8internal15BlockImpl_denseIKNS_9TransposeIKNS_6MatrixIdLin1ELin1ELi0ELin1ELin1EEEEELin1ELi1ELb0ELb1EE11outerStrideEv, symObjAddr: 0x52160, symBinAddr: 0x100055D68, symSize: 0x28 }
  - { offsetInCU: 0x136E23, offset: 0x136E23, size: 0x8, addend: 0x0, symName: __ZN5Eigen8internal14evaluator_baseINS_5BlockIKNS_9TransposeIKNS_6MatrixIdLin1ELin1ELi0ELin1ELin1EEEEELin1ELi1ELb0EEEED2Ev, symObjAddr: 0x52188, symBinAddr: 0x100055D90, symSize: 0x14 }
  - { offsetInCU: 0x136E4D, offset: 0x136E4D, size: 0x8, addend: 0x0, symName: __ZNK5Eigen13TransposeImplIKNS_6MatrixIdLin1ELin1ELi0ELin1ELin1EEENS_5DenseEE11outerStrideEv, symObjAddr: 0x5219C, symBinAddr: 0x100055DA4, symSize: 0x2C }
  - { offsetInCU: 0x136E73, offset: 0x136E73, size: 0x8, addend: 0x0, symName: __ZN5Eigen8internal9evaluatorIKNS_9TransposeIKNS_5BlockIKNS_6MatrixIdLin1ELin1ELi0ELin1ELin1EEELi1ELin1ELb0EEEEEED2Ev, symObjAddr: 0x521C8, symBinAddr: 0x100055DD0, symSize: 0x2C }
  - { offsetInCU: 0x136E9F, offset: 0x136E9F, size: 0x8, addend: 0x0, symName: __ZN5Eigen8internal9evaluatorINS_9TransposeIKNS_5BlockIKNS_6MatrixIdLin1ELin1ELi0ELin1ELin1EEELi1ELin1ELb0EEEEEED2Ev, symObjAddr: 0x521F4, symBinAddr: 0x100055DFC, symSize: 0x2C }
  - { offsetInCU: 0x136ECB, offset: 0x136ECB, size: 0x8, addend: 0x0, symName: __ZN5Eigen8internal15unary_evaluatorINS_9TransposeIKNS_5BlockIKNS_6MatrixIdLin1ELin1ELi0ELin1ELin1EEELi1ELin1ELb0EEEEENS0_10IndexBasedEdED2Ev, symObjAddr: 0x52220, symBinAddr: 0x100055E28, symSize: 0x34 }
  - { offsetInCU: 0x136EF7, offset: 0x136EF7, size: 0x8, addend: 0x0, symName: __ZN5Eigen8internal9evaluatorIKNS_5BlockIKNS_6MatrixIdLin1ELin1ELi0ELin1ELin1EEELi1ELin1ELb0EEEED1Ev, symObjAddr: 0x52254, symBinAddr: 0x100055E5C, symSize: 0x2C }
  - { offsetInCU: 0x136F23, offset: 0x136F23, size: 0x8, addend: 0x0, symName: __ZN5Eigen8internal9evaluatorIKNS_5BlockIKNS_6MatrixIdLin1ELin1ELi0ELin1ELin1EEELi1ELin1ELb0EEEED2Ev, symObjAddr: 0x52280, symBinAddr: 0x100055E88, symSize: 0x2C }
  - { offsetInCU: 0x136F4F, offset: 0x136F4F, size: 0x8, addend: 0x0, symName: __ZN5Eigen8internal9evaluatorINS_5BlockIKNS_6MatrixIdLin1ELin1ELi0ELin1ELin1EEELi1ELin1ELb0EEEED2Ev, symObjAddr: 0x522AC, symBinAddr: 0x100055EB4, symSize: 0x2C }
  - { offsetInCU: 0x136F7C, offset: 0x136F7C, size: 0x8, addend: 0x0, symName: __ZN5Eigen8internal15block_evaluatorIKNS_6MatrixIdLin1ELin1ELi0ELin1ELin1EEELi1ELin1ELb0ELb1EED2Ev, symObjAddr: 0x522D8, symBinAddr: 0x100055EE0, symSize: 0x2C }
  - { offsetInCU: 0x136FA9, offset: 0x136FA9, size: 0x8, addend: 0x0, symName: __ZNK5Eigen8internal15redux_evaluatorINS_13CwiseBinaryOpINS0_17scalar_product_opIddEEKNS_9TransposeIKNS_5BlockIKNS_6MatrixIdLin1ELin1ELi0ELin1ELin1EEELi1ELin1ELb0EEEEEKNS6_IKNS5_IS9_EELin1ELi1ELb0EEEEEE17coeffByOuterInnerEll, symObjAddr: 0x52304, symBinAddr: 0x100055F0C, symSize: 0x34 }
  - { offsetInCU: 0x136FED, offset: 0x136FED, size: 0x8, addend: 0x0, symName: __ZNK5Eigen9DenseBaseINS_13CwiseBinaryOpINS_8internal17scalar_product_opIddEEKNS_9TransposeIKNS_5BlockIKNS_6MatrixIdLin1ELin1ELi0ELin1ELin1EEELi1ELin1ELb0EEEEEKNS6_IKNS5_IS9_EELin1ELi1ELb0EEEEEE9innerSizeEv, symObjAddr: 0x52338, symBinAddr: 0x100055F40, symSize: 0x24 }
  - { offsetInCU: 0x137013, offset: 0x137013, size: 0x8, addend: 0x0, symName: __ZNK5Eigen9DenseBaseINS_13CwiseBinaryOpINS_8internal17scalar_product_opIddEEKNS_9TransposeIKNS_5BlockIKNS_6MatrixIdLin1ELin1ELi0ELin1ELin1EEELi1ELin1ELb0EEEEEKNS6_IKNS5_IS9_EELin1ELi1ELb0EEEEEE9outerSizeEv, symObjAddr: 0x5235C, symBinAddr: 0x100055F64, symSize: 0x14 }
  - { offsetInCU: 0x137039, offset: 0x137039, size: 0x8, addend: 0x0, symName: __ZNK5Eigen8internal16binary_evaluatorINS_13CwiseBinaryOpINS0_17scalar_product_opIddEEKNS_9TransposeIKNS_5BlockIKNS_6MatrixIdLin1ELin1ELi0ELin1ELin1EEELi1ELin1ELb0EEEEEKNS6_IKNS5_IS9_EELin1ELi1ELb0EEEEENS0_10IndexBasedESJ_ddE5coeffEll, symObjAddr: 0x52370, symBinAddr: 0x100055F78, symSize: 0x2E4 }
  - { offsetInCU: 0x137080, offset: 0x137080, size: 0x8, addend: 0x0, symName: __ZNK5Eigen8internal16binary_evaluatorINS_13CwiseBinaryOpINS0_17scalar_product_opIddEEKNS_9TransposeIKNS_5BlockIKNS_6MatrixIdLin1ELin1ELi0ELin1ELin1EEELi1ELin1ELb0EEEEEKNS6_IKNS5_IS9_EELin1ELi1ELb0EEEEENS0_10IndexBasedESJ_ddE4Data4funcEv, symObjAddr: 0x52654, symBinAddr: 0x10005625C, symSize: 0x14 }
  - { offsetInCU: 0x1370A6, offset: 0x1370A6, size: 0x8, addend: 0x0, symName: __ZNK5Eigen8internal15unary_evaluatorINS_9TransposeIKNS_5BlockIKNS_6MatrixIdLin1ELin1ELi0ELin1ELin1EEELi1ELin1ELb0EEEEENS0_10IndexBasedEdE5coeffEll, symObjAddr: 0x52668, symBinAddr: 0x100056270, symSize: 0x34 }
  - { offsetInCU: 0x1370EA, offset: 0x1370EA, size: 0x8, addend: 0x0, symName: __ZNK5Eigen8internal17mapbase_evaluatorINS_5BlockIKNS_9TransposeIKNS_6MatrixIdLin1ELin1ELi0ELin1ELin1EEEEELin1ELi1ELb0EEENS4_IdLin1ELi1ELi0ELin1ELi1EEEE5coeffEll, symObjAddr: 0x5269C, symBinAddr: 0x1000562A4, symSize: 0xEC }
  - { offsetInCU: 0x13712E, offset: 0x13712E, size: 0x8, addend: 0x0, symName: __ZNK5Eigen8internal17mapbase_evaluatorINS_5BlockIKNS_6MatrixIdLin1ELin1ELi0ELin1ELin1EEELi1ELin1ELb0EEENS3_IdLi1ELin1ELi1ELi1ELin1EEEE5coeffEll, symObjAddr: 0x52788, symBinAddr: 0x100056390, symSize: 0xEC }
  - { offsetInCU: 0x137172, offset: 0x137172, size: 0x8, addend: 0x0, symName: __ZNK5Eigen8internal17mapbase_evaluatorINS_5BlockIKNS_6MatrixIdLin1ELin1ELi0ELin1ELin1EEELi1ELin1ELb0EEENS3_IdLi1ELin1ELi1ELi1ELin1EEEE9colStrideEv, symObjAddr: 0x52874, symBinAddr: 0x10005647C, symSize: 0x28 }
  - { offsetInCU: 0x137198, offset: 0x137198, size: 0x8, addend: 0x0, symName: __ZNK5Eigen8internal17mapbase_evaluatorINS_5BlockIKNS_6MatrixIdLin1ELin1ELi0ELin1ELin1EEELi1ELin1ELb0EEENS3_IdLi1ELin1ELi1ELi1ELin1EEEE9rowStrideEv, symObjAddr: 0x5289C, symBinAddr: 0x1000564A4, symSize: 0x20 }
  - { offsetInCU: 0x1371BE, offset: 0x1371BE, size: 0x8, addend: 0x0, symName: __ZNK5Eigen8internal17mapbase_evaluatorINS_5BlockIKNS_9TransposeIKNS_6MatrixIdLin1ELin1ELi0ELin1ELin1EEEEELin1ELi1ELb0EEENS4_IdLin1ELi1ELi0ELin1ELi1EEEE9colStrideEv, symObjAddr: 0x528BC, symBinAddr: 0x1000564C4, symSize: 0x20 }
  - { offsetInCU: 0x1371E4, offset: 0x1371E4, size: 0x8, addend: 0x0, symName: __ZNK5Eigen8internal17mapbase_evaluatorINS_5BlockIKNS_9TransposeIKNS_6MatrixIdLin1ELin1ELi0ELin1ELin1EEEEELin1ELi1ELb0EEENS4_IdLin1ELi1ELi0ELin1ELi1EEEE9rowStrideEv, symObjAddr: 0x528DC, symBinAddr: 0x1000564E4, symSize: 0x28 }
  - { offsetInCU: 0x13720A, offset: 0x13720A, size: 0x8, addend: 0x0, symName: __ZN5Eigen8internal15redux_evaluatorINS_13CwiseBinaryOpINS0_17scalar_product_opIddEEKNS_9TransposeIKNS_5BlockIKNS_6MatrixIdLin1ELin1ELi0ELin1ELin1EEELi1ELin1ELb0EEEEEKNS6_IKNS5_IS9_EELin1ELi1ELb0EEEEEED2Ev, symObjAddr: 0x52904, symBinAddr: 0x10005650C, symSize: 0x2C }
  - { offsetInCU: 0x137237, offset: 0x137237, size: 0x8, addend: 0x0, symName: __ZN5Eigen8internal9evaluatorINS_13CwiseBinaryOpINS0_17scalar_product_opIddEEKNS_9TransposeIKNS_5BlockIKNS_6MatrixIdLin1ELin1ELi0ELin1ELin1EEELi1ELin1ELb0EEEEEKNS6_IKNS5_IS9_EELin1ELi1ELb0EEEEEED2Ev, symObjAddr: 0x52930, symBinAddr: 0x100056538, symSize: 0x2C }
  - { offsetInCU: 0x137264, offset: 0x137264, size: 0x8, addend: 0x0, symName: __ZN5Eigen8internal16binary_evaluatorINS_13CwiseBinaryOpINS0_17scalar_product_opIddEEKNS_9TransposeIKNS_5BlockIKNS_6MatrixIdLin1ELin1ELi0ELin1ELin1EEELi1ELin1ELb0EEEEEKNS6_IKNS5_IS9_EELin1ELi1ELb0EEEEENS0_10IndexBasedESJ_ddED2Ev, symObjAddr: 0x5295C, symBinAddr: 0x100056564, symSize: 0x34 }
  - { offsetInCU: 0x137290, offset: 0x137290, size: 0x8, addend: 0x0, symName: __ZN5Eigen8internal16binary_evaluatorINS_13CwiseBinaryOpINS0_17scalar_product_opIddEEKNS_9TransposeIKNS_5BlockIKNS_6MatrixIdLin1ELin1ELi0ELin1ELin1EEELi1ELin1ELb0EEEEEKNS6_IKNS5_IS9_EELin1ELi1ELb0EEEEENS0_10IndexBasedESJ_ddE4DataD1Ev, symObjAddr: 0x52990, symBinAddr: 0x100056598, symSize: 0x2C }
  - { offsetInCU: 0x1372BD, offset: 0x1372BD, size: 0x8, addend: 0x0, symName: __ZN5Eigen8internal16binary_evaluatorINS_13CwiseBinaryOpINS0_17scalar_product_opIddEEKNS_9TransposeIKNS_5BlockIKNS_6MatrixIdLin1ELin1ELi0ELin1ELin1EEELi1ELin1ELb0EEEEEKNS6_IKNS5_IS9_EELin1ELi1ELb0EEEEENS0_10IndexBasedESJ_ddE4DataD2Ev, symObjAddr: 0x529BC, symBinAddr: 0x1000565C4, symSize: 0x3C }
  - { offsetInCU: 0x1372EA, offset: 0x1372EA, size: 0x8, addend: 0x0, symName: __ZN5Eigen8internal9evaluatorIKNS_5BlockIKNS_9TransposeIKNS_6MatrixIdLin1ELin1ELi0ELin1ELin1EEEEELin1ELi1ELb0EEEED1Ev, symObjAddr: 0x529F8, symBinAddr: 0x100056600, symSize: 0x2C }
  - { offsetInCU: 0x137316, offset: 0x137316, size: 0x8, addend: 0x0, symName: __ZN5Eigen8internal9evaluatorIKNS_5BlockIKNS_9TransposeIKNS_6MatrixIdLin1ELin1ELi0ELin1ELin1EEEEELin1ELi1ELb0EEEED2Ev, symObjAddr: 0x52A24, symBinAddr: 0x10005662C, symSize: 0x2C }
  - { offsetInCU: 0x137342, offset: 0x137342, size: 0x8, addend: 0x0, symName: __ZN5Eigen8internal9evaluatorINS_5BlockIKNS_9TransposeIKNS_6MatrixIdLin1ELin1ELi0ELin1ELin1EEEEELin1ELi1ELb0EEEED2Ev, symObjAddr: 0x52A50, symBinAddr: 0x100056658, symSize: 0x2C }
  - { offsetInCU: 0x13736F, offset: 0x13736F, size: 0x8, addend: 0x0, symName: __ZN5Eigen8internal15block_evaluatorIKNS_9TransposeIKNS_6MatrixIdLin1ELin1ELi0ELin1ELin1EEEEELin1ELi1ELb0ELb1EED2Ev, symObjAddr: 0x52A7C, symBinAddr: 0x100056684, symSize: 0x2C }
  - { offsetInCU: 0x13739C, offset: 0x13739C, size: 0x8, addend: 0x0, symName: __ZN5Eigen8internal31generic_dense_assignment_kernelINS0_9evaluatorINS_6MatrixIdLin1ELin1ELi0ELin1ELin1EEEEENS2_INS_7ProductIS4_NS_9TransposeIKS4_EELi1EEEEENS0_9assign_opIddEELi1EE12assignPacketILi16ELi0E19__simd128_float64_tEEvll, symObjAddr: 0x52AA8, symBinAddr: 0x1000566B0, symSize: 0x2EC }
  - { offsetInCU: 0x137400, offset: 0x137400, size: 0x8, addend: 0x0, symName: __ZNK5Eigen8internal17product_evaluatorINS_7ProductINS_6MatrixIdLin1ELin1ELi0ELin1ELin1EEENS_9TransposeIKS4_EELi1EEELi8ENS_10DenseShapeES9_ddE6packetILi0E19__simd128_float64_tEEKT0_ll, symObjAddr: 0x52D94, symBinAddr: 0x10005699C, symSize: 0x284 }
  - { offsetInCU: 0x137486, offset: 0x137486, size: 0x8, addend: 0x0, symName: __ZN5Eigen8internal24etor_product_packet_implILi0ELin1ENS0_9evaluatorINS_6MatrixIdLin1ELin1ELi0ELin1ELin1EEEEENS2_INS_9TransposeIKS4_EEEE19__simd128_float64_tLi0EE3runEllRKS5_RKS9_lRSA_, symObjAddr: 0x53018, symBinAddr: 0x100056C20, symSize: 0x478 }
  - { offsetInCU: 0x137519, offset: 0x137519, size: 0x8, addend: 0x0, symName: __ZNK5Eigen8internal15unary_evaluatorINS_9TransposeIKNS_6MatrixIdLin1ELin1ELi0ELin1ELin1EEEEENS0_10IndexBasedEdE5coeffEll, symObjAddr: 0x53638, symBinAddr: 0x100057240, symSize: 0x7C }
  - { offsetInCU: 0x13755D, offset: 0x13755D, size: 0x8, addend: 0x0, symName: __ZN5Eigen8internal9evaluatorINS_7ProductINS_6MatrixIdLin1ELin1ELi0ELin1ELin1EEENS_9TransposeIKS4_EELi1EEEED2Ev, symObjAddr: 0x536B4, symBinAddr: 0x1000572BC, symSize: 0x2C }
